 dolphin

 Timestamp is 589f6550 (Sat Feb 11 22:26:08 2017)

 Preferred load address is 0000000180000000

 Start         Length     Name                   Class
 0001:00000000 0004fdecH .text$mn                CODE
 0001:0004fdf0 000006abH .text$x                 CODE
 0002:00000000 00000248H .idata$5                DATA
 0002:00000248 00000008H .CRT$XCA                DATA
 0002:00000250 00000008H .CRT$XCZ                DATA
 0002:00000258 00000008H .CRT$XIA                DATA
 0002:00000260 00000028H .CRT$XIC                DATA
 0002:00000288 00000008H .CRT$XIZ                DATA
 0002:00000290 00000008H .CRT$XPA                DATA
 0002:00000298 00000010H .CRT$XPX                DATA
 0002:000002a8 00000008H .CRT$XPXA               DATA
 0002:000002b0 00000008H .CRT$XPZ                DATA
 0002:000002b8 00000008H .CRT$XTA                DATA
 0002:000002c0 00000008H .CRT$XTZ                DATA
 0002:000002d0 0000fc70H .rdata                  DATA
 0002:0000ff40 00000070H .rdata$debug            DATA
 0002:0000ffb0 0000016cH .rdata$r                DATA
 0002:00010120 00000008H .rtc$IAA                DATA
 0002:00010128 00000008H .rtc$IZZ                DATA
 0002:00010130 00000008H .rtc$TAA                DATA
 0002:00010138 00000008H .rtc$TZZ                DATA
 0002:00010140 000015e0H .xdata                  DATA
 0002:00011720 00000084H .xdata$x                DATA
 0002:000117b0 00000070H .edata                  DATA
 0002:00011820 00000014H .idata$2                DATA
 0002:00011834 00000014H .idata$3                DATA
 0002:00011848 00000248H .idata$4                DATA
 0002:00011a90 00000556H .idata$6                DATA
 0003:00000000 00005ce8H .data                   DATA
 0003:00005ce8 00000070H .data$r                 DATA
 0003:00005d60 00002668H .bss                    DATA
 0004:00000000 00002070H .pdata                  DATA

  Address         Publics by Value              Rva+Base               Lib:Object

 0000:00000000       ___safe_se_handler_table   0000000000000000     <absolute>
 0000:00000000       __guard_fids_table         0000000000000000     <absolute>
 0000:00000000       __guard_flags              0000000000000000     <absolute>
 0000:00000000       __guard_fids_count         0000000000000000     <absolute>
 0000:00000000       ___safe_se_handler_count   0000000000000000     <absolute>
 0000:00000000       __ImageBase                0000000180000000     <linker-defined>
 0001:00000910       ?GameUpdateAndRenderStub@@YAXPEAUgame_memory@@PEAUgame_input@@PEAUgame_offscreen_buffer@@PEAUgame_sound_output_buffer@@@Z 0000000180001910 f   dolphin.obj
 0001:00000930       ?GameGetSoundSamplesStub@@YAXPEAUgame_memory@@PEAUgame_sound_output_buffer@@@Z 0000000180001930 f   dolphin.obj
 0001:000143b0       ?stbi__tga_read_rgb16@@YAXPEAUstbi__context@@PEAE@Z 00000001800153b0 f   dolphin.obj
 0001:00018a20       GameUpdateAndRender        0000000180019a20 f   dolphin.obj
 0001:00019da0       GameGetSoundSamples        000000018001ada0 f   dolphin.obj
 0001:00019e00       ??D@YA?ATgdVec2@@MT0@@Z    000000018001ae00 f i dolphin.obj
 0001:00019e50       ??D@YA?ATgdVec2@@T0@M@Z    000000018001ae50 f i dolphin.obj
 0001:00019ea0       ??D@YA?ATgdVec3@@T0@M@Z    000000018001aea0 f i dolphin.obj
 0001:00019f40       ??D@YA?AUvolume_v2@@MU0@@Z 000000018001af40 f i dolphin.obj
 0001:00019fa0       ??G@YA?ATgdVec3@@T0@0@Z    000000018001afa0 f i dolphin.obj
 0001:0001a050       ??H@YA?ATgdVec2@@T0@0@Z    000000018001b050 f i dolphin.obj
 0001:0001a0a0       ??H@YA?ATgdVec3@@T0@0@Z    000000018001b0a0 f i dolphin.obj
 0001:0001a150       ??X@YAAEATgdVec3@@AEAT0@M@Z 000000018001b150 f i dolphin.obj
 0001:0001a1f0       ??Y@YAAEAUvolume_v2@@AEAU0@U0@@Z 000000018001b1f0 f i dolphin.obj
 0001:0001a250       ?AtomicCompareExchangeUInt32@@YAIPECIII@Z 000000018001b250 f i dolphin.obj
 0001:0001a290       ?BeginTemporaryMemory@@YA?AUtemporary_memory@@PEAUmemory_arena@@@Z 000000018001b290 f i dolphin.obj
 0001:0001a2f0       ?EndTemporaryMemory@@YAXUtemporary_memory@@@Z 000000018001b2f0 f i dolphin.obj
 0001:0001a360       ?FloorReal32ToInt32@@YAHM@Z 000000018001b360 f i dolphin.obj
 0001:0001a390       ?GetAlignmentOffset@@YA_KPEAUmemory_arena@@_K@Z 000000018001b390 f i dolphin.obj
 0001:0001a410       ?GetBestMatchBitmapFrom@@YA?AUbitmap_id@@PEAUgame_assets@@W4asset_type_id@@PEAUasset_vector@@2@Z 000000018001b410 f i dolphin.obj
 0001:0001a450       ?GetBitmap@@YAPEAUloaded_bitmap@@PEAUgame_assets@@Ubitmap_id@@@Z 000000018001b450 f i dolphin.obj
 0001:0001a480       ?GetBitmapDim@@YA?AUbitmap_dimension@@PEAUrender_group@@PEAUloaded_bitmap@@MTgdVec3@@M@Z 000000018001b480 f i dolphin.obj
 0001:0001a670       ?GetChunkData@@YAPEAXUriff_iterator@@@Z 000000018001b670 f i dolphin.obj
 0001:0001a6a0       ?GetChunkDataSize@@YAIUriff_iterator@@@Z 000000018001b6a0 f i dolphin.obj
 0001:0001a6d0       ?GetFirstSoundFrom@@YA?AUsound_id@@PEAUgame_assets@@W4asset_type_id@@@Z 000000018001b6d0 f i dolphin.obj
 0001:0001a6d0       ?GetFirstBitmapFrom@@YA?AUbitmap_id@@PEAUgame_assets@@W4asset_type_id@@@Z 000000018001b6d0 f i dolphin.obj
 0001:0001a700       ?GetSound@@YAPEAUloaded_sound@@PEAUgame_assets@@Usound_id@@@Z 000000018001b700 f i dolphin.obj
 0001:0001a730       ?GetSoundInfo@@YAPEAUasset_sound_info@@PEAUgame_assets@@Usound_id@@@Z 000000018001b730 f i dolphin.obj
 0001:0001a780       ?GetType@@YAIUriff_iterator@@@Z 000000018001b780 f i dolphin.obj
 0001:0001a7b0       ?InitializeMemoryArena@@YAXPEAUmemory_arena@@_KPEAX@Z 000000018001b7b0 f i dolphin.obj
 0001:0001a7f0       ?IsValid@@YAHUriff_iterator@@@Z 000000018001b7f0 f i dolphin.obj
 0001:0001a830       ?IsValid@@YAHUsound_id@@@Z 000000018001b830 f i dolphin.obj
 0001:0001a860       ?Linear1ToSRGB255@@YA?ATgdVec4@@T1@@Z 000000018001b860 f i dolphin.obj
 0001:0001a930       ?NextChunk@@YA?AUriff_iterator@@U1@@Z 000000018001b930 f i dolphin.obj
 0001:0001a9a0       ?ParseChunkAt@@YA?AUriff_iterator@@PEAX0@Z 000000018001b9a0 f i dolphin.obj
 0001:0001a9f0       ?PrefetchSound@@YAXPEAUgame_assets@@Usound_id@@@Z 000000018001b9f0 f i dolphin.obj
 0001:0001aa10       ?PushBitmap@@YAXPEAUrender_group@@PEAUloaded_bitmap@@MTgdVec3@@TgdVec4@@M@Z 000000018001ba10 f i dolphin.obj
 0001:0001ac40       ?PushBitmap@@YAXPEAUrender_group@@Ubitmap_id@@MTgdVec3@@TgdVec4@@M@Z 000000018001bc40 f i dolphin.obj
 0001:0001ad10       ?PushClear@@YAXPEAUrender_group@@TgdVec4@@@Z 000000018001bd10 f i dolphin.obj
 0001:0001ad60       ?PushRectangle@@YAXPEAUrender_group@@TgdVec3@@TgdVec2@@TgdVec4@@@Z 000000018001bd60 f i dolphin.obj
 0001:0001ae10       ?PushRectangleOutline@@YAXPEAUrender_group@@TgdVec3@@TgdVec2@@TgdVec4@@M@Z 000000018001be10 f i dolphin.obj
 0001:0001b2c0       ?PushRenderElement_@@YAPEAXPEAUrender_group@@IW4render_group_entry_type@@@Z 000000018001c2c0 f i dolphin.obj
 0001:0001b360       ?PushSize_@@YAPEAXPEAUmemory_arena@@_K1@Z 000000018001c360 f i dolphin.obj
 0001:0001b420       ?PushString@@YAPEADPEAUmemory_arena@@PEAD@Z 000000018001c420 f i dolphin.obj
 0001:0001b4d0       ?RenderRectangle@@YAXPEAUloaded_bitmap@@TgdVec2@@1TgdVec4@@UgdRect2i@@@Z 000000018001c4d0 f i dolphin.obj
 0001:0001b800       ?RenderRectangleQuickly@@YAXPEAUloaded_bitmap@@TgdVec2@@110TgdVec4@@UgdRect2i@@@Z 000000018001c800 f i dolphin.obj
 0001:0001de80       ?RoundReal32ToInt32@@YAHM@Z 000000018001ee80 f i dolphin.obj
 0001:0001deb0       ?RoundReal32ToUInt32@@YAIM@Z 000000018001eeb0 f i dolphin.obj
 0001:0001dee0       ?SRGB255ToLinear1@@YA?ATgdVec4@@T1@@Z 000000018001eee0 f i dolphin.obj
 0001:0001dfd0       ?SafeRatio0@@YAMMM@Z       000000018001efd0 f i dolphin.obj
 0001:0001e010       ?SafeRatioN@@YAMMMM@Z      000000018001f010 f i dolphin.obj
 0001:0001e060       ?SubArena@@YAXPEAUmemory_arena@@0_K1@Z 000000018001f060 f i dolphin.obj
 0001:0001e0c0       ?ldexp@@YAMMH@Z            000000018001f0c0 f i dolphin.obj
 0001:0001e0f0       ?pow@@YAMMM@Z              000000018001f0f0 f i dolphin.obj
 0001:0001e120       ?volume_v2_add@@YA?AUvolume_v2@@U1@0@Z 000000018001f120 f i dolphin.obj
 0001:0001e1b0       ?volume_v2_init@@YA?AUvolume_v2@@MM@Z 000000018001f1b0 f i dolphin.obj
 0001:0001e210       ?volume_v2_mulf@@YA?AUvolume_v2@@U1@M@Z 000000018001f210 f i dolphin.obj
 0001:0001e270       ldexpf                     000000018001f270 f i dolphin.obj
 0001:0001e2a0       feof                       000000018001f2a0 f   LIBCMTD:feoferr.obj
 0001:0001e360       _fread_nolock_s            000000018001f360 f   LIBCMTD:fread.obj
 0001:0001ecb0       fread                      000000018001fcb0 f   LIBCMTD:fread.obj
 0001:0001ed00       fread_s                    000000018001fd00 f   LIBCMTD:fread.obj
 0001:0001ee50       _fseek_nolock              000000018001fe50 f   LIBCMTD:fseek.obj
 0001:0001ef70       fseek                      000000018001ff70 f   LIBCMTD:fseek.obj
 0001:0001f120       ldexp                      0000000180020120 f   LIBCMTD:ldexp.obj
 0001:0001f420       roundf                     0000000180020420 f   LIBCMTD:roundf.obj
 0001:0001f4b0       free                       00000001800204b0 f   LIBCMTD:dbgfree.obj
 0001:0001f4d0       malloc                     00000001800204d0 f   LIBCMTD:dbgmalloc.obj
 0001:0001f510       realloc                    0000000180020510 f   LIBCMTD:dbgrealloc.obj
 0001:0001f550       ??0_LocaleUpdate@@QEAA@PEAUlocaleinfo_struct@@@Z 0000000180020550 f i LIBCMTD:strtol.obj
 0001:0001f690       ??1_LocaleUpdate@@QEAA@XZ  0000000180020690 f i LIBCMTD:strtol.obj
 0001:0001f6d0       ?GetLocaleT@_LocaleUpdate@@QEAAPEAUlocaleinfo_struct@@XZ 00000001800206d0 f i LIBCMTD:strtol.obj
 0001:0001fdd0       strtol                     0000000180020dd0 f   LIBCMTD:strtol.obj
 0001:0001fe50       strncmp                    0000000180020e50 f   LIBCMTD:strncmp.obj
 0001:0001fed0       _invoke_watson_if_error    0000000180020ed0 f i LIBCMTD:wassert.obj
 0001:0001ff20       _wassert                   0000000180020f20 f   LIBCMTD:wassert.obj
 0001:00020e00       __GSHandlerCheck           0000000180021e00 f   LIBCMTD:gshandler.obj
 0001:00020e40       __GSHandlerCheckCommon     0000000180021e40 f   LIBCMTD:gshandler.obj
 0001:00020f50       __chkstk                   0000000180021f50 f   LIBCMTD:chkstk.obj
 0001:00020f50       _alloca_probe              0000000180021f50 f   LIBCMTD:chkstk.obj
 0001:00020fb0       __security_check_cookie    0000000180021fb0 f   LIBCMTD:amdsecgs.obj
 0001:00020fd0       cosf                       0000000180021fd0 f   LIBCMTD:cosf.obj
 0001:000214d0       floorf                     00000001800224d0 f   LIBCMTD:floorf.obj
 0001:00021680       powf                       0000000180022680 f   LIBCMTD:powf.obj
 0001:00022210       sinf                       0000000180023210 f   LIBCMTD:sinf.obj
 0001:000228e0       sqrtf                      00000001800238e0 f   LIBCMTD:sqrtf.obj
 0001:00022a60       _fpmath                    0000000180023a60 f   LIBCMTD:fpinit.obj
 0001:00022a80       _cfltcvt_init              0000000180023a80 f   LIBCMTD:fpinit.obj
 0001:00022b90       _CRT_INIT                  0000000180023b90 f   LIBCMTD:dllcrt0.obj
 0001:00022db0       _DllMainCRTStartup         0000000180023db0 f   LIBCMTD:dllcrt0.obj
 0001:00022f50       __DllXcptFilter            0000000180023f50 f   LIBCMTD:dllcrt0.obj
 0001:00022fa0       _call_reportfault          0000000180023fa0 f   LIBCMTD:invarg.obj
 0001:000230d0       _initp_misc_invarg         00000001800240d0 f   LIBCMTD:invarg.obj
 0001:000230f0       _invalid_parameter         00000001800240f0 f   LIBCMTD:invarg.obj
 0001:00023180       _invoke_watson             0000000180024180 f   LIBCMTD:invarg.obj
 0001:000231e0       _CrtDbgReportW             00000001800241e0 f   LIBCMTD:dbgrptw.obj
 0001:00023260       _CrtDbgReportWV            0000000180024260 f i LIBCMTD:dbgrptw.obj
 0001:000232c0       __crtMessageWindowW        00000001800242c0 f   LIBCMTD:dbgrptw.obj
 0001:00023940       _invoke_watson_if_oneof    0000000180024940 f i LIBCMTD:dbgrptw.obj
 0001:000239b0       __doserrno                 00000001800249b0 f   LIBCMTD:dosmap.obj
 0001:000239e0       _dosmaperr                 00000001800249e0 f   LIBCMTD:dosmap.obj
 0001:00023a10       _errno                     0000000180024a10 f   LIBCMTD:dosmap.obj
 0001:00023a40       _get_errno_from_oserr      0000000180024a40 f   LIBCMTD:dosmap.obj
 0001:00023ad0       _filbuf                    0000000180024ad0 f   LIBCMTD:_filbuf.obj
 0001:00023df0       _fileno                    0000000180024df0 f   LIBCMTD:fileno.obj
 0001:00023eb0       __initstdio                0000000180024eb0 f   LIBCMTD:_file.obj
 0001:00023fb0       __endstdio                 0000000180024fb0 f   LIBCMTD:_file.obj
 0001:00023ff0       __iob_func                 0000000180024ff0 f   LIBCMTD:_file.obj
 0001:00024000       _lock_file                 0000000180025000 f   LIBCMTD:_file.obj
 0001:00024090       _lock_file2                0000000180025090 f   LIBCMTD:_file.obj
 0001:000240e0       _unlock_file               00000001800250e0 f   LIBCMTD:_file.obj
 0001:00024170       _unlock_file2              0000000180025170 f   LIBCMTD:_file.obj
 0001:000241c0       memcpy_s                   00000001800251c0 f   LIBCMTD:memcpy_s.obj
 0001:00024440       memset                     0000000180025440 f   LIBCMTD:memset.obj
 0001:00024670       _read                      0000000180025670 f   LIBCMTD:read.obj
 0001:000249d0       _read_nolock               00000001800259d0 f   LIBCMTD:read.obj
 0001:00026530       __C_specific_handler       0000000180027530 f   LIBCMTD:chandler.obj
 0001:00026950       _ftell_nolock              0000000180027950 f   LIBCMTD:ftell.obj
 0001:00027010       _lseek                     0000000180028010 f   LIBCMTD:lseek.obj
 0001:000272b0       _lseek_nolock              00000001800282b0 f   LIBCMTD:lseek.obj
 0001:00027440       _fflush_nolock             0000000180028440 f   LIBCMTD:fflush.obj
 0001:000274c0       _flush                     00000001800284c0 f   LIBCMTD:fflush.obj
 0001:000275b0       _flushall                  00000001800285b0 f   LIBCMTD:fflush.obj
 0001:000275d0       fflush                     00000001800285d0 f   LIBCMTD:fflush.obj
 0001:00027790       _copysign                  0000000180028790 f   LIBCMTD:_copysign.obj
 0001:00027820       _decomp                    0000000180028820 f   LIBCMTD:util.obj
 0001:00027970       _set_exp                   0000000180028970 f   LIBCMTD:util.obj
 0001:000279c0       _sptype                    00000001800289c0 f   LIBCMTD:util.obj
 0001:00027a40       _errcode                   0000000180028a40 f   LIBCMTD:fpexcept.obj
 0001:00027ac0       _except2                   0000000180028ac0 f   LIBCMTD:fpexcept.obj
 0001:00027c80       _handle_exc                0000000180028c80 f   LIBCMTD:fpexcept.obj
 0001:000280e0       _handle_qnan2              00000001800290e0 f   LIBCMTD:fpexcept.obj
 0001:00028170       _raise_exc                 0000000180029170 f   LIBCMTD:fpexcept.obj
 0001:000281d0       _raise_exc_ex              00000001800291d0 f   LIBCMTD:fpexcept.obj
 0001:00028850       _raise_excf                0000000180029850 f   LIBCMTD:fpexcept.obj
 0001:000288b0       _set_errno_from_matherr    00000001800298b0 f   LIBCMTD:fpexcept.obj
 0001:00028900       _umatherr                  0000000180029900 f   LIBCMTD:fpexcept.obj
 0001:000289d0       _clrfp                     00000001800299d0 f   LIBCMTD:fpctrl.obj
 0001:00028a00       _ctrlfp                    0000000180029a00 f   LIBCMTD:fpctrl.obj
 0001:00028ab0       _set_statfp                0000000180029ab0 f   LIBCMTD:fpctrl.obj
 0001:00028af0       _statfp                    0000000180029af0 f   LIBCMTD:fpctrl.obj
 0001:00028b20       _fd_int                    0000000180029b20 f   LIBCMTD:_test.obj
 0001:00029280       _CrtCheckMemory            000000018002a280 f   LIBCMTD:dbgheap.obj
 0001:00029820       _CrtDumpMemoryLeaks        000000018002a820 f   LIBCMTD:dbgheap.obj
 0001:000298e0       _CrtGetCheckCount          000000018002a8e0 f   LIBCMTD:dbgheap.obj
 0001:000298f0       _CrtIsValidHeapPointer     000000018002a8f0 f   LIBCMTD:dbgheap.obj
 0001:00029950       _CrtIsValidPointer         000000018002a950 f   LIBCMTD:dbgheap.obj
 0001:00029990       _CrtMemCheckpoint          000000018002a990 f   LIBCMTD:dbgheap.obj
 0001:00029c20       _CrtMemDumpAllObjectsSince 000000018002ac20 f   LIBCMTD:dbgheap.obj
 0001:00029c70       _CrtSetCheckCount          000000018002ac70 f   LIBCMTD:dbgheap.obj
 0001:00029c90       _CrtSetDbgFlag             000000018002ac90 f   LIBCMTD:dbgheap.obj
 0001:00029dd0       _CrtSetDumpClient          000000018002add0 f   LIBCMTD:dbgheap.obj
 0001:00029e00       _calloc_dbg                000000018002ae00 f   LIBCMTD:dbgheap.obj
 0001:00029e80       _calloc_dbg_impl           000000018002ae80 f   LIBCMTD:dbgheap.obj
 0001:00029f30       _free_dbg                  000000018002af30 f   LIBCMTD:dbgheap.obj
 0001:00029f70       _free_dbg_nolock           000000018002af70 f   LIBCMTD:dbgheap.obj
 0001:0002ab00       _malloc_dbg                000000018002bb00 f   LIBCMTD:dbgheap.obj
 0001:0002ab50       _msize_dbg                 000000018002bb50 f   LIBCMTD:dbgheap.obj
 0001:0002ada0       _nh_malloc_dbg             000000018002bda0 f   LIBCMTD:dbgheap.obj
 0001:0002b130       _realloc_dbg               000000018002c130 f   LIBCMTD:dbgheap.obj
 0001:0002baa0       __addlocaleref             000000018002caa0 f   LIBCMTD:localref.obj
 0001:0002bbf0       __freetlocinfo             000000018002cbf0 f   LIBCMTD:localref.obj
 0001:0002bfa0       __removelocaleref          000000018002cfa0 f   LIBCMTD:localref.obj
 0001:0002c100       __updatetlocinfo           000000018002d100 f   LIBCMTD:localref.obj
 0001:0002c1a0       _updatetlocinfoEx_nolock   000000018002d1a0 f   LIBCMTD:localref.obj
 0001:0002c240       __initmbctable             000000018002d240 f   LIBCMTD:mbctype.obj
 0001:0002c8d0       __updatetmbcinfo           000000018002d8d0 f   LIBCMTD:mbctype.obj
 0001:0002c9e0       _setmbcp                   000000018002d9e0 f   LIBCMTD:mbctype.obj
 0001:0002ccd0       _setmbcp_nolock            000000018002dcd0 f   LIBCMTD:mbctype.obj
 0001:0002d120       _chvalidator               000000018002e120 f   LIBCMTD:isctype.obj
 0001:0002d190       _chvalidator_l             000000018002e190 f   LIBCMTD:isctype.obj
 0001:0002d2a0       _isctype_l                 000000018002e2a0 f   LIBCMTD:isctype.obj
 0001:0002d480       _freefls                   000000018002e480 f   LIBCMTD:tidtable.obj
 0001:0002d690       _freeptd                   000000018002e690 f   LIBCMTD:tidtable.obj
 0001:0002d6e0       _getptd                    000000018002e6e0 f   LIBCMTD:tidtable.obj
 0001:0002d710       _getptd_noexit             000000018002e710 f   LIBCMTD:tidtable.obj
 0001:0002d7e0       _initptd                   000000018002e7e0 f   LIBCMTD:tidtable.obj
 0001:0002d910       _mtinit                    000000018002e910 f   LIBCMTD:tidtable.obj
 0001:0002d9d0       _mtterm                    000000018002e9d0 f   LIBCMTD:tidtable.obj
 0001:0002da90       ?_GetEstablisherFrame@@YAPEA_KPEA_KPEAU_xDISPATCHER_CONTEXT@@PEBU_s_FuncInfo@@0@Z 000000018002ea90 f   LIBCMTD:trnsctrl.obj
 0001:0002dc00       ?_GetRangeOfTrysToCheck@@YAPEBU_s_TryBlockMapEntry@@PEA_KPEBU_s_FuncInfo@@HHPEAI2PEAU_xDISPATCHER_CONTEXT@@@Z 000000018002ec00 f   LIBCMTD:trnsctrl.obj
 0001:0002de20       ?__FrameUnwindToEmptyState@@YAXPEA_KPEAU_xDISPATCHER_CONTEXT@@PEBU_s_FuncInfo@@@Z 000000018002ee20 f   LIBCMTD:trnsctrl.obj
 0001:0002dec0       ?__SehTransFilter@@YAHPEAU_EXCEPTION_POINTERS@@PEAUEHExceptionRecord@@PEA_KPEAU_CONTEXT@@PEAU_xDISPATCHER_CONTEXT@@PEBU_s_FuncInfo@@PEAH@Z 000000018002eec0 f   LIBCMTD:trnsctrl.obj
 0001:0002df80       _CallSETranslator          000000018002ef80 f   LIBCMTD:trnsctrl.obj
 0001:0002e000       _CreateFrameInfo           000000018002f000 f   LIBCMTD:trnsctrl.obj
 0001:0002e080       _FindAndUnlinkFrame        000000018002f080 f   LIBCMTD:trnsctrl.obj
 0001:0002e110       _GetImageBase              000000018002f110 f   LIBCMTD:trnsctrl.obj
 0001:0002e130       _GetThrowImageBase         000000018002f130 f   LIBCMTD:trnsctrl.obj
 0001:0002e150       _IsExceptionObjectToBeDestroyed 000000018002f150 f   LIBCMTD:trnsctrl.obj
 0001:0002e1b0       _SetImageBase              000000018002f1b0 f   LIBCMTD:trnsctrl.obj
 0001:0002e1d0       _SetThrowImageBase         000000018002f1d0 f   LIBCMTD:trnsctrl.obj
 0001:0002e1f0       _UnwindNestedFrames        000000018002f1f0 f   LIBCMTD:trnsctrl.obj
 0001:0002e360       __CxxFrameHandler3         000000018002f360 f   LIBCMTD:trnsctrl.obj
 0001:0002e420       _locterm                   000000018002f420 f   LIBCMTD:wsetloca.obj
 0001:0002e470       __raise_securityfailure    000000018002f470 f   LIBCMTD:gs_report.obj
 0001:0002e4c0       __report_gsfailure         000000018002f4c0 f   LIBCMTD:gs_report.obj
 0001:0002e5a0       __report_rangecheckfailure 000000018002f5a0 f   LIBCMTD:gs_report.obj
 0001:0002e5c0       __report_securityfailure   000000018002f5c0 f   LIBCMTD:gs_report.obj
 0001:0002e660       wcscat_s                   000000018002f660 f   LIBCMTD:wcscat_s.obj
 0001:0002ec90       wcscpy_s                   000000018002fc90 f   LIBCMTD:wcscpy_s.obj
 0001:0002f140       wcslen                     0000000180030140 f   LIBCMTD:wcslen.obj
 0001:0002f190       wcsncat_s                  0000000180030190 f   LIBCMTD:wcsncat_s.obj
 0001:0002f920       __crtCorExitProcess        0000000180030920 f   LIBCMTD:crt0dat.obj
 0001:0002f970       __crtExitProcess           0000000180030970 f   LIBCMTD:crt0dat.obj
 0001:0002f990       __freeCrtMemory            0000000180030990 f   LIBCMTD:crt0dat.obj
 0001:0002fbc0       _amsg_exit                 0000000180030bc0 f   LIBCMTD:crt0dat.obj
 0001:0002fbf0       _cexit                     0000000180030bf0 f   LIBCMTD:crt0dat.obj
 0001:0002fc10       _cinit                     0000000180030c10 f   LIBCMTD:crt0dat.obj
 0001:0002fcc0       _exit                      0000000180030cc0 f   LIBCMTD:crt0dat.obj
 0001:0002fce0       _init_pointers             0000000180030ce0 f   LIBCMTD:crt0dat.obj
 0001:0002fd90       _initterm_e                0000000180030d90 f   LIBCMTD:crt0dat.obj
 0001:0002fdf0       _lockexit                  0000000180030df0 f   LIBCMTD:crt0dat.obj
 0001:0002fe10       _unlockexit                0000000180030e10 f   LIBCMTD:crt0dat.obj
 0001:00030040       abort                      0000000180031040 f   LIBCMTD:abort.obj
 0001:000300d0       _set_error_mode            00000001800310d0 f   LIBCMTD:errmode.obj
 0001:000301e0       _itow_s                    00000001800311e0 f   LIBCMTD:xtows.obj
 0001:00030830       setvbuf                    0000000180031830 f   LIBCMTD:setvbuf.obj
 0001:00030be0       fwprintf                   0000000180031be0 f   LIBCMTD:fwprintf.obj
 0001:00030dc0       _vsnwprintf_s              0000000180031dc0 f   LIBCMTD:vswprnc.obj
 0001:00030e10       _vsnwprintf_s_l            0000000180031e10 f   LIBCMTD:vswprnc.obj
 0001:000313c0       _vswprintf_c_l             00000001800323c0 f   LIBCMTD:vswprnc.obj
 0001:00031430       _vswprintf_helper          0000000180032430 f   LIBCMTD:vswprnc.obj
 0001:00031780       __get_sigabrt              0000000180032780 f   LIBCMTD:winsig.obj
 0001:000317a0       _initp_misc_winsig         00000001800327a0 f   LIBCMTD:winsig.obj
 0001:000317e0       raise                      00000001800327e0 f   LIBCMTD:winsig.obj
 0001:00031c50       __crtMessageBoxW           0000000180032c50 f   LIBCMTD:crtmboxw.obj
 0001:000320c0       __crtMessageBoxWaitThreadW 00000001800330c0 f   LIBCMTD:crtmboxw.obj
 0001:00032110       _FF_MSGBANNER              0000000180033110 f   LIBCMTD:crt0msg.obj
 0001:00032160       _GET_RTERRMSG              0000000180033160 f   LIBCMTD:crt0msg.obj
 0001:000321c0       _NMSG_WRITE                00000001800331c0 f   LIBCMTD:crt0msg.obj
 0001:000325f0       __remainder_piby2d2f_forAsm 00000001800335f0 f   LIBCMTD:remainder_piby2f_forAsm.obj
 0001:00032740       __remainder_piby2_fma3     0000000180033740 f   LIBCMTD:remainder_piby2_forFMA3.obj
 0001:00032930       __remainder_piby2_fma3_bdl 0000000180033930 f   LIBCMTD:remainder_piby2_forFMA3.obj
 0001:000329b0       _cosf_special              00000001800339b0 f   LIBCMTD:sincos_special.obj
 0001:000329e0       _sincosf_special           00000001800339e0 f   LIBCMTD:sincos_special.obj
 0001:00032be0       _sinf_special              0000000180033be0 f   LIBCMTD:sincos_special.obj
 0001:00032c10       __fma3_lib_init            0000000180033c10 f   LIBCMTD:fma3_available.obj
 0001:00032e60       _handle_errorf             0000000180033e60 f   LIBCMTD:libm_error.obj
 0001:00032fe0       _powf_special              0000000180033fe0 f   LIBCMTD:pow_special.obj
 0001:000332e0       __remainder_piby2d2f_forC  00000001800342e0 f   LIBCMTD:remainder_piby2f_forC.obj
 0001:00033470       ?strrchr@@YAPEADPEADH@Z    0000000180034470 f i LIBCMTD:cvt.obj
 0001:00033490       _cfltcvt                   0000000180034490 f   LIBCMTD:cvt.obj
 0001:000334e0       _cfltcvt_l                 00000001800344e0 f   LIBCMTD:cvt.obj
 0001:00033600       _cftoa_l                   0000000180034600 f   LIBCMTD:cvt.obj
 0001:00034100       _cftoe                     0000000180035100 f   LIBCMTD:cvt.obj
 0001:00034720       _cftoe_l                   0000000180035720 f   LIBCMTD:cvt.obj
 0001:00034e20       _cftof_l                   0000000180035e20 f   LIBCMTD:cvt.obj
 0001:00035100       _cftog_l                   0000000180036100 f   LIBCMTD:cvt.obj
 0001:000354c0       _cropzeros                 00000001800364c0 f   LIBCMTD:cvt.obj
 0001:000354e0       _cropzeros_l               00000001800364e0 f   LIBCMTD:cvt.obj
 0001:00035660       _fassign                   0000000180036660 f   LIBCMTD:cvt.obj
 0001:00035690       _fassign_l                 0000000180036690 f   LIBCMTD:cvt.obj
 0001:00035700       _forcdecpt                 0000000180036700 f   LIBCMTD:cvt.obj
 0001:00035720       _forcdecpt_l               0000000180036720 f   LIBCMTD:cvt.obj
 0001:00035820       _positive                  0000000180036820 f   LIBCMTD:cvt.obj
 0001:000358b0       _initp_misc_cfltcvt_tab    00000001800368b0 f   LIBCMTD:cmiscdat.obj
 0001:00035900       _XcptFilter                0000000180036900 f   LIBCMTD:winxfltr.obj
 0001:00035ba0       __CppXcptFilter            0000000180036ba0 f   LIBCMTD:winxfltr.obj
 0001:00035c60       _heap_init                 0000000180036c60 f   LIBCMTD:heapinit.obj
 0001:00035c90       _heap_term                 0000000180036c90 f   LIBCMTD:heapinit.obj
 0001:00035ca0       _ioinit                    0000000180036ca0 f   LIBCMTD:ioinit.obj
 0001:00036280       _ioterm                    0000000180037280 f   LIBCMTD:ioinit.obj
 0001:00036360       _set_pgmptr                0000000180037360 f i LIBCMTD:stdargv.obj
 0001:00036380       _setargv                   0000000180037380 f   LIBCMTD:stdargv.obj
 0001:000369e0       _setenvp                   00000001800379e0 f   LIBCMTD:stdenvp.obj
 0001:00036bf0       __security_init_cookie     0000000180037bf0 f   LIBCMTD:gs_support.obj
 0001:00036d10       DllMain                    0000000180037d10 f   LIBCMTD:dllmain.obj
 0001:00036d30       __crtGetEnvironmentStringsA 0000000180037d30 f   LIBCMTD:a_env.obj
 0001:00036f10       __crtCaptureCurrentContext 0000000180037f10 f   LIBCMTD:winapisupp.obj
 0001:00036fb0       __crtCapturePreviousContext 0000000180037fb0 f   LIBCMTD:winapisupp.obj
 0001:00037070       __crtFlsAlloc              0000000180038070 f   LIBCMTD:winapisupp.obj
 0001:000370c0       __crtFlsFree               00000001800380c0 f   LIBCMTD:winapisupp.obj
 0001:00037110       __crtFlsGetValue           0000000180038110 f   LIBCMTD:winapisupp.obj
 0001:00037160       __crtFlsSetValue           0000000180038160 f   LIBCMTD:winapisupp.obj
 0001:000371c0       __crtInitializeCriticalSectionEx 00000001800381c0 f   LIBCMTD:winapisupp.obj
 0001:00037230       __crtIsPackagedApp         0000000180038230 f   LIBCMTD:winapisupp.obj
 0001:00037270       __crtLoadWinApiPointers    0000000180038270 f   LIBCMTD:winapisupp.obj
 0001:00037860       __crtTerminateProcess      0000000180038860 f   LIBCMTD:winapisupp.obj
 0001:00037880       __crtUnhandledException    0000000180038880 f   LIBCMTD:winapisupp.obj
 0001:000378b0       _RTC_Initialize            00000001800388b0 f   LIBCMTD:initsect.obj
 0001:000378f0       _RTC_Terminate             00000001800388f0 f   LIBCMTD:initsect.obj
 0001:00037930       _CrtDefaultAllocHook       0000000180038930 f   LIBCMTD:dbghook.obj
 0001:00037950       __crt_debugger_hook        0000000180038950 f   LIBCMTD:dbghook.obj
 0001:00037960       _lock                      0000000180038960 f   LIBCMTD:mlock.obj
 0001:000379c0       _mtdeletelocks             00000001800389c0 f   LIBCMTD:mlock.obj
 0001:00037ae0       _mtinitlocknum             0000000180038ae0 f   LIBCMTD:mlock.obj
 0001:00037be0       _mtinitlocks               0000000180038be0 f   LIBCMTD:mlock.obj
 0001:00037c80       _unlock                    0000000180038c80 f   LIBCMTD:mlock.obj
 0001:00037cb0       _snwprintf_s               0000000180038cb0 f   LIBCMTD:swprintf.obj
 0001:00037d10       _CrtDbgBreak               0000000180038d10 f   LIBCMTD:dbgrptt.obj
 0001:00037d20       _VCrtDbgReportA            0000000180038d20 f   LIBCMTD:dbgrptt.obj
 0001:000386f0       _VCrtDbgReportW            00000001800396f0 f   LIBCMTD:dbgrptt.obj
 0001:00039230       _getbuf                    000000018003a230 f   LIBCMTD:_getbuf.obj
 0001:00039340       _fcloseall                 000000018003a340 f   LIBCMTD:closeall.obj
 0001:00039450       memcpy                     000000018003a450 f   LIBCMTD:memcpy.obj
 0001:00039450       memmove                    000000018003a450 f   LIBCMTD:memcpy.obj
 0001:000399c0       __isa_available_init       000000018003a9c0 f   LIBCMTD:cpu_disp.obj
 0001:00039d00       _isatty                    000000018003ad00 f   LIBCMTD:isatty.obj
 0001:00039e10       __lock_fhandle             000000018003ae10 f   LIBCMTD:osfinfo.obj
 0001:00039ee0       _free_osfhnd               000000018003aee0 f   LIBCMTD:osfinfo.obj
 0001:0003a010       _get_osfhandle             000000018003b010 f   LIBCMTD:osfinfo.obj
 0001:0003a210       _unlock_fhandle            000000018003b210 f   LIBCMTD:osfinfo.obj
 0001:0003a250       _lseeki64                  000000018003b250 f   LIBCMTD:lseeki64.obj
 0001:0003a500       _lseeki64_nolock           000000018003b500 f   LIBCMTD:lseeki64.obj
 0001:0003a630       _local_unwind              000000018003b630 f   LIBCMTD:jmpuwind.obj
 0001:0003a660       _NLG_Notify                000000018003b660 f   LIBCMTD:jmpuwind.obj
 0001:0003a680       __NLG_Dispatch2            000000018003b680 f   LIBCMTD:jmpuwind.obj
 0001:0003a690       __NLG_Return2              000000018003b690 f   LIBCMTD:jmpuwind.obj
 0001:0003a6a0       _FindPESection             000000018003b6a0 f   LIBCMTD:pesect.obj
 0001:0003a750       _IsNonwritableInCurrentImage 000000018003b750 f   LIBCMTD:pesect.obj
 0001:0003a7e0       _ValidateImageBase         000000018003b7e0 f   LIBCMTD:pesect.obj
 0001:0003a860       _commit                    000000018003b860 f   LIBCMTD:commit.obj
 0001:0003aaf0       _write                     000000018003baf0 f   LIBCMTD:write.obj
 0001:0003ad90       _write_nolock              000000018003bd90 f   LIBCMTD:write.obj
 0001:0003bed0       _matherr                   000000018003ced0 f   LIBCMTD:matherr.obj
 0001:0003bef0       _get_fpsr                  000000018003cef0 f   LIBCMTD:fpsr.obj
 0001:0003bf00       _set_fpsr                  000000018003cf00 f   LIBCMTD:fpsr.obj
 0001:0003bf0a       _fclrf                     000000018003cf0a f   LIBCMTD:fpsr.obj
 0001:0003bf1e       _frnd                      000000018003cf1e f   LIBCMTD:fpsr.obj
 0001:0003bf40       _free_base                 000000018003cf40 f   LIBCMTD:free.obj
 0001:0003bfa0       _realloc_base              000000018003cfa0 f   LIBCMTD:realloc.obj
 0001:0003c0c0       _expand_base               000000018003d0c0 f   LIBCMTD:expand.obj
 0001:0003c2a0       _CrtDbgReport              000000018003d2a0 f   LIBCMTD:dbgrpt.obj
 0001:0003c320       _CrtDbgReportV             000000018003d320 f i LIBCMTD:dbgrpt.obj
 0001:0003c380       __crtMessageWindowA        000000018003d380 f   LIBCMTD:dbgrpt.obj
 0001:0003ca00       _callnewh                  000000018003da00 f   LIBCMTD:handler.obj
 0001:0003ca40       _initp_heap_handler        000000018003da40 f   LIBCMTD:handler.obj
 0001:0003ca60       _heapchk                   000000018003da60 f   LIBCMTD:heapchk.obj
 0001:0003caa0       _snprintf_s                000000018003daa0 f   LIBCMTD:sprintf.obj
 0001:0003cb00       sprintf_s                  000000018003db00 f   LIBCMTD:sprintf.obj
 0001:0003cb50       _heap_alloc_base           000000018003db50 f i LIBCMTD:malloc.obj
 0001:0003cbc0       _malloc_base               000000018003dbc0 f   LIBCMTD:malloc.obj
 0001:0003cc60       __free_lconv_mon           000000018003dc60 f   LIBCMTD:initmon.obj
 0001:0003ce70       __free_lconv_num           000000018003de70 f   LIBCMTD:initnum.obj
 0001:0003cf50       __free_lc_time             000000018003df50 f   LIBCMTD:inittime.obj
 0001:0003de90       _MallocaIsSizeInRange      000000018003ee90 f i LIBCMTD:a_map.obj
 0001:0003ded0       _MarkAllocaS               000000018003eed0 f i LIBCMTD:a_map.obj
 0001:0003df00       __crtLCMapStringA          000000018003ef00 f   LIBCMTD:a_map.obj
 0001:0003dfb0       _freea                     000000018003efb0 f i LIBCMTD:a_map.obj
 0001:0003e200       __crtGetStringTypeA        000000018003f200 f   LIBCMTD:a_str.obj
 0001:0003e290       _isleadbyte_l              000000018003f290 f i LIBCMTD:_wctype.obj
 0001:0003e2f0       isleadbyte                 000000018003f2f0 f i LIBCMTD:_wctype.obj
 0001:0003e310       __DestructExceptionObject  000000018003f310 f   LIBCMTD:frame.obj
 0001:0003e400       ??0bad_exception@std@@QEAA@AEBV01@@Z 000000018003f400 f i LIBCMTD:frame.obj
 0001:0003e440       ??0bad_exception@std@@QEAA@PEBD@Z 000000018003f440 f i LIBCMTD:frame.obj
 0001:0003e480       ??1bad_exception@std@@UEAA@XZ 000000018003f480 f i LIBCMTD:frame.obj
 0001:0003e4b0       ??_Gbad_exception@std@@UEAAPEAXI@Z 000000018003f4b0 f i LIBCMTD:frame.obj
 0001:0003e4b0       ??_Ebad_exception@std@@UEAAPEAXI@Z 000000018003f4b0 f i LIBCMTD:frame.obj
 0001:0003f480       __AdjustPointer            0000000180040480 f   LIBCMTD:frame.obj
 0001:0003f500       __BuildCatchObject         0000000180040500 f   LIBCMTD:frame.obj
 0001:0003f640       __BuildCatchObjectHelper   0000000180040640 f   LIBCMTD:frame.obj
 0001:0003fa70       __CxxCallCatchBlock        0000000180040a70 f   LIBCMTD:frame.obj
 0001:0003fce0       __FrameUnwindFilter        0000000180040ce0 f   LIBCMTD:frame.obj
 0001:0003fd70       __FrameUnwindToState       0000000180040d70 f   LIBCMTD:frame.obj
 0001:0003ffd0       __InternalCxxFrameHandler  0000000180040fd0 f   LIBCMTD:frame.obj
 0001:000403f0       __TypeMatch                00000001800413f0 f   LIBCMTD:frame.obj
 0001:000405e0       ?__GetCurrentState@@YAHPEA_KPEAU_xDISPATCHER_CONTEXT@@PEBU_s_FuncInfo@@@Z 00000001800415e0 f   LIBCMTD:ehstate.obj
 0001:00040640       ?__GetUnwindTryBlock@@YAHPEA_KPEAU_xDISPATCHER_CONTEXT@@PEBU_s_FuncInfo@@@Z 0000000180041640 f   LIBCMTD:ehstate.obj
 0001:00040690       ?__SetState@@YAXPEA_KPEAU_xDISPATCHER_CONTEXT@@PEBU_s_FuncInfo@@H@Z 0000000180041690 f   LIBCMTD:ehstate.obj
 0001:000406c0       ?__SetUnwindTryBlock@@YAXPEA_KPEAU_xDISPATCHER_CONTEXT@@PEBU_s_FuncInfo@@H@Z 00000001800416c0 f   LIBCMTD:ehstate.obj
 0001:00040730       ?__StateFromControlPc@@YAHPEBU_s_FuncInfo@@PEAU_xDISPATCHER_CONTEXT@@@Z 0000000180041730 f   LIBCMTD:ehstate.obj
 0001:00040760       ?__StateFromIp@@YAHPEBU_s_FuncInfo@@PEAU_xDISPATCHER_CONTEXT@@_J@Z 0000000180041760 f   LIBCMTD:ehstate.obj
 0001:00040840       ?_inconsistency@@YAXXZ     0000000180041840 f   LIBCMTD:hooks.obj
 0001:00040870       ?terminate@@YAXXZ          0000000180041870 f   LIBCMTD:hooks.obj
 0001:000408a0       _initp_eh_hooks            00000001800418a0 f   LIBCMTD:hooks.obj
 0001:000408e0       memcmp                     00000001800418e0 f   LIBCMTD:memcmp.obj
 0001:000409b0       wcsncpy_s                  00000001800419b0 f   LIBCMTD:wcsncpy_s.obj
 0001:00041050       GetTableIndexFromLocaleName 0000000180042050 f   LIBCMTD:winapinls.obj
 0001:00041100       __crtDownlevelLocaleNameToLCID 0000000180042100 f   LIBCMTD:winapinls.obj
 0001:00041160       __crtLCMapStringEx         0000000180042160 f   LIBCMTD:winapinls.obj
 0001:00041240       __wcsnicmp_ascii           0000000180042240 f   LIBCMTD:winapinls.obj
 0001:00041350       __onexitinit               0000000180042350 f   LIBCMTD:onexit.obj
 0001:000413c0       _onexit                    00000001800423c0 f   LIBCMTD:onexit.obj
 0001:000415d0       atexit                     00000001800425d0 f   LIBCMTD:onexit.obj
 0001:00041610       _initp_misc_purevirt       0000000180042610 f   LIBCMTD:inithelp.obj
 0001:00041630       _initp_misc_rand_s         0000000180042630 f   LIBCMTD:rand_s.obj
 0001:00041650       _ftbuf                     0000000180042650 f   LIBCMTD:_sftbuf.obj
 0001:00041710       _stbuf                     0000000180042710 f   LIBCMTD:_sftbuf.obj
 0001:000418f0       _freebuf                   00000001800428f0 f   LIBCMTD:_freebuf.obj
 0001:000419b0       _woutput_l                 00000001800429b0 f   LIBCMTD:woutput.obj
 0001:00042f20       get_int64_arg              0000000180043f20 f i LIBCMTD:woutput.obj
 0001:00042f90       get_int_arg                0000000180043f90 f i LIBCMTD:woutput.obj
 0001:000431c0       _flsbuf                    00000001800441c0 f   LIBCMTD:_flsbuf.obj
 0001:00043560       _woutput_s_l               0000000180044560 f   LIBCMTD:woutputs.obj
 0001:00044c90       strlen                     0000000180045c90 f   LIBCMTD:strlen.obj
 0001:00044d40       _isdigit_l                 0000000180045d40 f i LIBCMTD:_ctype.obj
 0001:00044de0       isdigit                    0000000180045de0 f i LIBCMTD:_ctype.obj
 0001:00044e20       _tolower_l                 0000000180045e20 f   LIBCMTD:tolower.obj
 0001:00045180       tolower                    0000000180046180 f   LIBCMTD:tolower.obj
 0001:000451d0       strcpy_s                   00000001800461d0 f   LIBCMTD:strcpy_s.obj
 0001:00045670       strrchr                    0000000180046670 f   LIBCMTD:strrchr.obj
 0001:00045a90       _fptostr                   0000000180046a90 f   LIBCMTD:_fptostr.obj
 0001:00045ef0       __crt_atoflt_l             0000000180046ef0 f   LIBCMTD:atodbl.obj
 0001:00046090       _atodbl_l                  0000000180047090 f   LIBCMTD:atodbl.obj
 0001:00046210       _atoflt_l                  0000000180047210 f   LIBCMTD:atodbl.obj
 0001:00046240       __dtold                    0000000180047240 f   LIBCMTD:cfout.obj
 0001:000463f0       _fltout2                   00000001800473f0 f   LIBCMTD:cfout.obj
 0001:00046500       _fptrap                    0000000180047500 f   LIBCMTD:crt0fp.obj
 0001:000465f0       _ismbblead                 00000001800475f0 f   LIBCMTD:ismbbyte.obj
 0001:00046620       strcat_s                   0000000180047620 f   LIBCMTD:strcat_s.obj
 0001:00046c30       _itoa_s                    0000000180047c30 f   LIBCMTD:xtoas.obj
 0001:00047260       _mbstowcs_l_helper         0000000180048260 f   LIBCMTD:mbstowcs.obj
 0001:000477d0       _mbstowcs_s_l              00000001800487d0 f   LIBCMTD:mbstowcs.obj
 0001:00047d60       mbstowcs_s                 0000000180048d60 f   LIBCMTD:mbstowcs.obj
 0001:00047e40       _wcstombs_l_helper         0000000180048e40 f   LIBCMTD:wcstombs.obj
 0001:00048650       _wcstombs_s_l              0000000180049650 f   LIBCMTD:wcstombs.obj
 0001:00048b50       wcstombs_s                 0000000180049b50 f   LIBCMTD:wcstombs.obj
 0001:00048ba0       _vsnprintf_helper          0000000180049ba0 f   LIBCMTD:vsnprnc.obj
 0001:00048e80       _vsnprintf_s               0000000180049e80 f   LIBCMTD:vsnprnc.obj
 0001:00048ed0       _vsnprintf_s_l             0000000180049ed0 f   LIBCMTD:vsnprnc.obj
 0001:00049470       _vsprintf_s_l              000000018004a470 f   LIBCMTD:vsnprnc.obj
 0001:00049800       __GSHandlerCheck_SEH       000000018004a800 f   LIBCMTD:gshandlerseh.obj
 0001:000498c0       _fclose_nolock             000000018004a8c0 f   LIBCMTD:fclose.obj
 0001:00049a10       fclose                     000000018004aa10 f   LIBCMTD:fclose.obj
 0001:00049b10       _mbtowc_l                  000000018004ab10 f   LIBCMTD:mbtowc.obj
 0001:00049e50       mbtowc                     000000018004ae50 f   LIBCMTD:mbtowc.obj
 0001:00049e80       _putwch_nolock             000000018004ae80 f   LIBCMTD:putwch.obj
 0001:00049ef0       get_short_arg              000000018004aef0 f i LIBCMTD:output.obj
 0001:00049f60       ??3@YAXPEAX@Z              000000018004af60 f   LIBCMTD:dbgdel.obj
 0001:0004a040       strcmp                     000000018004b040 f   LIBCMTD:strcmp.obj
 0001:0004a0b0       ?_ValidateExecute@@YAHP6A_JXZ@Z 000000018004b0b0 f   LIBCMTD:validate.obj
 0001:0004a0e0       ?_ValidateWrite@@YAHPEAXI@Z 000000018004b0e0 f   LIBCMTD:validate.obj
 0001:0004a0e0       ?_ValidateRead@@YAHPEBXI@Z 000000018004b0e0 f   LIBCMTD:validate.obj
 0001:0004a120       _CallSettingFrame          000000018004b120 f   LIBCMTD:handlers.obj
 0001:0004a160       _GetNextInstrOffset        000000018004b160 f   LIBCMTD:handlers.obj
 0001:0004a170       ??1type_info@@UEAA@XZ      000000018004b170 f   LIBCMTD:typinfo.obj
 0001:0004a1a0       ??8type_info@@QEBA_NAEBV0@@Z 000000018004b1a0 f   LIBCMTD:typinfo.obj
 0001:0004a1f0       ??_Etype_info@@UEAAPEAXI@Z 000000018004b1f0 f i LIBCMTD:typinfo.obj
 0001:0004a1f0       ??_Gtype_info@@UEAAPEAXI@Z 000000018004b1f0 f i LIBCMTD:typinfo.obj
 0001:0004a230       ??0exception@std@@QEAA@AEBQEBD@Z 000000018004b230 f   LIBCMTD:stdexcpt.obj
 0001:0004a280       ??0exception@std@@QEAA@AEBV01@@Z 000000018004b280 f   LIBCMTD:stdexcpt.obj
 0001:0004a2d0       ??1exception@std@@UEAA@XZ  000000018004b2d0 f   LIBCMTD:stdexcpt.obj
 0001:0004a300       ??4exception@std@@QEAAAEAV01@AEBV01@@Z 000000018004b300 f   LIBCMTD:stdexcpt.obj
 0001:0004a370       ??_Eexception@std@@UEAAPEAXI@Z 000000018004b370 f i LIBCMTD:stdexcpt.obj
 0001:0004a370       ??_Gexception@std@@UEAAPEAXI@Z 000000018004b370 f i LIBCMTD:stdexcpt.obj
 0001:0004a3b0       ?_Copy_str@exception@std@@AEAAXPEBD@Z 000000018004b3b0 f   LIBCMTD:stdexcpt.obj
 0001:0004a420       ?_Tidy@exception@std@@AEAAXXZ 000000018004b420 f   LIBCMTD:stdexcpt.obj
 0001:0004a460       ?what@exception@std@@UEBAPEBDXZ 000000018004b460 f   LIBCMTD:stdexcpt.obj
 0001:0004a4a0       _CxxThrowException         000000018004b4a0 f   LIBCMTD:throw.obj
 0001:0004a5c0       _get_printf_count_output   000000018004b5c0 f   LIBCMTD:printf.obj
 0001:0004a5f0       _fputwc_nolock             000000018004b5f0 f   LIBCMTD:fputwc.obj
 0001:0004aa50       _output_s_l                000000018004ba50 f   LIBCMTD:outputs.obj
 0001:0004c630       _CopyMan                   000000018004d630 f i LIBCMTD:intrncvt.obj
 0001:0004c6a0       _FillZeroMan               000000018004d6a0 f i LIBCMTD:intrncvt.obj
 0001:0004c6e0       _IncMan                    000000018004d6e0 f i LIBCMTD:intrncvt.obj
 0001:0004c7c0       _IsZeroMan                 000000018004d7c0 f i LIBCMTD:intrncvt.obj
 0001:0004c800       _RoundMan                  000000018004d800 f i LIBCMTD:intrncvt.obj
 0001:0004c910       _ShrMan                    000000018004d910 f i LIBCMTD:intrncvt.obj
 0001:0004ca50       _ZeroTail                  000000018004da50 f i LIBCMTD:intrncvt.obj
 0001:0004cb00       __addl                     000000018004db00 f i LIBCMTD:intrncvt.obj
 0001:0004cb60       _ld12cvt                   000000018004db60 f i LIBCMTD:intrncvt.obj
 0001:0004ced0       _ld12tod                   000000018004ded0 f   LIBCMTD:intrncvt.obj
 0001:0004cf00       _ld12tof                   000000018004df00 f   LIBCMTD:intrncvt.obj
 0001:0004cf30       __ld12mul                  000000018004df30 f i LIBCMTD:strgtold.obj
 0001:0004d4a0       __multtenpow12             000000018004e4a0 f i LIBCMTD:strgtold.obj
 0001:0004d5d0       __shl_12                   000000018004e5d0 f i LIBCMTD:strgtold.obj
 0001:0004d670       __shr_12                   000000018004e670 f i LIBCMTD:strgtold.obj
 0001:0004d710       __strgtold12_l             000000018004e710 f   LIBCMTD:strgtold.obj
 0001:0004e4f0       $I10_OUTPUT                000000018004f4f0 f   LIBCMTD:x10fout.obj
 0001:0004edb0       __add_12                   000000018004fdb0 f i LIBCMTD:x10fout.obj
 0001:0004ee90       _close                     000000018004fe90 f   LIBCMTD:close.obj
 0001:0004f110       _close_nolock              0000000180050110 f   LIBCMTD:close.obj
 0001:0004f220       __termconout               0000000180050220 f   LIBCMTD:initcon.obj
 0001:0004f250       __initconout               0000000180050250 f   LIBCMTD:initcon.obj
 0001:0004f2a0       _wctomb_s_l                00000001800502a0 f   LIBCMTD:wctomb.obj
 0001:0004f740       wctomb_s                   0000000180050740 f   LIBCMTD:wctomb.obj
 0001:0004f790       ?_Type_info_dtor@type_info@@CAXPEAV1@@Z 0000000180050790 f   LIBCMTD:typname.obj
 0001:0004f8a0       _flswbuf                   00000001800508a0 f   LIBCMTD:_flswbuf.obj
 0001:0004fc50       __mtold12                  0000000180050c50 f   LIBCMTD:mantold.obj
 0001:0004fde0       IsProcessorFeaturePresent  0000000180050de0 f   kernel32:KERNEL32.dll
 0001:0004fde6       RtlUnwindEx                0000000180050de6 f   kernel32:KERNEL32.dll
 0002:00000000       __imp_GetStdHandle         0000000180052000     kernel32:KERNEL32.dll
 0002:00000008       __imp_GetFileType          0000000180052008     kernel32:KERNEL32.dll
 0002:00000010       __imp_GetModuleFileNameW   0000000180052010     kernel32:KERNEL32.dll
 0002:00000018       __imp_GetModuleHandleExW   0000000180052018     kernel32:KERNEL32.dll
 0002:00000020       __imp_WriteConsoleW        0000000180052020     kernel32:KERNEL32.dll
 0002:00000028       __imp_GetCommandLineA      0000000180052028     kernel32:KERNEL32.dll
 0002:00000030       __imp_GetCurrentThreadId   0000000180052030     kernel32:KERNEL32.dll
 0002:00000038       __imp_IsDebuggerPresent    0000000180052038     kernel32:KERNEL32.dll
 0002:00000040       __imp_EncodePointer        0000000180052040     kernel32:KERNEL32.dll
 0002:00000048       __imp_DecodePointer        0000000180052048     kernel32:KERNEL32.dll
 0002:00000050       __imp_IsProcessorFeaturePresent 0000000180052050     kernel32:KERNEL32.dll
 0002:00000058       __imp_EnterCriticalSection 0000000180052058     kernel32:KERNEL32.dll
 0002:00000060       __imp_LeaveCriticalSection 0000000180052060     kernel32:KERNEL32.dll
 0002:00000068       __imp_ReadFile             0000000180052068     kernel32:KERNEL32.dll
 0002:00000070       __imp_GetLastError         0000000180052070     kernel32:KERNEL32.dll
 0002:00000078       __imp_MultiByteToWideChar  0000000180052078     kernel32:KERNEL32.dll
 0002:00000080       __imp_GetConsoleMode       0000000180052080     kernel32:KERNEL32.dll
 0002:00000088       __imp_ReadConsoleW         0000000180052088     kernel32:KERNEL32.dll
 0002:00000090       __imp_RtlUnwindEx          0000000180052090     kernel32:KERNEL32.dll
 0002:00000098       __imp_SetFilePointerEx     0000000180052098     kernel32:KERNEL32.dll
 0002:000000a0       __imp_RaiseException       00000001800520a0     kernel32:KERNEL32.dll
 0002:000000a8       __imp_HeapSize             00000001800520a8     kernel32:KERNEL32.dll
 0002:000000b0       __imp_HeapValidate         00000001800520b0     kernel32:KERNEL32.dll
 0002:000000b8       __imp_GetSystemInfo        00000001800520b8     kernel32:KERNEL32.dll
 0002:000000c0       __imp_IsValidCodePage      00000001800520c0     kernel32:KERNEL32.dll
 0002:000000c8       __imp_GetACP               00000001800520c8     kernel32:KERNEL32.dll
 0002:000000d0       __imp_GetOEMCP             00000001800520d0     kernel32:KERNEL32.dll
 0002:000000d8       __imp_GetCPInfo            00000001800520d8     kernel32:KERNEL32.dll
 0002:000000e0       __imp_SetLastError         00000001800520e0     kernel32:KERNEL32.dll
 0002:000000e8       __imp_RtlLookupFunctionEntry 00000001800520e8     kernel32:KERNEL32.dll
 0002:000000f0       __imp_ExitProcess          00000001800520f0     kernel32:KERNEL32.dll
 0002:000000f8       __imp_GetProcAddress       00000001800520f8     kernel32:KERNEL32.dll
 0002:00000100       __imp_WideCharToMultiByte  0000000180052100     kernel32:KERNEL32.dll
 0002:00000108       __imp_OutputDebugStringW   0000000180052108     kernel32:KERNEL32.dll
 0002:00000110       __imp_WaitForSingleObjectEx 0000000180052110     kernel32:KERNEL32.dll
 0002:00000118       __imp_CreateThread         0000000180052118     kernel32:KERNEL32.dll
 0002:00000120       __imp_LoadLibraryExW       0000000180052120     kernel32:KERNEL32.dll
 0002:00000128       __imp_WriteFile            0000000180052128     kernel32:KERNEL32.dll
 0002:00000130       __imp_GetProcessHeap       0000000180052130     kernel32:KERNEL32.dll
 0002:00000138       __imp_DeleteCriticalSection 0000000180052138     kernel32:KERNEL32.dll
 0002:00000140       __imp_GetStartupInfoW      0000000180052140     kernel32:KERNEL32.dll
 0002:00000148       __imp_GetModuleFileNameA   0000000180052148     kernel32:KERNEL32.dll
 0002:00000150       __imp_QueryPerformanceCounter 0000000180052150     kernel32:KERNEL32.dll
 0002:00000158       __imp_GetCurrentProcessId  0000000180052158     kernel32:KERNEL32.dll
 0002:00000160       __imp_GetSystemTimeAsFileTime 0000000180052160     kernel32:KERNEL32.dll
 0002:00000168       __imp_GetEnvironmentStringsW 0000000180052168     kernel32:KERNEL32.dll
 0002:00000170       __imp_FreeEnvironmentStringsW 0000000180052170     kernel32:KERNEL32.dll
 0002:00000178       __imp_RtlCaptureContext    0000000180052178     kernel32:KERNEL32.dll
 0002:00000180       __imp_RtlVirtualUnwind     0000000180052180     kernel32:KERNEL32.dll
 0002:00000188       __imp_UnhandledExceptionFilter 0000000180052188     kernel32:KERNEL32.dll
 0002:00000190       __imp_SetUnhandledExceptionFilter 0000000180052190     kernel32:KERNEL32.dll
 0002:00000198       __imp_InitializeCriticalSectionAndSpinCount 0000000180052198     kernel32:KERNEL32.dll
 0002:000001a0       __imp_GetCurrentProcess    00000001800521a0     kernel32:KERNEL32.dll
 0002:000001a8       __imp_TerminateProcess     00000001800521a8     kernel32:KERNEL32.dll
 0002:000001b0       __imp_TlsAlloc             00000001800521b0     kernel32:KERNEL32.dll
 0002:000001b8       __imp_TlsGetValue          00000001800521b8     kernel32:KERNEL32.dll
 0002:000001c0       __imp_TlsSetValue          00000001800521c0     kernel32:KERNEL32.dll
 0002:000001c8       __imp_TlsFree              00000001800521c8     kernel32:KERNEL32.dll
 0002:000001d0       __imp_GetModuleHandleW     00000001800521d0     kernel32:KERNEL32.dll
 0002:000001d8       __imp_OutputDebugStringA   00000001800521d8     kernel32:KERNEL32.dll
 0002:000001e0       __imp_SetStdHandle         00000001800521e0     kernel32:KERNEL32.dll
 0002:000001e8       __imp_FlushFileBuffers     00000001800521e8     kernel32:KERNEL32.dll
 0002:000001f0       __imp_GetConsoleCP         00000001800521f0     kernel32:KERNEL32.dll
 0002:000001f8       __imp_HeapFree             00000001800521f8     kernel32:KERNEL32.dll
 0002:00000200       __imp_HeapReAlloc          0000000180052200     kernel32:KERNEL32.dll
 0002:00000208       __imp_HeapQueryInformation 0000000180052208     kernel32:KERNEL32.dll
 0002:00000210       __imp_HeapAlloc            0000000180052210     kernel32:KERNEL32.dll
 0002:00000218       __imp_GetStringTypeW       0000000180052218     kernel32:KERNEL32.dll
 0002:00000220       __imp_RtlPcToFileHeader    0000000180052220     kernel32:KERNEL32.dll
 0002:00000228       __imp_LCMapStringW         0000000180052228     kernel32:KERNEL32.dll
 0002:00000230       __imp_CloseHandle          0000000180052230     kernel32:KERNEL32.dll
 0002:00000238       __imp_CreateFileW          0000000180052238     kernel32:KERNEL32.dll
 0002:00000240       \177KERNEL32_NULL_THUNK_DATA 0000000180052240     kernel32:KERNEL32.dll
 0002:00000248       __xc_a                     0000000180052248     LIBCMTD:crt0init.obj
 0002:00000250       __xc_z                     0000000180052250     LIBCMTD:crt0init.obj
 0002:00000258       __xi_a                     0000000180052258     LIBCMTD:crt0init.obj
 0002:00000288       __xi_z                     0000000180052288     LIBCMTD:crt0init.obj
 0002:00000290       __xp_a                     0000000180052290     LIBCMTD:crt0init.obj
 0002:000002b0       __xp_z                     00000001800522b0     LIBCMTD:crt0init.obj
 0002:000002b8       __xt_a                     00000001800522b8     LIBCMTD:crt0init.obj
 0002:000002c0       __xt_z                     00000001800522c0     LIBCMTD:crt0init.obj
 0002:00001f98       ??_C@_0BD@NBFNAMCM@Invalid?5code?5path?$CB?$AA@ 0000000180053f98     dolphin.obj
 0002:00001fac       __real@00000000            0000000180053fac     dolphin.obj
 0002:00001fb0       __real@3b808081            0000000180053fb0     dolphin.obj
 0002:00001fb4       __real@3dcccccd            0000000180053fb4     dolphin.obj
 0002:00001fb8       __real@3e207141            0000000180053fb8     dolphin.obj
 0002:00001fbc       __real@3ecccccd            0000000180053fbc     dolphin.obj
 0002:00001fc0       __real@3f000000            0000000180053fc0     dolphin.obj
 0002:00001fc4       __real@3f19999a            0000000180053fc4     dolphin.obj
 0002:00001fc8       __real@3f800000            0000000180053fc8     dolphin.obj
 0002:00001fcc       __real@3fc90fdb            0000000180053fcc     dolphin.obj
 0002:00001fd0       __real@40000000            0000000180053fd0     dolphin.obj
 0002:00001fd4       __real@40400000            0000000180053fd4     dolphin.obj
 0002:00001fd8       __real@40490fdb            0000000180053fd8     dolphin.obj
 0002:00001fdc       __real@40800000            0000000180053fdc     dolphin.obj
 0002:00001fe0       __real@4096cbe4            0000000180053fe0     dolphin.obj
 0002:00001fe4       __real@40c90fdb            0000000180053fe4     dolphin.obj
 0002:00001fe8       __real@41200000            0000000180053fe8     dolphin.obj
 0002:00001fec       __real@42200000            0000000180053fec     dolphin.obj
 0002:00001ff0       __real@42c80000            0000000180053ff0     dolphin.obj
 0002:00001ff4       __real@43160000            0000000180053ff4     dolphin.obj
 0002:00001ff8       __real@43480000            0000000180053ff8     dolphin.obj
 0002:00001ffc       __real@437f0000            0000000180053ffc     dolphin.obj
 0002:00002000       __real@43960000            0000000180054000     dolphin.obj
 0002:00002004       __real@43c80000            0000000180054004     dolphin.obj
 0002:00002008       __real@49742400            0000000180054008     dolphin.obj
 0002:0000200c       __real@7f7fffff            000000018005400c     dolphin.obj
 0002:00002010       __xmm@00000000000000000000000000000000 0000000180054010     dolphin.obj
 0002:00002020       __xmm@000000ff000000ff000000ff000000ff 0000000180054020     dolphin.obj
 0002:00002030       __xmm@00000200000002000000020000000200 0000000180054030     dolphin.obj
 0002:00002040       __xmm@00080008000800080008000800080008 0000000180054040     dolphin.obj
 0002:00002050       __xmm@00ff00ff00ff00ff00ff00ff00ff00ff 0000000180054050     dolphin.obj
 0002:00002060       __xmm@01010000010100000101000001010000 0000000180054060     dolphin.obj
 0002:00002070       __xmm@08a914e808a914e808a914e808a914e8 0000000180054070     dolphin.obj
 0002:00002080       __xmm@11c8e09e11c8e09e11c8e09e11c8e09e 0000000180054080     dolphin.obj
 0002:00002090       __xmm@11c8f9c311c8f9c311c8f9c311c8f9c3 0000000180054090     dolphin.obj
 0002:000020a0       __xmm@12d0046b12d0046b12d0046b12d0046b 00000001800540a0     dolphin.obj
 0002:000020b0       __xmm@166f166f166f166f166f166f166f166f 00000001800540b0     dolphin.obj
 0002:000020c0       __xmm@1c5a1c5a1c5a1c5a1c5a1c5a1c5a1c5a 00000001800540c0     dolphin.obj
 0002:000020d0       __xmm@3b8080813b8080813b8080813b808081 00000001800540d0     dolphin.obj
 0002:000020e0       __xmm@3f0000003f0000003f0000003f000000 00000001800540e0     dolphin.obj
 0002:000020f0       __xmm@3f7fbe773f7fbe773f7fbe773f7fbe77 00000001800540f0     dolphin.obj
 0002:00002100       __xmm@3f8000003f8000003f8000003f800000 0000000180054100     dolphin.obj
 0002:00002110       __xmm@437f0000437f0000437f0000437f0000 0000000180054110     dolphin.obj
 0002:00002120       __xmm@80000000800000008000000080000000 0000000180054120     dolphin.obj
 0002:00002130       __xmm@80808080808080808080808080808080 0000000180054130     dolphin.obj
 0002:00002140       __xmm@e09ee565e09ee565e09ee565e09ee565 0000000180054140     dolphin.obj
 0002:00002150       __xmm@e9cf12d0e9cf12d0e9cf12d0e9cf12d0 0000000180054150     dolphin.obj
 0002:00002160       __xmm@eb1a08a9eb1a08a9eb1a08a9eb1a08a9 0000000180054160     dolphin.obj
 0002:00002170       __xmm@f493f493f493f493f493f493f493f493 0000000180054170     dolphin.obj
 0002:00002180       __xmm@f9c31a9df9c31a9df9c31a9df9c31a9d 0000000180054180     dolphin.obj
 0002:00002190       __xmm@fa7efa7efa7efa7efa7efa7efa7efa7e 0000000180054190     dolphin.obj
 0002:000021a0       ??_C@_1CC@FADMNIL@?$AA?$CI?$AAs?$AAt?$AAr?$AAe?$AAa?$AAm?$AA?5?$AA?$CB?$AA?$DN?$AA?5?$AAN?$AAU?$AAL?$AAL?$AA?$CJ?$AA?$AA@ 00000001800541a0     LIBCMTD:feoferr.obj
 0002:000021c4       ??_C@_15GANGMFKL@?$AA?$CF?$AAs?$AA?$AA@ 00000001800541c4     LIBCMTD:feoferr.obj
 0002:000021d0       ??_C@_1FC@KMCLOOLI@?$AAf?$AA?3?$AA?2?$AAd?$AAd?$AA?2?$AAv?$AAc?$AAt?$AAo?$AAo?$AAl?$AAs?$AA?2?$AAc?$AAr?$AAt?$AA?2?$AAc?$AAr?$AAt?$AAw?$AA3?$AA2?$AA?2?$AAs?$AAt?$AAd?$AAi?$AAo?$AA?2?$AAf@ 00000001800541d0     LIBCMTD:feoferr.obj
 0002:00002228       ??_C@_19LPGIFIDB@?$AAf?$AAe?$AAo?$AAf?$AA?$AA@ 0000000180054228     LIBCMTD:feoferr.obj
 0002:00002240       ??_C@_1EO@KDKHJMND@?$AAf?$AA?3?$AA?2?$AAd?$AAd?$AA?2?$AAv?$AAc?$AAt?$AAo?$AAo?$AAl?$AAs?$AA?2?$AAc?$AAr?$AAt?$AA?2?$AAc?$AAr?$AAt?$AAw?$AA3?$AA2?$AA?2?$AAs?$AAt?$AAd?$AAi?$AAo?$AA?2?$AAf@ 0000000180054240     LIBCMTD:fread.obj
 0002:00002290       ??_C@_1BA@CMLCEIGG@?$AAf?$AAr?$AAe?$AAa?$AAd?$AA_?$AAs?$AA?$AA@ 0000000180054290     LIBCMTD:fread.obj
 0002:000022a0       ??_C@_1CC@CGFEEBMC@?$AA?$CI?$AAb?$AAu?$AAf?$AAf?$AAe?$AAr?$AA?5?$AA?$CB?$AA?$DN?$AA?5?$AAN?$AAU?$AAL?$AAL?$AA?$CJ?$AA?$AA@ 00000001800542a0     LIBCMTD:fread.obj
 0002:000022c8       ??_C@_1CA@IDPOGFL@?$AA_?$AAf?$AAr?$AAe?$AAa?$AAd?$AA_?$AAn?$AAo?$AAl?$AAo?$AAc?$AAk?$AA_?$AAs?$AA?$AA@ 00000001800542c8     LIBCMTD:fread.obj
 0002:000022f0       ??_C@_1EA@FAMECDND@?$AAn?$AAu?$AAm?$AA?5?$AA?$DM?$AA?$DN?$AA?5?$AA?$CI?$AAS?$AAI?$AAZ?$AAE?$AA_?$AAM?$AAA?$AAX?$AA?5?$AA?1?$AA?5?$AAe?$AAl?$AAe?$AAm?$AAe?$AAn?$AAt?$AAS?$AAi?$AAz?$AAe?$AA?$CJ?$AA?$AA@ 00000001800542f0     LIBCMTD:fread.obj
 0002:00002330       ??_C@_1LG@DCNDJCHK@?$AA?$CI?$AA?$CC?$AAI?$AAn?$AAc?$AAo?$AAn?$AAs?$AAi?$AAs?$AAt?$AAe?$AAn?$AAt?$AA?5?$AAS?$AAt?$AAr?$AAe?$AAa?$AAm?$AA?5?$AAC?$AAo?$AAu?$AAn?$AAt?$AA?4?$AA?5?$AAF?$AAl?$AAu@ 0000000180054330     LIBCMTD:fread.obj
 0002:000023e8       ??_C@_1DA@DKEFLDMG@?$AA?$CI?$AA?$CC?$AAb?$AAu?$AAf?$AAf?$AAe?$AAr?$AA?5?$AAt?$AAo?$AAo?$AA?5?$AAs?$AAm?$AAa?$AAl?$AAl?$AA?$CC?$AA?0?$AA?5?$AA0?$AA?$CJ?$AA?$AA@ 00000001800543e8     LIBCMTD:fread.obj
 0002:00002420       ??_C@_1EO@OOGDMPHD@?$AAf?$AA?3?$AA?2?$AAd?$AAd?$AA?2?$AAv?$AAc?$AAt?$AAo?$AAo?$AAl?$AAs?$AA?2?$AAc?$AAr?$AAt?$AA?2?$AAc?$AAr?$AAt?$AAw?$AA3?$AA2?$AA?2?$AAs?$AAt?$AAd?$AAi?$AAo?$AA?2?$AAf@ 0000000180054420     LIBCMTD:fseek.obj
 0002:00002470       ??_C@_1M@HCCOIONH@?$AAf?$AAs?$AAe?$AAe?$AAk?$AA?$AA@ 0000000180054470     LIBCMTD:fseek.obj
 0002:00002480       ??_C@_1IO@PMHBOLJK@?$AA?$CI?$AA?$CI?$AAw?$AAh?$AAe?$AAn?$AAc?$AAe?$AA?5?$AA?$DN?$AA?$DN?$AA?5?$AAS?$AAE?$AAE?$AAK?$AA_?$AAS?$AAE?$AAT?$AA?$CJ?$AA?5?$AA?$HM?$AA?$HM?$AA?5?$AA?$CI?$AAw?$AAh?$AAe?$AAn?$AAc?$AAe@ 0000000180054480     LIBCMTD:fseek.obj
 0002:00002510       __real@0000000000000000    0000000180054510     LIBCMTD:ldexp.obj
 0002:00002518       __real@3ff0000000000000    0000000180054518     LIBCMTD:ldexp.obj
 0002:00002548       ??_C@_1BK@LAOAACLJ@?$AAn?$AAp?$AAt?$AAr?$AA?5?$AA?$CB?$AA?$DN?$AA?5?$AAN?$AAU?$AAL?$AAL?$AA?$AA@ 0000000180054548     LIBCMTD:strtol.obj
 0002:00002570       ??_C@_1FE@OOICPOFH@?$AAf?$AA?3?$AA?2?$AAd?$AAd?$AA?2?$AAv?$AAc?$AAt?$AAo?$AAo?$AAl?$AAs?$AA?2?$AAc?$AAr?$AAt?$AA?2?$AAc?$AAr?$AAt?$AAw?$AA3?$AA2?$AA?2?$AAc?$AAo?$AAn?$AAv?$AAe?$AAr?$AAt@ 0000000180054570     LIBCMTD:strtol.obj
 0002:000025c8       ??_C@_1BA@LOLAMAJG@?$AAs?$AAt?$AAr?$AAt?$AAo?$AAx?$AAl?$AA?$AA@ 00000001800545c8     LIBCMTD:strtol.obj
 0002:000025e0       ??_C@_1FE@CEHLKAHD@?$AAi?$AAb?$AAa?$AAs?$AAe?$AA?5?$AA?$DN?$AA?$DN?$AA?5?$AA0?$AA?5?$AA?$HM?$AA?$HM?$AA?5?$AA?$CI?$AA2?$AA?5?$AA?$DM?$AA?$DN?$AA?5?$AAi?$AAb?$AAa?$AAs?$AAe?$AA?5?$AA?$CG?$AA?$CG?$AA?5?$AAi?$AAb?$AAa@ 00000001800545e0     LIBCMTD:strtol.obj
 0002:00002638       ??_C@_17LGKOMLJ@?$AA?4?$AA?4?$AA?4?$AA?$AA@ 0000000180054638     LIBCMTD:wassert.obj
 0002:00002640       ??_C@_13LBAGMAIH@?$AA?6?$AA?$AA@ 0000000180054640     LIBCMTD:wassert.obj
 0002:00002644       ??_C@_15IABLJNFO@?$AA?6?$AA?6?$AA?$AA@ 0000000180054644     LIBCMTD:wassert.obj
 0002:00002650       ??_C@_1EO@DPPHNOPL@?$AAf?$AA?3?$AA?2?$AAd?$AAd?$AA?2?$AAv?$AAc?$AAt?$AAo?$AAo?$AAl?$AAs?$AA?2?$AAc?$AAr?$AAt?$AA?2?$AAc?$AAr?$AAt?$AAw?$AA3?$AA2?$AA?2?$AAm?$AAi?$AAs?$AAc?$AA?2?$AAa?$AAs@ 0000000180054650     LIBCMTD:wassert.obj
 0002:000026a0       ??_C@_1BC@LNOOMFNA@?$AA_?$AAw?$AAa?$AAs?$AAs?$AAe?$AAr?$AAt?$AA?$AA@ 00000001800546a0     LIBCMTD:wassert.obj
 0002:000026c0       ??_C@_1GM@PANFFKAD@?$AAw?$AAc?$AAs?$AAc?$AAp?$AAy?$AA_?$AAs?$AA?$CI?$AA?5?$AAa?$AAs?$AAs?$AAe?$AAr?$AAt?$AAb?$AAu?$AAf?$AA?0?$AA?5?$AA?$CI?$AA6?$AA4?$AA?5?$AA?$CK?$AA?5?$AA9?$AA?$CJ?$AA?0?$AA?5?$AAL@ 00000001800546c0     LIBCMTD:wassert.obj
 0002:00002730       ??_C@_1CE@OJBNHDMO@?$AAA?$AAs?$AAs?$AAe?$AAr?$AAt?$AAi?$AAo?$AAn?$AA?5?$AAf?$AAa?$AAi?$AAl?$AAe?$AAd?$AA?$CB?$AA?$AA@ 0000000180054730     LIBCMTD:wassert.obj
 0002:00002760       ??_C@_1FI@OJONHFCN@?$AAw?$AAc?$AAs?$AAc?$AAa?$AAt?$AA_?$AAs?$AA?$CI?$AA?5?$AAa?$AAs?$AAs?$AAe?$AAr?$AAt?$AAb?$AAu?$AAf?$AA?0?$AA?5?$AA?$CI?$AA6?$AA4?$AA?5?$AA?$CK?$AA?5?$AA9?$AA?$CJ?$AA?0?$AA?5?$AAd@ 0000000180054760     LIBCMTD:wassert.obj
 0002:000027c0       ??_C@_1FM@JONFCKBO@?$AAw?$AAc?$AAs?$AAc?$AAa?$AAt?$AA_?$AAs?$AA?$CI?$AA?5?$AAa?$AAs?$AAs?$AAe?$AAr?$AAt?$AAb?$AAu?$AAf?$AA?0?$AA?5?$AA?$CI?$AA6?$AA4?$AA?5?$AA?$CK?$AA?5?$AA9?$AA?$CJ?$AA?0?$AA?5?$AAL@ 00000001800547c0     LIBCMTD:wassert.obj
 0002:00002820       ??_C@_1BE@PHKBBGE@?$AAP?$AAr?$AAo?$AAg?$AAr?$AAa?$AAm?$AA?3?$AA?5?$AA?$AA@ 0000000180054820     LIBCMTD:wassert.obj
 0002:00002840       ??_C@_1HA@EPFCONEE@?$AAw?$AAc?$AAs?$AAc?$AAp?$AAy?$AA_?$AAs?$AA?$CI?$AA?5?$AAp?$AAr?$AAo?$AAg?$AAn?$AAa?$AAm?$AAe?$AA?0?$AA?5?$AA2?$AA6?$AA0?$AA?5?$AA?$CL?$AA?5?$AA1?$AA?0?$AA?5?$AAL?$AA?$CC?$AA?$DM@ 0000000180054840     LIBCMTD:wassert.obj
 0002:000028b0       ??_C@_1CO@EAEJAADC@?$AA?$DM?$AAp?$AAr?$AAo?$AAg?$AAr?$AAa?$AAm?$AA?5?$AAn?$AAa?$AAm?$AAe?$AA?5?$AAu?$AAn?$AAk?$AAn?$AAo?$AAw?$AAn?$AA?$DO?$AA?$AA@ 00000001800548b0     LIBCMTD:wassert.obj
 0002:000028e0       ??_C@_1LK@LGFOFOMH@?$AAm?$AAe?$AAm?$AAc?$AAp?$AAy?$AA_?$AAs?$AA?$CI?$AAp?$AAc?$AAh?$AA?0?$AA?5?$AAs?$AAi?$AAz?$AAe?$AAo?$AAf?$AA?$CI?$AAT?$AAC?$AAH?$AAA?$AAR?$AA?$CJ?$AA?5?$AA?$CK?$AA?5?$AA?$CI?$AA?$CI@ 00000001800548e0     LIBCMTD:wassert.obj
 0002:000029a0       ??_C@_1EK@BFAHOLDO@?$AAw?$AAc?$AAs?$AAc?$AAa?$AAt?$AA_?$AAs?$AA?$CI?$AA?5?$AAa?$AAs?$AAs?$AAe?$AAr?$AAt?$AAb?$AAu?$AAf?$AA?0?$AA?5?$AA?$CI?$AA6?$AA4?$AA?5?$AA?$CK?$AA?5?$AA9?$AA?$CJ?$AA?0?$AA?5?$AAp@ 00000001800549a0     LIBCMTD:wassert.obj
 0002:000029f0       ??_C@_1FC@GNPGDADJ@?$AAw?$AAc?$AAs?$AAc?$AAa?$AAt?$AA_?$AAs?$AA?$CI?$AA?5?$AAa?$AAs?$AAs?$AAe?$AAr?$AAt?$AAb?$AAu?$AAf?$AA?0?$AA?5?$AA?$CI?$AA6?$AA4?$AA?5?$AA?$CK?$AA?5?$AA9?$AA?$CJ?$AA?0?$AA?5?$AAn@ 00000001800549f0     LIBCMTD:wassert.obj
 0002:00002a50       ??_C@_1FG@NHACFNEK@?$AAw?$AAc?$AAs?$AAc?$AAa?$AAt?$AA_?$AAs?$AA?$CI?$AA?5?$AAa?$AAs?$AAs?$AAe?$AAr?$AAt?$AAb?$AAu?$AAf?$AA?0?$AA?5?$AA?$CI?$AA6?$AA4?$AA?5?$AA?$CK?$AA?5?$AA9?$AA?$CJ?$AA?0?$AA?5?$AAL@ 0000000180054a50     LIBCMTD:wassert.obj
 0002:00002aa8       ??_C@_1O@HEMHKNDC@?$AAF?$AAi?$AAl?$AAe?$AA?3?$AA?5?$AA?$AA@ 0000000180054aa8     LIBCMTD:wassert.obj
 0002:00002ac0       ??_C@_1GG@PKOIFPHI@?$AAw?$AAc?$AAs?$AAn?$AAc?$AAa?$AAt?$AA_?$AAs?$AA?$CI?$AA?5?$AAa?$AAs?$AAs?$AAe?$AAr?$AAt?$AAb?$AAu?$AAf?$AA?0?$AA?5?$AA?$CI?$AA6?$AA4?$AA?5?$AA?$CK?$AA?5?$AA9?$AA?$CJ?$AA?0?$AA?5@ 0000000180054ac0     LIBCMTD:wassert.obj
 0002:00002b30       ??_C@_1FG@PLMFGJFG@?$AAw?$AAc?$AAs?$AAc?$AAa?$AAt?$AA_?$AAs?$AA?$CI?$AA?5?$AAa?$AAs?$AAs?$AAe?$AAr?$AAt?$AAb?$AAu?$AAf?$AA?0?$AA?5?$AA?$CI?$AA6?$AA4?$AA?5?$AA?$CK?$AA?5?$AA9?$AA?$CJ?$AA?0?$AA?5?$AAd@ 0000000180054b30     LIBCMTD:wassert.obj
 0002:00002b90       ??_C@_1FO@HPHMICDB@?$AAw?$AAc?$AAs?$AAc?$AAa?$AAt?$AA_?$AAs?$AA?$CI?$AA?5?$AAa?$AAs?$AAs?$AAe?$AAr?$AAt?$AAb?$AAu?$AAf?$AA?0?$AA?5?$AA?$CI?$AA6?$AA4?$AA?5?$AA?$CK?$AA?5?$AA9?$AA?$CJ?$AA?0?$AA?5?$AAp@ 0000000180054b90     LIBCMTD:wassert.obj
 0002:00002bf0       ??_C@_1GO@KNIHEHNA@?$AAw?$AAc?$AAs?$AAn?$AAc?$AAa?$AAt?$AA_?$AAs?$AA?$CI?$AA?5?$AAa?$AAs?$AAs?$AAe?$AAr?$AAt?$AAb?$AAu?$AAf?$AA?0?$AA?5?$AA?$CI?$AA6?$AA4?$AA?5?$AA?$CK?$AA?5?$AA9?$AA?$CJ?$AA?0?$AA?5@ 0000000180054bf0     LIBCMTD:wassert.obj
 0002:00002c60       ??_C@_1HG@FHHFPPED@?$AAw?$AAc?$AAs?$AAn?$AAc?$AAa?$AAt?$AA_?$AAs?$AA?$CI?$AA?5?$AAa?$AAs?$AAs?$AAe?$AAr?$AAt?$AAb?$AAu?$AAf?$AA?0?$AA?5?$AA?$CI?$AA6?$AA4?$AA?5?$AA?$CK?$AA?5?$AA9?$AA?$CJ?$AA?0?$AA?5@ 0000000180054c60     LIBCMTD:wassert.obj
 0002:00002ce0       ??_C@_1IC@JGCGJJHO@?$AAw?$AAc?$AAs?$AAc?$AAa?$AAt?$AA_?$AAs?$AA?$CI?$AA?5?$AAa?$AAs?$AAs?$AAe?$AAr?$AAt?$AAb?$AAu?$AAf?$AA?0?$AA?5?$AA?$CI?$AA6?$AA4?$AA?5?$AA?$CK?$AA?5?$AA9?$AA?$CJ?$AA?0?$AA?5?$AAp@ 0000000180054ce0     LIBCMTD:wassert.obj
 0002:00002d70       ??_C@_1FE@NDOBOCBD@?$AAw?$AAc?$AAs?$AAc?$AAa?$AAt?$AA_?$AAs?$AA?$CI?$AA?5?$AAa?$AAs?$AAs?$AAe?$AAr?$AAt?$AAb?$AAu?$AAf?$AA?0?$AA?5?$AA?$CI?$AA6?$AA4?$AA?5?$AA?$CK?$AA?5?$AA9?$AA?$CJ?$AA?0?$AA?5?$AAf@ 0000000180054d70     LIBCMTD:wassert.obj
 0002:00002dd0       ??_C@_1FG@HLHNIBH@?$AAw?$AAc?$AAs?$AAc?$AAa?$AAt?$AA_?$AAs?$AA?$CI?$AA?5?$AAa?$AAs?$AAs?$AAe?$AAr?$AAt?$AAb?$AAu?$AAf?$AA?0?$AA?5?$AA?$CI?$AA6?$AA4?$AA?5?$AA?$CK?$AA?5?$AA9?$AA?$CJ?$AA?0?$AA?5?$AAL@ 0000000180054dd0     LIBCMTD:wassert.obj
 0002:00002e28       ??_C@_1O@KCAFKHJE@?$AAL?$AAi?$AAn?$AAe?$AA?3?$AA?5?$AA?$AA@ 0000000180054e28     LIBCMTD:wassert.obj
 0002:00002e40       ??_C@_1KG@NJJPHNOK@?$AA_?$AAi?$AAt?$AAo?$AAw?$AA_?$AAs?$AA?$CI?$AA?5?$AAl?$AAi?$AAn?$AAe?$AAn?$AAo?$AA?0?$AA?5?$AAa?$AAs?$AAs?$AAe?$AAr?$AAt?$AAb?$AAu?$AAf?$AA?5?$AA?$CL?$AA?5?$AAw?$AAc?$AAs@ 0000000180054e40     LIBCMTD:wassert.obj
 0002:00002ef0       ??_C@_1GC@CFDADAM@?$AAw?$AAc?$AAs?$AAc?$AAa?$AAt?$AA_?$AAs?$AA?$CI?$AA?5?$AAa?$AAs?$AAs?$AAe?$AAr?$AAt?$AAb?$AAu?$AAf?$AA?0?$AA?5?$AA?$CI?$AA6?$AA4?$AA?5?$AA?$CK?$AA?5?$AA9?$AA?$CJ?$AA?0?$AA?5?$AAL@ 0000000180054ef0     LIBCMTD:wassert.obj
 0002:00002f58       ??_C@_1BK@PEDCIPMA@?$AAE?$AAx?$AAp?$AAr?$AAe?$AAs?$AAs?$AAi?$AAo?$AAn?$AA?3?$AA?5?$AA?$AA@ 0000000180054f58     LIBCMTD:wassert.obj
 0002:00002f80       ??_C@_1CHM@HIHGOMKE@?$AAw?$AAc?$AAs?$AAn?$AAc?$AAa?$AAt?$AA_?$AAs?$AA?$CI?$AA?5?$AAa?$AAs?$AAs?$AAe?$AAr?$AAt?$AAb?$AAu?$AAf?$AA?0?$AA?5?$AA?$CI?$AA6?$AA4?$AA?5?$AA?$CK?$AA?5?$AA9?$AA?$CJ?$AA?0?$AA?5@ 0000000180054f80     LIBCMTD:wassert.obj
 0002:00003200       ??_C@_1EM@DAMJKKKC@?$AAw?$AAc?$AAs?$AAc?$AAa?$AAt?$AA_?$AAs?$AA?$CI?$AA?5?$AAa?$AAs?$AAs?$AAe?$AAr?$AAt?$AAb?$AAu?$AAf?$AA?0?$AA?5?$AA?$CI?$AA6?$AA4?$AA?5?$AA?$CK?$AA?5?$AA9?$AA?$CJ?$AA?0?$AA?5?$AAe@ 0000000180055200     LIBCMTD:wassert.obj
 0002:00003250       ??_C@_1BCO@GAGHDLIF@?$AAw?$AAc?$AAs?$AAc?$AAa?$AAt?$AA_?$AAs?$AA?$CI?$AAa?$AAs?$AAs?$AAe?$AAr?$AAt?$AAb?$AAu?$AAf?$AA?0?$AA?5?$AA?$CI?$AA6?$AA4?$AA?5?$AA?$CK?$AA?5?$AA9?$AA?$CJ?$AA?0?$AA?5?$AAL?$AA?$CC@ 0000000180055250     LIBCMTD:wassert.obj
 0002:00003380       ??_C@_1OA@EGMLFBHJ@?$AAF?$AAo?$AAr?$AA?5?$AAi?$AAn?$AAf?$AAo?$AAr?$AAm?$AAa?$AAt?$AAi?$AAo?$AAn?$AA?5?$AAo?$AAn?$AA?5?$AAh?$AAo?$AAw?$AA?5?$AAy?$AAo?$AAu?$AAr?$AA?5?$AAp?$AAr?$AAo?$AAg@ 0000000180055380     LIBCMTD:wassert.obj
 0002:00003460       ??_C@_1FG@IFIHHMNM@?$AAw?$AAc?$AAs?$AAc?$AAa?$AAt?$AA_?$AAs?$AA?$CI?$AAa?$AAs?$AAs?$AAe?$AAr?$AAt?$AAb?$AAu?$AAf?$AA?0?$AA?5?$AA?$CI?$AA6?$AA4?$AA?5?$AA?$CK?$AA?5?$AA9?$AA?$CJ?$AA?0?$AA?5?$AAd?$AAb@ 0000000180055460     LIBCMTD:wassert.obj
 0002:000034c0       ??_C@_1LO@CHAFGADE@?$AAw?$AAc?$AAs?$AAc?$AAa?$AAt?$AA_?$AAs?$AA?$CI?$AAa?$AAs?$AAs?$AAe?$AAr?$AAt?$AAb?$AAu?$AAf?$AA?0?$AA?5?$AA?$CI?$AA6?$AA4?$AA?5?$AA?$CK?$AA?5?$AA9?$AA?$CJ?$AA?0?$AA?5?$AAL?$AA?$CC@ 00000001800554c0     LIBCMTD:wassert.obj
 0002:00003580       ??_C@_1HK@POCJMFGK@?$AA?$CI?$AAP?$AAr?$AAe?$AAs?$AAs?$AA?5?$AAR?$AAe?$AAt?$AAr?$AAy?$AA?5?$AAt?$AAo?$AA?5?$AAd?$AAe?$AAb?$AAu?$AAg?$AA?5?$AAt?$AAh?$AAe?$AA?5?$AAa?$AAp?$AAp?$AAl?$AAi?$AAc@ 0000000180055580     LIBCMTD:wassert.obj
 0002:00003600       ??_C@_1EK@MBDPDCGA@?$AAM?$AAi?$AAc?$AAr?$AAo?$AAs?$AAo?$AAf?$AAt?$AA?5?$AAV?$AAi?$AAs?$AAu?$AAa?$AAl?$AA?5?$AAC?$AA?$CL?$AA?$CL?$AA?5?$AAR?$AAu?$AAn?$AAt?$AAi?$AAm?$AAe?$AA?5?$AAL?$AAi?$AAb@ 0000000180055600     LIBCMTD:wassert.obj
 0002:0000375c       ??_C@_06OJDGOBKJ@floorf?$AA@ 000000018005575c     LIBCMTD:floorf.obj
 0002:00003764       __real@bf800000            0000000180055764     LIBCMTD:floorf.obj
 0002:00004160       ??_C@_05KGFAIMPG@sqrtf?$AA@ 0000000180056160     LIBCMTD:sqrtf.obj
 0002:00004168       _FPinit                    0000000180056168     LIBCMTD:fpinit.obj
 0002:00004170       _pRawDllMain               0000000180056170     LIBCMTD:dllcrt0.obj
 0002:00004170       _pDefaultRawDllMain        0000000180056170     LIBCMTD:dllcrt0.obj
 0002:00004178       ??_C@_0CL@OOIKPIHN@f?3?2dd?2vctools?2crt?2crtw32?2startup@ 0000000180056178     LIBCMTD:dllcrt0.obj
 0002:000041c0       ??_C@_1BA@GLMCNLEM@?$AAW?$AAa?$AAr?$AAn?$AAi?$AAn?$AAg?$AA?$AA@ 00000001800561c0     LIBCMTD:dbgrptw.obj
 0002:000041d0       ??_C@_1M@ILHOPKA@?$AAE?$AAr?$AAr?$AAo?$AAr?$AA?$AA@ 00000001800561d0     LIBCMTD:dbgrptw.obj
 0002:000041e0       ??_C@_1CC@CGHMNGDG@?$AAA?$AAs?$AAs?$AAe?$AAr?$AAt?$AAi?$AAo?$AAn?$AA?5?$AAF?$AAa?$AAi?$AAl?$AAe?$AAd?$AA?$AA@ 00000001800561e0     LIBCMTD:dbgrptw.obj
 0002:00004210       ??_C@_1EO@JACJHHCK@?$AAf?$AA?3?$AA?2?$AAd?$AAd?$AA?2?$AAv?$AAc?$AAt?$AAo?$AAo?$AAl?$AAs?$AA?2?$AAc?$AAr?$AAt?$AA?2?$AAc?$AAr?$AAt?$AAw?$AA3?$AA2?$AA?2?$AAm?$AAi?$AAs?$AAc?$AA?2?$AAd?$AAb@ 0000000180056210     LIBCMTD:dbgrptw.obj
 0002:00004260       ??_C@_1CI@PGJIFDEK@?$AA_?$AA_?$AAc?$AAr?$AAt?$AAM?$AAe?$AAs?$AAs?$AAa?$AAg?$AAe?$AAW?$AAi?$AAn?$AAd?$AAo?$AAw?$AAW?$AA?$AA@ 0000000180056260     LIBCMTD:dbgrptw.obj
 0002:00004290       ??_C@_1GI@DEDNNLCI@?$AAw?$AAc?$AAs?$AAc?$AAp?$AAy?$AA_?$AAs?$AA?$CI?$AAs?$AAz?$AAE?$AAx?$AAe?$AAN?$AAa?$AAm?$AAe?$AA?0?$AA?5?$AA2?$AA6?$AA0?$AA?0?$AA?5?$AAL?$AA?$CC?$AA?$DM?$AAp?$AAr?$AAo?$AAg@ 0000000180056290     LIBCMTD:dbgrptw.obj
 0002:00004300       ??_C@_1NO@LECLLHOL@?$AAm?$AAe?$AAm?$AAc?$AAp?$AAy?$AA_?$AAs?$AA?$CI?$AAs?$AAz?$AAS?$AAh?$AAo?$AAr?$AAt?$AAP?$AAr?$AAo?$AAg?$AAN?$AAa?$AAm?$AAe?$AA?0?$AA?5?$AAs?$AAi?$AAz?$AAe?$AAo?$AAf@ 0000000180056300     LIBCMTD:dbgrptw.obj
 0002:000043e0       ??_C@_1OG@PMPPFHAF@?$AA?6?$AA?6?$AAF?$AAo?$AAr?$AA?5?$AAi?$AAn?$AAf?$AAo?$AAr?$AAm?$AAa?$AAt?$AAi?$AAo?$AAn?$AA?5?$AAo?$AAn?$AA?5?$AAh?$AAo?$AAw?$AA?5?$AAy?$AAo?$AAu?$AAr?$AA?5?$AAp?$AAr@ 00000001800563e0     LIBCMTD:dbgrptw.obj
 0002:000044c8       ??_C@_11LOCGONAA@?$AA?$AA@ 00000001800564c8     LIBCMTD:dbgrptw.obj
 0002:000044d0       ??_C@_1BA@GLLGCPCK@?$AA?6?$AAL?$AAi?$AAn?$AAe?$AA?3?$AA?5?$AA?$AA@ 00000001800564d0     LIBCMTD:dbgrptw.obj
 0002:000044e0       ??_C@_1BA@LNHECFIM@?$AA?6?$AAF?$AAi?$AAl?$AAe?$AA?3?$AA?5?$AA?$AA@ 00000001800564e0     LIBCMTD:dbgrptw.obj
 0002:000044f0       ??_C@_1BE@CGCJKGHI@?$AA?6?$AAM?$AAo?$AAd?$AAu?$AAl?$AAe?$AA?3?$AA?5?$AA?$AA@ 00000001800564f0     LIBCMTD:dbgrptw.obj
 0002:00004510       ??_C@_1KM@HNMIBKJH@?$AAD?$AAe?$AAb?$AAu?$AAg?$AA?5?$AA?$CF?$AAs?$AA?$CB?$AA?6?$AA?6?$AAP?$AAr?$AAo?$AAg?$AAr?$AAa?$AAm?$AA?3?$AA?5?$AA?$CF?$AAs?$AA?$CF?$AAs?$AA?$CF?$AAs?$AA?$CF?$AAs?$AA?$CF?$AAs?$AA?$CF?$AAs@ 0000000180056510     LIBCMTD:dbgrptw.obj
 0002:000045c0       ??_C@_1BI@KALLJECN@?$AA?$CI?$AA?$CK?$AA_?$AAe?$AAr?$AAr?$AAn?$AAo?$AA?$CI?$AA?$CJ?$AA?$CJ?$AA?$AA@ 00000001800565c0     LIBCMTD:dbgrptw.obj
 0002:000045e0       ??_C@_1JI@EACPGHID@?$AAw?$AAc?$AAs?$AAc?$AAp?$AAy?$AA_?$AAs?$AA?$CI?$AAs?$AAz?$AAO?$AAu?$AAt?$AAM?$AAe?$AAs?$AAs?$AAa?$AAg?$AAe?$AA?0?$AA?5?$AA4?$AA0?$AA9?$AA6?$AA?0?$AA?5?$AAL?$AA?$CC?$AA_@ 00000001800565e0     LIBCMTD:dbgrptw.obj
 0002:00004680       ??_C@_1FG@BBOLDHGF@?$AA_?$AAC?$AAr?$AAt?$AAD?$AAb?$AAg?$AAR?$AAe?$AAp?$AAo?$AAr?$AAt?$AA?3?$AA?5?$AAS?$AAt?$AAr?$AAi?$AAn?$AAg?$AA?5?$AAt?$AAo?$AAo?$AA?5?$AAl?$AAo?$AAn?$AAg?$AA?5?$AAo@ 0000000180056680     LIBCMTD:dbgrptw.obj
 0002:000046d8       ??_C@_1BI@MFCLPIBM@?$AAs?$AAt?$AAr?$AA?5?$AA?$CB?$AA?$DN?$AA?5?$AAN?$AAU?$AAL?$AAL?$AA?$AA@ 00000001800566d8     LIBCMTD:_filbuf.obj
 0002:000046f0       ??_C@_1FC@KLDIFLFI@?$AAf?$AA?3?$AA?2?$AAd?$AAd?$AA?2?$AAv?$AAc?$AAt?$AAo?$AAo?$AAl?$AAs?$AA?2?$AAc?$AAr?$AAt?$AA?2?$AAc?$AAr?$AAt?$AAw?$AA3?$AA2?$AA?2?$AAs?$AAt?$AAd?$AAi?$AAo?$AA?2?$AA_@ 00000001800566f0     LIBCMTD:_filbuf.obj
 0002:00004748       ??_C@_1BA@IIKEPOGH@?$AA_?$AAf?$AAi?$AAl?$AAb?$AAu?$AAf?$AA?$AA@ 0000000180056748     LIBCMTD:_filbuf.obj
 0002:00004760       ??_C@_1FA@CKEACION@?$AAf?$AA?3?$AA?2?$AAd?$AAd?$AA?2?$AAv?$AAc?$AAt?$AAo?$AAo?$AAl?$AAs?$AA?2?$AAc?$AAr?$AAt?$AA?2?$AAc?$AAr?$AAt?$AAw?$AA3?$AA2?$AA?2?$AAs?$AAt?$AAd?$AAi?$AAo?$AA?2?$AAf@ 0000000180056760     LIBCMTD:fileno.obj
 0002:000047b0       ??_C@_1BA@JGHIEKKM@?$AA_?$AAf?$AAi?$AAl?$AAe?$AAn?$AAo?$AA?$AA@ 00000001800567b0     LIBCMTD:fileno.obj
 0002:000047c0       ??_C@_0CH@FPHLCLAF@f?3?2dd?2vctools?2crt?2crtw32?2stdio?2_@ 00000001800567c0     LIBCMTD:_file.obj
 0002:000047e8       ??_C@_1BI@GKKCBDMD@?$AAd?$AAs?$AAt?$AA?5?$AA?$CB?$AA?$DN?$AA?5?$AAN?$AAU?$AAL?$AAL?$AA?$AA@ 00000001800567e8     LIBCMTD:memcpy_s.obj
 0002:00004800       ??_C@_1FG@COJCEIPE@?$AAf?$AA?3?$AA?2?$AAd?$AAd?$AA?2?$AAv?$AAc?$AAt?$AAo?$AAo?$AAl?$AAs?$AA?2?$AAc?$AAr?$AAt?$AA?2?$AAc?$AAr?$AAt?$AAw?$AA3?$AA2?$AA?2?$AAs?$AAt?$AAr?$AAi?$AAn?$AAg?$AA?2@ 0000000180056800     LIBCMTD:memcpy_s.obj
 0002:00004858       ??_C@_1BC@GKHDJMGB@?$AAm?$AAe?$AAm?$AAc?$AAp?$AAy?$AA_?$AAs?$AA?$AA@ 0000000180056858     LIBCMTD:memcpy_s.obj
 0002:00004870       ??_C@_1BI@DCHLDCPP@?$AAs?$AAr?$AAc?$AA?5?$AA?$CB?$AA?$DN?$AA?5?$AAN?$AAU?$AAL?$AAL?$AA?$AA@ 0000000180056870     LIBCMTD:memcpy_s.obj
 0002:00004888       ??_C@_1CK@DDKKOLAN@?$AAs?$AAi?$AAz?$AAe?$AAI?$AAn?$AAB?$AAy?$AAt?$AAe?$AAs?$AA?5?$AA?$DO?$AA?$DN?$AA?5?$AAc?$AAo?$AAu?$AAn?$AAt?$AA?$AA@ 0000000180056888     LIBCMTD:memcpy_s.obj
 0002:000048c0       ??_C@_1FO@LPCLHKGE@?$AA?$CI?$AAf?$AAh?$AA?5?$AA?$DO?$AA?$DN?$AA?5?$AA0?$AA?5?$AA?$CG?$AA?$CG?$AA?5?$AA?$CI?$AAu?$AAn?$AAs?$AAi?$AAg?$AAn?$AAe?$AAd?$AA?$CJ?$AAf?$AAh?$AA?5?$AA?$DM?$AA?5?$AA?$CI?$AAu?$AAn?$AAs?$AAi@ 00000001800568c0     LIBCMTD:read.obj
 0002:00004920       ??_C@_1EM@BALFJBIJ@?$AAf?$AA?3?$AA?2?$AAd?$AAd?$AA?2?$AAv?$AAc?$AAt?$AAo?$AAo?$AAl?$AAs?$AA?2?$AAc?$AAr?$AAt?$AA?2?$AAc?$AAr?$AAt?$AAw?$AA3?$AA2?$AA?2?$AAl?$AAo?$AAw?$AAi?$AAo?$AA?2?$AAr@ 0000000180056920     LIBCMTD:read.obj
 0002:00004970       ??_C@_1M@NHJOLLDM@?$AA_?$AAr?$AAe?$AAa?$AAd?$AA?$AA@ 0000000180056970     LIBCMTD:read.obj
 0002:00004980       ??_C@_1CM@OKGMMMDH@?$AA?$CI?$AA_?$AAo?$AAs?$AAf?$AAi?$AAl?$AAe?$AA?$CI?$AAf?$AAh?$AA?$CJ?$AA?5?$AA?$CG?$AA?5?$AAF?$AAO?$AAP?$AAE?$AAN?$AA?$CJ?$AA?$AA@ 0000000180056980     LIBCMTD:read.obj
 0002:000049b0       ??_C@_1CC@HBLPFNKH@?$AA?$CI?$AAc?$AAn?$AAt?$AA?5?$AA?$DM?$AA?$DN?$AA?5?$AAI?$AAN?$AAT?$AA_?$AAM?$AAA?$AAX?$AA?$CJ?$AA?$AA@ 00000001800569b0     LIBCMTD:read.obj
 0002:000049e0       ??_C@_1JE@ECKHFIFP@?$AA?$CI?$AA?$CC?$AAI?$AAn?$AAv?$AAa?$AAl?$AAi?$AAd?$AA?5?$AAf?$AAi?$AAl?$AAe?$AA?5?$AAd?$AAe?$AAs?$AAc?$AAr?$AAi?$AAp?$AAt?$AAo?$AAr?$AA?4?$AA?5?$AAF?$AAi?$AAl?$AAe?$AA?5@ 00000001800569e0     LIBCMTD:read.obj
 0002:00004a78       ??_C@_1BK@JJBHNDKJ@?$AA_?$AAr?$AAe?$AAa?$AAd?$AA_?$AAn?$AAo?$AAl?$AAo?$AAc?$AAk?$AA?$AA@ 0000000180056a78     LIBCMTD:read.obj
 0002:00004a98       ??_C@_1CG@OHLJHGGK@?$AA?$CI?$AAi?$AAn?$AAp?$AAu?$AAt?$AAb?$AAu?$AAf?$AA?5?$AA?$CB?$AA?$DN?$AA?5?$AAN?$AAU?$AAL?$AAL?$AA?$CJ?$AA?$AA@ 0000000180056a98     LIBCMTD:read.obj
 0002:00004ac0       ??_C@_1CC@EEOLPHGO@?$AA?$CI?$AA?$CI?$AAc?$AAn?$AAt?$AA?5?$AA?$CG?$AA?5?$AA1?$AA?$CJ?$AA?5?$AA?$DN?$AA?$DN?$AA?5?$AA0?$AA?$CJ?$AA?$AA@ 0000000180056ac0     LIBCMTD:read.obj
 0002:00004ae8       ??_C@_0CG@JHNDLPLJ@f?3?2dd?2vctools?2crt?2crtw32?2lowio?2r@ 0000000180056ae8     LIBCMTD:read.obj
 0002:00004b10       ??_C@_1EO@HNHOEHGA@?$AAf?$AA?3?$AA?2?$AAd?$AAd?$AA?2?$AAv?$AAc?$AAt?$AAo?$AAo?$AAl?$AAs?$AA?2?$AAc?$AAr?$AAt?$AA?2?$AAc?$AAr?$AAt?$AAw?$AA3?$AA2?$AA?2?$AAs?$AAt?$AAd?$AAi?$AAo?$AA?2?$AAf@ 0000000180056b10     LIBCMTD:ftell.obj
 0002:00004b60       ??_C@_1BM@JMKHIAHP@?$AA?$CI?$AAs?$AAt?$AAr?$AA?5?$AA?$CB?$AA?$DN?$AA?5?$AAN?$AAU?$AAL?$AAL?$AA?$CJ?$AA?$AA@ 0000000180056b60     LIBCMTD:ftell.obj
 0002:00004b80       ??_C@_1BM@EPIDANEK@?$AA_?$AAf?$AAt?$AAe?$AAl?$AAl?$AA_?$AAn?$AAo?$AAl?$AAo?$AAc?$AAk?$AA?$AA@ 0000000180056b80     LIBCMTD:ftell.obj
 0002:00004ba0       ??_C@_1EO@CCHAPCBN@?$AAf?$AA?3?$AA?2?$AAd?$AAd?$AA?2?$AAv?$AAc?$AAt?$AAo?$AAo?$AAl?$AAs?$AA?2?$AAc?$AAr?$AAt?$AA?2?$AAc?$AAr?$AAt?$AAw?$AA3?$AA2?$AA?2?$AAl?$AAo?$AAw?$AAi?$AAo?$AA?2?$AAl@ 0000000180056ba0     LIBCMTD:lseek.obj
 0002:00004bf0       ??_C@_1O@EDOIKGHF@?$AA_?$AAl?$AAs?$AAe?$AAe?$AAk?$AA?$AA@ 0000000180056bf0     LIBCMTD:lseek.obj
 0002:00004c00       ??_C@_1DM@LMLOLGJ@?$AA?$CI?$AA?$CC?$AAI?$AAn?$AAv?$AAa?$AAl?$AAi?$AAd?$AA?5?$AAf?$AAi?$AAl?$AAe?$AA?5?$AAd?$AAe?$AAs?$AAc?$AAr?$AAi?$AAp?$AAt?$AAo?$AAr?$AA?$CC?$AA?0?$AA0?$AA?$CJ?$AA?$AA@ 0000000180056c00     LIBCMTD:lseek.obj
 0002:00004c3c       ??_C@_03KHJOGHMM@exp?$AA@  0000000180056c3c     LIBCMTD:fpexcept.obj
 0002:00004c40       ??_C@_03JGHBODFD@pow?$AA@  0000000180056c40     LIBCMTD:fpexcept.obj
 0002:00004c44       ??_C@_03MGHMBJCF@log?$AA@  0000000180056c44     LIBCMTD:fpexcept.obj
 0002:00004c48       ??_C@_05HGHHAHAP@log10?$AA@ 0000000180056c48     LIBCMTD:fpexcept.obj
 0002:00004c50       ??_C@_04COOMCNPB@sinh?$AA@ 0000000180056c50     LIBCMTD:fpexcept.obj
 0002:00004c58       ??_C@_04HPJJNFIM@cosh?$AA@ 0000000180056c58     LIBCMTD:fpexcept.obj
 0002:00004c60       ??_C@_04FJHINJAO@tanh?$AA@ 0000000180056c60     LIBCMTD:fpexcept.obj
 0002:00004c68       ??_C@_04FIHNOPOL@asin?$AA@ 0000000180056c68     LIBCMTD:fpexcept.obj
 0002:00004c70       ??_C@_04PDIFKINK@acos?$AA@ 0000000180056c70     LIBCMTD:fpexcept.obj
 0002:00004c78       ??_C@_04MLLJIGOK@atan?$AA@ 0000000180056c78     LIBCMTD:fpexcept.obj
 0002:00004c80       ??_C@_05KNGEOGJB@atan2?$AA@ 0000000180056c80     LIBCMTD:fpexcept.obj
 0002:00004c88       ??_C@_04EIAKFFMI@sqrt?$AA@ 0000000180056c88     LIBCMTD:fpexcept.obj
 0002:00004c90       ??_C@_03BLEJJJBH@sin?$AA@  0000000180056c90     LIBCMTD:fpexcept.obj
 0002:00004c94       ??_C@_03LALBNOCG@cos?$AA@  0000000180056c94     LIBCMTD:fpexcept.obj
 0002:00004c98       ??_C@_03IIINPABG@tan?$AA@  0000000180056c98     LIBCMTD:fpexcept.obj
 0002:00004c9c       ??_C@_04GFPJNGEK@ceil?$AA@ 0000000180056c9c     LIBCMTD:fpexcept.obj
 0002:00004ca4       ??_C@_05PBJFFIGL@floor?$AA@ 0000000180056ca4     LIBCMTD:fpexcept.obj
 0002:00004cac       ??_C@_04ODHECPBC@fabs?$AA@ 0000000180056cac     LIBCMTD:fpexcept.obj
 0002:00004cb4       ??_C@_04EHEDPDJG@modf?$AA@ 0000000180056cb4     LIBCMTD:fpexcept.obj
 0002:00004cbc       ??_C@_05CEJMAHNP@ldexp?$AA@ 0000000180056cbc     LIBCMTD:fpexcept.obj
 0002:00004cc4       ??_C@_05KBKMEMPO@_cabs?$AA@ 0000000180056cc4     LIBCMTD:fpexcept.obj
 0002:00004ccc       ??_C@_06MEIMCGCF@_hypot?$AA@ 0000000180056ccc     LIBCMTD:fpexcept.obj
 0002:00004cd4       ??_C@_04KEPJIHGP@fmod?$AA@ 0000000180056cd4     LIBCMTD:fpexcept.obj
 0002:00004cdc       ??_C@_05GKKHEGJL@frexp?$AA@ 0000000180056cdc     LIBCMTD:fpexcept.obj
 0002:00004ce4       ??_C@_03MJLDFKDL@_y0?$AA@  0000000180056ce4     LIBCMTD:fpexcept.obj
 0002:00004ce8       ??_C@_03NAKIGLHK@_y1?$AA@  0000000180056ce8     LIBCMTD:fpexcept.obj
 0002:00004cec       ??_C@_03ONILCKOB@_yn?$AA@  0000000180056cec     LIBCMTD:fpexcept.obj
 0002:00004cf0       ??_C@_05JGDBENOH@_logb?$AA@ 0000000180056cf0     LIBCMTD:fpexcept.obj
 0002:00004cf8       ??_C@_0L@KDOEJCKC@_nextafter?$AA@ 0000000180056cf8     LIBCMTD:fpexcept.obj
 0002:00004d10       __xmm@80000000000000008000000000000000 0000000180056d10     LIBCMTD:fpexcept.obj
 0002:00004db8       ??_C@_04HJMOFLDF@Free?$AA@ 0000000180056db8     LIBCMTD:dbgheap.obj
 0002:00004dc0       ??_C@_06EFAGIKOH@Normal?$AA@ 0000000180056dc0     LIBCMTD:dbgheap.obj
 0002:00004dc8       ??_C@_03OGPFLFLO@CRT?$AA@  0000000180056dc8     LIBCMTD:dbgheap.obj
 0002:00004dcc       ??_C@_06KMEJCCGM@Ignore?$AA@ 0000000180056dcc     LIBCMTD:dbgheap.obj
 0002:00004dd4       ??_C@_06PJIGMIJB@Client?$AA@ 0000000180056dd4     LIBCMTD:dbgheap.obj
 0002:00004de0       ??_C@_1CE@LJFEPPMP@?$AA_?$AAC?$AAr?$AAt?$AAC?$AAh?$AAe?$AAc?$AAk?$AAM?$AAe?$AAm?$AAo?$AAr?$AAy?$AA?$CI?$AA?$CJ?$AA?$AA@ 0000000180056de0     LIBCMTD:dbgheap.obj
 0002:00004e10       ??_C@_1FA@JKEKCOIC@?$AAf?$AA?3?$AA?2?$AAd?$AAd?$AA?2?$AAv?$AAc?$AAt?$AAo?$AAo?$AAl?$AAs?$AA?2?$AAc?$AAr?$AAt?$AA?2?$AAc?$AAr?$AAt?$AAw?$AA3?$AA2?$AA?2?$AAm?$AAi?$AAs?$AAc?$AA?2?$AAd?$AAb@ 0000000180056e10     LIBCMTD:dbgheap.obj
 0002:00004e60       ??_C@_0DF@BBEGIFEK@Client?5hook?5allocation?5failure?5a@ 0000000180056e60     LIBCMTD:dbgheap.obj
 0002:00004e98       ??_C@_0CB@CCLOLAHO@Client?5hook?5allocation?5failure?4?6@ 0000000180056e98     LIBCMTD:dbgheap.obj
 0002:00004ebc       ??_C@_02DKCKIIND@?$CFs?$AA@ 0000000180056ebc     LIBCMTD:dbgheap.obj
 0002:00004ec0       ??_C@_0CF@BICKFLAF@Invalid?5allocation?5size?3?5?$CFIu?5byt@ 0000000180056ec0     LIBCMTD:dbgheap.obj
 0002:00004ee8       ??_C@_0DC@JEMAGEKG@Error?3?5memory?5allocation?3?5bad?5me@ 0000000180056ee8     LIBCMTD:dbgheap.obj
 0002:00004f20       ??_C@_0DI@KKJPDPGM@Client?5hook?5re?9allocation?5failur@ 0000000180056f20     LIBCMTD:dbgheap.obj
 0002:00004f58       ??_C@_0CE@DOFMDOL@Client?5hook?5re?9allocation?5failur@ 0000000180056f58     LIBCMTD:dbgheap.obj
 0002:00004f80       ??_C@_0ED@GPCPBAGP@Invalid?5allocation?5size?3?5?$CFIu?5byt@ 0000000180056f80     LIBCMTD:dbgheap.obj
 0002:00004fd0       ??_C@_0FA@EFEIGJKG@Error?3?5memory?5allocation?3?5bad?5me@ 0000000180056fd0     LIBCMTD:dbgheap.obj
 0002:00005020       ??_C@_0EM@LGFLMAGJ@The?5Block?5at?50x?$CFp?5was?5allocated?5@ 0000000180057020     LIBCMTD:dbgheap.obj
 0002:00005070       ??_C@_1EE@GFOPCECE@?$AA_?$AAC?$AAr?$AAt?$AAI?$AAs?$AAV?$AAa?$AAl?$AAi?$AAd?$AAH?$AAe?$AAa?$AAp?$AAP?$AAo?$AAi?$AAn?$AAt?$AAe?$AAr?$AA?$CI?$AAp?$AAU?$AAs?$AAe?$AAr?$AAD?$AAa?$AAt?$AAa@ 0000000180057070     LIBCMTD:dbgheap.obj
 0002:000050c0       ??_C@_1IK@DCPKDGNH@?$AAp?$AAO?$AAl?$AAd?$AAB?$AAl?$AAo?$AAc?$AAk?$AA?9?$AA?$DO?$AAn?$AAL?$AAi?$AAn?$AAe?$AA?5?$AA?$DN?$AA?$DN?$AA?5?$AAI?$AAG?$AAN?$AAO?$AAR?$AAE?$AA_?$AAL?$AAI?$AAN?$AAE?$AA?5@ 00000001800570c0     LIBCMTD:dbgheap.obj
 0002:00005150       ??_C@_0DA@HFBKENN@Error?3?5possible?5heap?5corruption?5@ 0000000180057150     LIBCMTD:dbgheap.obj
 0002:00005180       ??_C@_1GE@PCKLOLAO@?$AAf?$AAR?$AAe?$AAa?$AAl?$AAl?$AAo?$AAc?$AA?5?$AA?$HM?$AA?$HM?$AA?5?$AA?$CI?$AA?$CB?$AAf?$AAR?$AAe?$AAa?$AAl?$AAl?$AAo?$AAc?$AA?5?$AA?$CG?$AA?$CG?$AA?5?$AAp?$AAN?$AAe?$AAw?$AAB?$AAl@ 0000000180057180     LIBCMTD:dbgheap.obj
 0002:000051e8       ??_C@_1DC@GEFKNOOL@?$AA_?$AAp?$AAL?$AAa?$AAs?$AAt?$AAB?$AAl?$AAo?$AAc?$AAk?$AA?5?$AA?$DN?$AA?$DN?$AA?5?$AAp?$AAO?$AAl?$AAd?$AAB?$AAl?$AAo?$AAc?$AAk?$AA?$AA@ 00000001800571e8     LIBCMTD:dbgheap.obj
 0002:00005220       ??_C@_1DE@KOOKLFBB@?$AA_?$AAp?$AAF?$AAi?$AAr?$AAs?$AAt?$AAB?$AAl?$AAo?$AAc?$AAk?$AA?5?$AA?$DN?$AA?$DN?$AA?5?$AAp?$AAO?$AAl?$AAd?$AAB?$AAl?$AAo?$AAc?$AAk?$AA?$AA@ 0000000180057220     LIBCMTD:dbgheap.obj
 0002:00005258       ??_C@_1CE@CJACEFBA@?$AAp?$AAU?$AAs?$AAe?$AAr?$AAD?$AAa?$AAt?$AAa?$AA?5?$AA?$CB?$AA?$DN?$AA?5?$AAN?$AAU?$AAL?$AAL?$AA?$AA@ 0000000180057258     LIBCMTD:dbgheap.obj
 0002:00005280       ??_C@_0EJ@HEIBCIMJ@The?5Block?5at?50x?$CFp?5was?5allocated?5@ 0000000180057280     LIBCMTD:dbgheap.obj
 0002:000052d0       ??_C@_0BL@KEIPLFAC@Client?5hook?5free?5failure?4?6?$AA@ 00000001800572d0     LIBCMTD:dbgheap.obj
 0002:000052f0       ??_C@_1EO@LHDAJOCM@?$AA_?$AAB?$AAL?$AAO?$AAC?$AAK?$AA_?$AAT?$AAY?$AAP?$AAE?$AA_?$AAI?$AAS?$AA_?$AAV?$AAA?$AAL?$AAI?$AAD?$AA?$CI?$AAp?$AAH?$AAe?$AAa?$AAd?$AA?9?$AA?$DO?$AAn?$AAB?$AAl?$AAo@ 00000001800572f0     LIBCMTD:dbgheap.obj
 0002:00005340       ??_C@_0KI@JGFOHMEB@HEAP?5CORRUPTION?5DETECTED?3?5before@ 0000000180057340     LIBCMTD:dbgheap.obj
 0002:000053f0       ??_C@_0IK@PJCGLBOB@HEAP?5CORRUPTION?5DETECTED?3?5before@ 00000001800573f0     LIBCMTD:dbgheap.obj
 0002:00005480       ??_C@_0KE@MBMNHHHN@HEAP?5CORRUPTION?5DETECTED?3?5after?5@ 0000000180057480     LIBCMTD:dbgheap.obj
 0002:00005530       ??_C@_0IG@LEMBDCJK@HEAP?5CORRUPTION?5DETECTED?3?5after?5@ 0000000180057530     LIBCMTD:dbgheap.obj
 0002:000055c0       ??_C@_1HK@HPCBMDFG@?$AAp?$AAH?$AAe?$AAa?$AAd?$AA?9?$AA?$DO?$AAn?$AAL?$AAi?$AAn?$AAe?$AA?5?$AA?$DN?$AA?$DN?$AA?5?$AAI?$AAG?$AAN?$AAO?$AAR?$AAE?$AA_?$AAL?$AAI?$AAN?$AAE?$AA?5?$AA?$CG?$AA?$CG?$AA?5?$AAp@ 00000001800575c0     LIBCMTD:dbgheap.obj
 0002:00005640       ??_C@_1DM@ODCJIDCP@?$AAp?$AAH?$AAe?$AAa?$AAd?$AA?9?$AA?$DO?$AAn?$AAB?$AAl?$AAo?$AAc?$AAk?$AAU?$AAs?$AAe?$AA?5?$AA?$DN?$AA?$DN?$AA?5?$AAn?$AAB?$AAl?$AAo?$AAc?$AAk?$AAU?$AAs?$AAe?$AA?$AA@ 0000000180057640     LIBCMTD:dbgheap.obj
 0002:00005680       ??_C@_1CK@DMAGEMBG@?$AA_?$AAp?$AAL?$AAa?$AAs?$AAt?$AAB?$AAl?$AAo?$AAc?$AAk?$AA?5?$AA?$DN?$AA?$DN?$AA?5?$AAp?$AAH?$AAe?$AAa?$AAd?$AA?$AA@ 0000000180057680     LIBCMTD:dbgheap.obj
 0002:000056b0       ??_C@_1CM@MMAADDMD@?$AA_?$AAp?$AAF?$AAi?$AAr?$AAs?$AAt?$AAB?$AAl?$AAo?$AAc?$AAk?$AA?5?$AA?$DN?$AA?$DN?$AA?5?$AAp?$AAH?$AAe?$AAa?$AAd?$AA?$AA@ 00000001800576b0     LIBCMTD:dbgheap.obj
 0002:000056e0       ??_C@_1BG@MBKOGDLD@?$AA_?$AAm?$AAs?$AAi?$AAz?$AAe?$AA_?$AAd?$AAb?$AAg?$AA?$AA@ 00000001800576e0     LIBCMTD:dbgheap.obj
 0002:000056f8       ??_C@_0CE@MKKHMBMK@_heapchk?5fails?5with?5_HEAPBADBEGI@ 00000001800576f8     LIBCMTD:dbgheap.obj
 0002:00005720       ??_C@_0CD@CPKEAPBD@_heapchk?5fails?5with?5_HEAPBADNODE@ 0000000180057720     LIBCMTD:dbgheap.obj
 0002:00005748       ??_C@_0CC@MJGLGBDG@_heapchk?5fails?5with?5_HEAPBADEND?4@ 0000000180057748     LIBCMTD:dbgheap.obj
 0002:00005770       ??_C@_0CC@MFFCHFHO@_heapchk?5fails?5with?5_HEAPBADPTR?4@ 0000000180057770     LIBCMTD:dbgheap.obj
 0002:00005798       ??_C@_0CL@HNNNMKMJ@_heapchk?5fails?5with?5unknown?5retu@ 0000000180057798     LIBCMTD:dbgheap.obj
 0002:000057c8       ??_C@_07OHKEFPKJ@DAMAGED?$AA@ 00000001800577c8     LIBCMTD:dbgheap.obj
 0002:000057d0       ??_C@_0KA@IHNJJKPL@HEAP?5CORRUPTION?5DETECTED?3?5on?5top@ 00000001800577d0     LIBCMTD:dbgheap.obj
 0002:00005870       ??_C@_0IC@BBJIOOJH@HEAP?5CORRUPTION?5DETECTED?3?5on?5top@ 0000000180057870     LIBCMTD:dbgheap.obj
 0002:00005900       ??_C@_0EG@DGJMPDBH@?$CFhs?5located?5at?50x?$CFp?5is?5?$CFIu?5bytes@ 0000000180057900     LIBCMTD:dbgheap.obj
 0002:00005948       ??_C@_0CI@JMLBEDHJ@?$CFhs?5located?5at?50x?$CFp?5is?5?$CFIu?5bytes@ 0000000180057948     LIBCMTD:dbgheap.obj
 0002:00005970       ??_C@_1BHO@NNANJNF@?$AA?$CI?$AAf?$AAN?$AAe?$AAw?$AAB?$AAi?$AAt?$AAs?$AA?$DN?$AA?$DN?$AA_?$AAC?$AAR?$AAT?$AAD?$AAB?$AAG?$AA_?$AAR?$AAE?$AAP?$AAO?$AAR?$AAT?$AA_?$AAF?$AAL?$AAA?$AAG?$AA?$CJ?$AA?5@ 0000000180057970     LIBCMTD:dbgheap.obj
 0002:00005af0       ??_C@_1BO@GJFDNMNF@?$AA_?$AAC?$AAr?$AAt?$AAS?$AAe?$AAt?$AAD?$AAb?$AAg?$AAF?$AAl?$AAa?$AAg?$AA?$AA@ 0000000180057af0     LIBCMTD:dbgheap.obj
 0002:00005b10       ??_C@_1BM@MIMANDHC@?$AAs?$AAt?$AAa?$AAt?$AAe?$AA?5?$AA?$CB?$AA?$DN?$AA?5?$AAN?$AAU?$AAL?$AAL?$AA?$AA@ 0000000180057b10     LIBCMTD:dbgheap.obj
 0002:00005b30       ??_C@_1CE@NJJKELF@?$AA_?$AAC?$AAr?$AAt?$AAM?$AAe?$AAm?$AAC?$AAh?$AAe?$AAc?$AAk?$AAp?$AAo?$AAi?$AAn?$AAt?$AA?$AA@ 0000000180057b30     LIBCMTD:dbgheap.obj
 0002:00005b58       ??_C@_0DP@LEFMFBOD@Bad?5memory?5block?5found?5at?50x?$CFp?4?6@ 0000000180057b58     LIBCMTD:dbgheap.obj
 0002:00005b98       ??_C@_0CB@EAAIGELO@Bad?5memory?5block?5found?5at?50x?$CFp?4?6@ 0000000180057b98     LIBCMTD:dbgheap.obj
 0002:00005bbc       ??_C@_05MKKEDADM@?$CF?42X?5?$AA@ 0000000180057bbc     LIBCMTD:dbgheap.obj
 0002:00005bc8       ??_C@_1CG@LPFIACGM@?$AA_?$AAp?$AAr?$AAi?$AAn?$AAt?$AAM?$AAe?$AAm?$AAB?$AAl?$AAo?$AAc?$AAk?$AAD?$AAa?$AAt?$AAa?$AA?$AA@ 0000000180057bc8     LIBCMTD:dbgheap.obj
 0002:00005bf0       ??_C@_0BA@HJBKCELP@?5Data?3?5?$DM?$CFs?$DO?5?$CFs?6?$AA@ 0000000180057bf0     LIBCMTD:dbgheap.obj
 0002:00005c00       ??_C@_0BE@KCIPKCIA@Dumping?5objects?5?9?$DO?6?$AA@ 0000000180057c00     LIBCMTD:dbgheap.obj
 0002:00005c18       ??_C@_0BE@OIEFNFL@?$CDFile?5Error?$CD?$CI?$CFd?$CJ?5?3?5?$AA@ 0000000180057c18     LIBCMTD:dbgheap.obj
 0002:00005c30       ??_C@_0L@JMEFFCCJ@?$CFhs?$CI?$CFd?$CJ?5?3?5?$AA@ 0000000180057c30     LIBCMTD:dbgheap.obj
 0002:00005c3c       ??_C@_06PKLGBFGM@?$HL?$CFld?$HN?5?$AA@ 0000000180057c3c     LIBCMTD:dbgheap.obj
 0002:00005c48       ??_C@_0DD@GHNAAKBB@client?5block?5at?50x?$CFp?0?5subtype?5?$CFx@ 0000000180057c48     LIBCMTD:dbgheap.obj
 0002:00005c80       ??_C@_0CH@FAGDDGPN@normal?5block?5at?50x?$CFp?0?5?$CFIu?5bytes?5@ 0000000180057c80     LIBCMTD:dbgheap.obj
 0002:00005ca8       ??_C@_0DA@MDLBNIBM@crt?5block?5at?50x?$CFp?0?5subtype?5?$CFx?0?5?$CF@ 0000000180057ca8     LIBCMTD:dbgheap.obj
 0002:00005cd8       ??_C@_0BH@GFGKJDCO@Object?5dump?5complete?4?6?$AA@ 0000000180057cd8     LIBCMTD:dbgheap.obj
 0002:00005cf0       ??_C@_0BI@JBFPOEJA@Detected?5memory?5leaks?$CB?6?$AA@ 0000000180057cf0     LIBCMTD:dbgheap.obj
 0002:00005d10       ??_C@_1BJK@FEBNHLFF@?$AA?$CI?$AA?$CI?$AAp?$AAt?$AAl?$AAo?$AAc?$AAi?$AA?9?$AA?$DO?$AAl?$AAc?$AA_?$AAc?$AAa?$AAt?$AAe?$AAg?$AAo?$AAr?$AAy?$AA?$FL?$AAc?$AAa?$AAt?$AAe?$AAg?$AAo?$AAr?$AAy?$AA?$FN?$AA?4@ 0000000180057d10     LIBCMTD:localref.obj
 0002:00005eb0       ??_C@_1FC@HINIIGNO@?$AAf?$AA?3?$AA?2?$AAd?$AAd?$AA?2?$AAv?$AAc?$AAt?$AAo?$AAo?$AAl?$AAs?$AA?2?$AAc?$AAr?$AAt?$AA?2?$AAc?$AAr?$AAt?$AAw?$AA3?$AA2?$AA?2?$AAm?$AAi?$AAs?$AAc?$AA?2?$AAl?$AAo@ 0000000180057eb0     LIBCMTD:localref.obj
 0002:00005f28       ??_C@_1M@HPNHIDJI@?$AAj?$AAa?$AA?9?$AAJ?$AAP?$AA?$AA@ 0000000180057f28     LIBCMTD:mbctype.obj
 0002:00005f38       ??_C@_1M@BIBDDEMK@?$AAz?$AAh?$AA?9?$AAC?$AAN?$AA?$AA@ 0000000180057f38     LIBCMTD:mbctype.obj
 0002:00005f48       ??_C@_1M@JLOOOEGK@?$AAk?$AAo?$AA?9?$AAK?$AAR?$AA?$AA@ 0000000180057f48     LIBCMTD:mbctype.obj
 0002:00005f58       ??_C@_1M@CLNBBOPM@?$AAz?$AAh?$AA?9?$AAT?$AAW?$AA?$AA@ 0000000180057f58     LIBCMTD:mbctype.obj
 0002:00005f90       ??_C@_0CM@BEDCPGGG@f?3?2dd?2vctools?2crt?2crtw32?2mbstrin@ 0000000180057f90     LIBCMTD:mbctype.obj
 0002:00005fc0       ??_C@_1CI@JELMFMDH@?$AAc?$AA?5?$AA?$DO?$AA?$DN?$AA?5?$AA?9?$AA1?$AA?5?$AA?$CG?$AA?$CG?$AA?5?$AAc?$AA?5?$AA?$DM?$AA?$DN?$AA?5?$AA2?$AA5?$AA5?$AA?$AA@ 0000000180057fc0     LIBCMTD:isctype.obj
 0002:00005ff0       ??_C@_1FG@IBFIOCOE@?$AAf?$AA?3?$AA?2?$AAd?$AAd?$AA?2?$AAv?$AAc?$AAt?$AAo?$AAo?$AAl?$AAs?$AA?2?$AAc?$AAr?$AAt?$AA?2?$AAc?$AAr?$AAt?$AAw?$AA3?$AA2?$AA?2?$AAc?$AAo?$AAn?$AAv?$AAe?$AAr?$AAt@ 0000000180057ff0     LIBCMTD:isctype.obj
 0002:00006048       ??_C@_0CM@KPPOKOAI@f?3?2dd?2vctools?2crt?2crtw32?2startup@ 0000000180058048     LIBCMTD:tidtable.obj
 0002:00006118       ??_C@_03KOEHGMDN@Sun?$AA@  0000000180058118     LIBCMTD:nlsdata.obj
 0002:0000611c       ??_C@_03PDAGKDH@Mon?$AA@   000000018005811c     LIBCMTD:nlsdata.obj
 0002:00006120       ??_C@_03NAGEINEP@Tue?$AA@  0000000180058120     LIBCMTD:nlsdata.obj
 0002:00006124       ??_C@_03MHOMLAJA@Wed?$AA@  0000000180058124     LIBCMTD:nlsdata.obj
 0002:00006128       ??_C@_03IOFIKPDN@Thu?$AA@  0000000180058128     LIBCMTD:nlsdata.obj
 0002:0000612c       ??_C@_03IDIOELNC@Fri?$AA@  000000018005812c     LIBCMTD:nlsdata.obj
 0002:00006130       ??_C@_03FEFJNEK@Sat?$AA@   0000000180058130     LIBCMTD:nlsdata.obj
 0002:00006134       ??_C@_06OOPIFAJ@Sunday?$AA@ 0000000180058134     LIBCMTD:nlsdata.obj
 0002:0000613c       ??_C@_06JLEDEDGH@Monday?$AA@ 000000018005813c     LIBCMTD:nlsdata.obj
 0002:00006148       ??_C@_07BAAGCFCM@Tuesday?$AA@ 0000000180058148     LIBCMTD:nlsdata.obj
 0002:00006150       ??_C@_09DLIGFAKA@Wednesday?$AA@ 0000000180058150     LIBCMTD:nlsdata.obj
 0002:00006160       ??_C@_08HACCIKIA@Thursday?$AA@ 0000000180058160     LIBCMTD:nlsdata.obj
 0002:0000616c       ??_C@_06JECMNKMI@Friday?$AA@ 000000018005816c     LIBCMTD:nlsdata.obj
 0002:00006178       ??_C@_08INBOOONO@Saturday?$AA@ 0000000180058178     LIBCMTD:nlsdata.obj
 0002:00006184       ??_C@_03JIHJHPIE@Jan?$AA@  0000000180058184     LIBCMTD:nlsdata.obj
 0002:00006188       ??_C@_03HJBDCHOM@Feb?$AA@  0000000180058188     LIBCMTD:nlsdata.obj
 0002:0000618c       ??_C@_03ODNJBKGA@Mar?$AA@  000000018005818c     LIBCMTD:nlsdata.obj
 0002:00006190       ??_C@_03LEOLGMJP@Apr?$AA@  0000000180058190     LIBCMTD:nlsdata.obj
 0002:00006194       ??_C@_03CNMDKL@May?$AA@    0000000180058194     LIBCMTD:nlsdata.obj
 0002:00006198       ??_C@_03IDFGHECI@Jun?$AA@  0000000180058198     LIBCMTD:nlsdata.obj
 0002:0000619c       ??_C@_03LBGABGKK@Jul?$AA@  000000018005819c     LIBCMTD:nlsdata.obj
 0002:000061a0       ??_C@_03IFJFEIGA@Aug?$AA@  00000001800581a0     LIBCMTD:nlsdata.obj
 0002:000061a4       ??_C@_03GGCAPAJC@Sep?$AA@  00000001800581a4     LIBCMTD:nlsdata.obj
 0002:000061a8       ??_C@_03BMAOKBAD@Oct?$AA@  00000001800581a8     LIBCMTD:nlsdata.obj
 0002:000061ac       ??_C@_03JPJOFNIA@Nov?$AA@  00000001800581ac     LIBCMTD:nlsdata.obj
 0002:000061b0       ??_C@_03MKABNOCG@Dec?$AA@  00000001800581b0     LIBCMTD:nlsdata.obj
 0002:000061b8       ??_C@_07CGJPFGJA@January?$AA@ 00000001800581b8     LIBCMTD:nlsdata.obj
 0002:000061c0       ??_C@_08GNJGEPFN@February?$AA@ 00000001800581c0     LIBCMTD:nlsdata.obj
 0002:000061cc       ??_C@_05HPCKOFNC@March?$AA@ 00000001800581cc     LIBCMTD:nlsdata.obj
 0002:000061d4       ??_C@_05DMJDNLEJ@April?$AA@ 00000001800581d4     LIBCMTD:nlsdata.obj
 0002:000061dc       ??_C@_04CNLMGBGM@June?$AA@ 00000001800581dc     LIBCMTD:nlsdata.obj
 0002:000061e4       ??_C@_04MIEPOIFP@July?$AA@ 00000001800581e4     LIBCMTD:nlsdata.obj
 0002:000061ec       ??_C@_06LBBHFDDG@August?$AA@ 00000001800581ec     LIBCMTD:nlsdata.obj
 0002:000061f8       ??_C@_09BHHEALKD@September?$AA@ 00000001800581f8     LIBCMTD:nlsdata.obj
 0002:00006208       ??_C@_07JJNFCEND@October?$AA@ 0000000180058208     LIBCMTD:nlsdata.obj
 0002:00006210       ??_C@_08HCHEGEOA@November?$AA@ 0000000180058210     LIBCMTD:nlsdata.obj
 0002:00006220       ??_C@_08EDHMEBNP@December?$AA@ 0000000180058220     LIBCMTD:nlsdata.obj
 0002:0000622c       ??_C@_02DEDBPAFC@AM?$AA@   000000018005822c     LIBCMTD:nlsdata.obj
 0002:00006230       ??_C@_02CJNFDJBF@PM?$AA@   0000000180058230     LIBCMTD:nlsdata.obj
 0002:00006238       ??_C@_08BPBNCDIB@MM?1dd?1yy?$AA@ 0000000180058238     LIBCMTD:nlsdata.obj
 0002:00006248       ??_C@_0BE@CKGJFCPC@dddd?0?5MMMM?5dd?0?5yyyy?$AA@ 0000000180058248     LIBCMTD:nlsdata.obj
 0002:00006260       ??_C@_08JCCMCCIL@HH?3mm?3ss?$AA@ 0000000180058260     LIBCMTD:nlsdata.obj
 0002:00006270       ??_C@_17MBGCMIPB@?$AAS?$AAu?$AAn?$AA?$AA@ 0000000180058270     LIBCMTD:nlsdata.obj
 0002:00006278       ??_C@_17KBOMKBF@?$AAM?$AAo?$AAn?$AA?$AA@ 0000000180058278     LIBCMTD:nlsdata.obj
 0002:00006280       ??_C@_17BMKGEGOJ@?$AAT?$AAu?$AAe?$AA?$AA@ 0000000180058280     LIBCMTD:nlsdata.obj
 0002:00006288       ??_C@_17CJEDCEPE@?$AAW?$AAe?$AAd?$AA?$AA@ 0000000180058288     LIBCMTD:nlsdata.obj
 0002:00006290       ??_C@_17PDPHAADD@?$AAT?$AAh?$AAu?$AA?$AA@ 0000000180058290     LIBCMTD:nlsdata.obj
 0002:00006298       ??_C@_17HFOLPPLP@?$AAF?$AAr?$AAi?$AA?$AA@ 0000000180058298     LIBCMTD:nlsdata.obj
 0002:000062a0       ??_C@_17GGIBDPIH@?$AAS?$AAa?$AAt?$AA?$AA@ 00000001800582a0     LIBCMTD:nlsdata.obj
 0002:000062a8       ??_C@_1O@IHNHDHPB@?$AAS?$AAu?$AAn?$AAd?$AAa?$AAy?$AA?$AA@ 00000001800582a8     LIBCMTD:nlsdata.obj
 0002:000062b8       ??_C@_1O@MMNBFLIA@?$AAM?$AAo?$AAn?$AAd?$AAa?$AAy?$AA?$AA@ 00000001800582b8     LIBCMTD:nlsdata.obj
 0002:000062c8       ??_C@_1BA@ENFBFFEK@?$AAT?$AAu?$AAe?$AAs?$AAd?$AAa?$AAy?$AA?$AA@ 00000001800582c8     LIBCMTD:nlsdata.obj
 0002:000062d8       ??_C@_1BE@EBOGMDOH@?$AAW?$AAe?$AAd?$AAn?$AAe?$AAs?$AAd?$AAa?$AAy?$AA?$AA@ 00000001800582d8     LIBCMTD:nlsdata.obj
 0002:000062f0       ??_C@_1BC@HHMNLIHE@?$AAT?$AAh?$AAu?$AAr?$AAs?$AAd?$AAa?$AAy?$AA?$AA@ 00000001800582f0     LIBCMTD:nlsdata.obj
 0002:00006308       ??_C@_1O@PDICJHAG@?$AAF?$AAr?$AAi?$AAd?$AAa?$AAy?$AA?$AA@ 0000000180058308     LIBCMTD:nlsdata.obj
 0002:00006318       ??_C@_1BC@ENMNNPAJ@?$AAS?$AAa?$AAt?$AAu?$AAr?$AAd?$AAa?$AAy?$AA?$AA@ 0000000180058318     LIBCMTD:nlsdata.obj
 0002:00006330       ??_C@_17DKNBKCHM@?$AAJ?$AAa?$AAn?$AA?$AA@ 0000000180058330     LIBCMTD:nlsdata.obj
 0002:00006338       ??_C@_17LMDJEKJN@?$AAF?$AAe?$AAb?$AA?$AA@ 0000000180058338     LIBCMTD:nlsdata.obj
 0002:00006340       ??_C@_17CKNLEDEC@?$AAM?$AAa?$AAr?$AA?$AA@ 0000000180058340     LIBCMTD:nlsdata.obj
 0002:00006348       ??_C@_17LFPOIHDD@?$AAA?$AAp?$AAr?$AA?$AA@ 0000000180058348     LIBCMTD:nlsdata.obj
 0002:00006350       ??_C@_17PNNKMEED@?$AAM?$AAa?$AAy?$AA?$AA@ 0000000180058350     LIBCMTD:nlsdata.obj
 0002:00006358       ??_C@_17KCJGOCPB@?$AAJ?$AAu?$AAn?$AA?$AA@ 0000000180058358     LIBCMTD:nlsdata.obj
 0002:00006360       ??_C@_17IJPCKHK@?$AAJ?$AAu?$AAl?$AA?$AA@ 0000000180058360     LIBCMTD:nlsdata.obj
 0002:00006368       ??_C@_17ICPELBCN@?$AAA?$AAu?$AAg?$AA?$AA@ 0000000180058368     LIBCMTD:nlsdata.obj
 0002:00006370       ??_C@_17HCHCOKMG@?$AAS?$AAe?$AAp?$AA?$AA@ 0000000180058370     LIBCMTD:nlsdata.obj
 0002:00006378       ??_C@_17FNLKOI@?$AAO?$AAc?$AAt?$AA?$AA@ 0000000180058378     LIBCMTD:nlsdata.obj
 0002:00006380       ??_C@_17BBDMLCIG@?$AAN?$AAo?$AAv?$AA?$AA@ 0000000180058380     LIBCMTD:nlsdata.obj
 0002:00006388       ??_C@_17EGKACKIF@?$AAD?$AAe?$AAc?$AA?$AA@ 0000000180058388     LIBCMTD:nlsdata.obj
 0002:00006390       ??_C@_1BA@EFMEIEBA@?$AAJ?$AAa?$AAn?$AAu?$AAa?$AAr?$AAy?$AA?$AA@ 0000000180058390     LIBCMTD:nlsdata.obj
 0002:000063a0       ??_C@_1BC@JGDDFFAM@?$AAF?$AAe?$AAb?$AAr?$AAu?$AAa?$AAr?$AAy?$AA?$AA@ 00000001800583a0     LIBCMTD:nlsdata.obj
 0002:000063b8       ??_C@_1M@IKEENEDF@?$AAM?$AAa?$AAr?$AAc?$AAh?$AA?$AA@ 00000001800583b8     LIBCMTD:nlsdata.obj
 0002:000063c8       ??_C@_1M@GJNLMHFD@?$AAA?$AAp?$AAr?$AAi?$AAl?$AA?$AA@ 00000001800583c8     LIBCMTD:nlsdata.obj
 0002:000063d8       ??_C@_19EPFLPGAP@?$AAJ?$AAu?$AAn?$AAe?$AA?$AA@ 00000001800583d8     LIBCMTD:nlsdata.obj
 0002:000063e8       ??_C@_19BIFMLPCD@?$AAJ?$AAu?$AAl?$AAy?$AA?$AA@ 00000001800583e8     LIBCMTD:nlsdata.obj
 0002:000063f8       ??_C@_1O@PAHLKOAC@?$AAA?$AAu?$AAg?$AAu?$AAs?$AAt?$AA?$AA@ 00000001800583f8     LIBCMTD:nlsdata.obj
 0002:00006408       ??_C@_1BE@DKAAMBJL@?$AAS?$AAe?$AAp?$AAt?$AAe?$AAm?$AAb?$AAe?$AAr?$AA?$AA@ 0000000180058408     LIBCMTD:nlsdata.obj
 0002:00006420       ??_C@_1BA@EPANDLNG@?$AAO?$AAc?$AAt?$AAo?$AAb?$AAe?$AAr?$AA?$AA@ 0000000180058420     LIBCMTD:nlsdata.obj
 0002:00006430       ??_C@_1BC@BGLIFPF@?$AAN?$AAo?$AAv?$AAe?$AAm?$AAb?$AAe?$AAr?$AA?$AA@ 0000000180058430     LIBCMTD:nlsdata.obj
 0002:00006448       ??_C@_1BC@FEMKIFH@?$AAD?$AAe?$AAc?$AAe?$AAm?$AAb?$AAe?$AAr?$AA?$AA@ 0000000180058448     LIBCMTD:nlsdata.obj
 0002:0000645c       ??_C@_15ODEHAHHF@?$AAA?$AAM?$AA?$AA@ 000000018005845c     LIBCMTD:nlsdata.obj
 0002:00006464       ??_C@_15CLMNNGEL@?$AAP?$AAM?$AA?$AA@ 0000000180058464     LIBCMTD:nlsdata.obj
 0002:00006470       ??_C@_1BC@IEBCMHCM@?$AAM?$AAM?$AA?1?$AAd?$AAd?$AA?1?$AAy?$AAy?$AA?$AA@ 0000000180058470     LIBCMTD:nlsdata.obj
 0002:00006488       ??_C@_1CI@KNAKOEBC@?$AAd?$AAd?$AAd?$AAd?$AA?0?$AA?5?$AAM?$AAM?$AAM?$AAM?$AA?5?$AAd?$AAd?$AA?0?$AA?5?$AAy?$AAy?$AAy?$AAy?$AA?$AA@ 0000000180058488     LIBCMTD:nlsdata.obj
 0002:000064b0       ??_C@_1BC@GDGBMEMK@?$AAH?$AAH?$AA?3?$AAm?$AAm?$AA?3?$AAs?$AAs?$AA?$AA@ 00000001800584b0     LIBCMTD:nlsdata.obj
 0002:000064c8       ??_C@_1M@BMHNFIME@?$AAe?$AAn?$AA?9?$AAU?$AAS?$AA?$AA@ 00000001800584c8     LIBCMTD:nlsdata.obj
 0002:00006570       ??_C@_1FC@PFMLEHKI@?$AA?$CI?$AA?$CI?$AA_?$AAD?$AAs?$AAt?$AA?$CJ?$AA?$CJ?$AA?5?$AA?$CB?$AA?$DN?$AA?5?$AAN?$AAU?$AAL?$AAL?$AA?5?$AA?$CG?$AA?$CG?$AA?5?$AA?$CI?$AA?$CI?$AA_?$AAS?$AAi?$AAz?$AAe?$AAI?$AAn?$AAW?$AAo?$AAr@ 0000000180058570     LIBCMTD:wcscat_s.obj
 0002:000065d0       ??_C@_1FA@EDIAPAPE@?$AAf?$AA?3?$AA?2?$AAd?$AAd?$AA?2?$AAv?$AAc?$AAt?$AAo?$AAo?$AAl?$AAs?$AA?2?$AAc?$AAr?$AAt?$AA?2?$AAc?$AAr?$AAt?$AAw?$AA3?$AA2?$AA?2?$AAh?$AA?2?$AAt?$AAc?$AAs?$AAc?$AAa@ 00000001800585d0     LIBCMTD:wcscat_s.obj
 0002:00006620       ??_C@_1BC@PLIEPKPJ@?$AAw?$AAc?$AAs?$AAc?$AAa?$AAt?$AA_?$AAs?$AA?$AA@ 0000000180058620     LIBCMTD:wcscat_s.obj
 0002:00006638       ??_C@_1CG@OFBJMIGJ@?$AA?$CI?$AA?$CI?$AA?$CI?$AA_?$AAS?$AAr?$AAc?$AA?$CJ?$AA?$CJ?$AA?$CJ?$AA?5?$AA?$CB?$AA?$DN?$AA?5?$AAN?$AAU?$AAL?$AAL?$AA?$AA@ 0000000180058638     LIBCMTD:wcscat_s.obj
 0002:00006660       ??_C@_1DM@FHLMIEG@?$AAS?$AAt?$AAr?$AAi?$AAn?$AAg?$AA?5?$AAi?$AAs?$AA?5?$AAn?$AAo?$AAt?$AA?5?$AAn?$AAu?$AAl?$AAl?$AA?5?$AAt?$AAe?$AAr?$AAm?$AAi?$AAn?$AAa?$AAt?$AAe?$AAd?$AA?$AA@ 0000000180058660     LIBCMTD:wcscat_s.obj
 0002:000066a0       ??_C@_1FA@MJKDNFFB@?$AA?$CI?$AAL?$AA?$CC?$AAS?$AAt?$AAr?$AAi?$AAn?$AAg?$AA?5?$AAi?$AAs?$AA?5?$AAn?$AAo?$AAt?$AA?5?$AAn?$AAu?$AAl?$AAl?$AA?5?$AAt?$AAe?$AAr?$AAm?$AAi?$AAn?$AAa?$AAt?$AAe?$AAd@ 00000001800586a0     LIBCMTD:wcscat_s.obj
 0002:000066f0       ??_C@_1CI@HCPHDDLE@?$AAB?$AAu?$AAf?$AAf?$AAe?$AAr?$AA?5?$AAi?$AAs?$AA?5?$AAt?$AAo?$AAo?$AA?5?$AAs?$AAm?$AAa?$AAl?$AAl?$AA?$AA@ 00000001800586f0     LIBCMTD:wcscat_s.obj
 0002:00006718       ??_C@_1DM@MADKGDLO@?$AA?$CI?$AAL?$AA?$CC?$AAB?$AAu?$AAf?$AAf?$AAe?$AAr?$AA?5?$AAi?$AAs?$AA?5?$AAt?$AAo?$AAo?$AA?5?$AAs?$AAm?$AAa?$AAl?$AAl?$AA?$CC?$AA?5?$AA?$CG?$AA?$CG?$AA?5?$AA0?$AA?$CJ?$AA?$AA@ 0000000180058718     LIBCMTD:wcscat_s.obj
 0002:00006760       ??_C@_1FA@ILDLFIFE@?$AAf?$AA?3?$AA?2?$AAd?$AAd?$AA?2?$AAv?$AAc?$AAt?$AAo?$AAo?$AAl?$AAs?$AA?2?$AAc?$AAr?$AAt?$AA?2?$AAc?$AAr?$AAt?$AAw?$AA3?$AA2?$AA?2?$AAh?$AA?2?$AAt?$AAc?$AAs?$AAc?$AAp@ 0000000180058760     LIBCMTD:wcscpy_s.obj
 0002:000067b0       ??_C@_1BC@KIONAFPO@?$AAw?$AAc?$AAs?$AAc?$AAp?$AAy?$AA_?$AAs?$AA?$AA@ 00000001800587b0     LIBCMTD:wcscpy_s.obj
 0002:000067d0       ??_C@_1FC@HNAKBBDB@?$AAf?$AA?3?$AA?2?$AAd?$AAd?$AA?2?$AAv?$AAc?$AAt?$AAo?$AAo?$AAl?$AAs?$AA?2?$AAc?$AAr?$AAt?$AA?2?$AAc?$AAr?$AAt?$AAw?$AA3?$AA2?$AA?2?$AAh?$AA?2?$AAt?$AAc?$AAs?$AAn?$AAc@ 00000001800587d0     LIBCMTD:wcsncat_s.obj
 0002:00006828       ??_C@_1BE@KPKIKKCF@?$AAw?$AAc?$AAs?$AAn?$AAc?$AAa?$AAt?$AA_?$AAs?$AA?$AA@ 0000000180058828     LIBCMTD:wcsncat_s.obj
 0002:00006840       ??_C@_1BI@BGOHAHKC@?$AAm?$AAs?$AAc?$AAo?$AAr?$AAe?$AAe?$AA?4?$AAd?$AAl?$AAl?$AA?$AA@ 0000000180058840     LIBCMTD:crt0dat.obj
 0002:00006858       ??_C@_0P@MIGLKIOC@CorExitProcess?$AA@ 0000000180058858     LIBCMTD:crt0dat.obj
 0002:00006868       ??_C@_1DE@BCNCAIK@?$AA?$CI?$AA?$CC?$AAI?$AAn?$AAv?$AAa?$AAl?$AAi?$AAd?$AA?5?$AAe?$AAr?$AAr?$AAo?$AAr?$AA_?$AAm?$AAo?$AAd?$AAe?$AA?$CC?$AA?0?$AA?5?$AA0?$AA?$CJ?$AA?$AA@ 0000000180058868     LIBCMTD:errmode.obj
 0002:000068a0       ??_C@_1FA@PBBGNIFD@?$AAf?$AA?3?$AA?2?$AAd?$AAd?$AA?2?$AAv?$AAc?$AAt?$AAo?$AAo?$AAl?$AAs?$AA?2?$AAc?$AAr?$AAt?$AA?2?$AAc?$AAr?$AAt?$AAw?$AA3?$AA2?$AA?2?$AAm?$AAi?$AAs?$AAc?$AA?2?$AAe?$AAr@ 00000001800588a0     LIBCMTD:errmode.obj
 0002:000068f0       ??_C@_1CA@LFDHAMEM@?$AA_?$AAs?$AAe?$AAt?$AA_?$AAe?$AAr?$AAr?$AAo?$AAr?$AA_?$AAm?$AAo?$AAd?$AAe?$AA?$AA@ 00000001800588f0     LIBCMTD:errmode.obj
 0002:00006910       ??_C@_1BI@ICGGMGLK@?$AAb?$AAu?$AAf?$AA?5?$AA?$CB?$AA?$DN?$AA?5?$AAN?$AAU?$AAL?$AAL?$AA?$AA@ 0000000180058910     LIBCMTD:xtows.obj
 0002:00006930       ??_C@_1FA@LEFFAILN@?$AAf?$AA?3?$AA?2?$AAd?$AAd?$AA?2?$AAv?$AAc?$AAt?$AAo?$AAo?$AAl?$AAs?$AA?2?$AAc?$AAr?$AAt?$AA?2?$AAc?$AAr?$AAt?$AAw?$AA3?$AA2?$AA?2?$AAc?$AAo?$AAn?$AAv?$AAe?$AAr?$AAt@ 0000000180058930     LIBCMTD:xtows.obj
 0002:00006980       ??_C@_1O@NCBFODOE@?$AAx?$AAt?$AAo?$AAw?$AA_?$AAs?$AA?$AA@ 0000000180058980     LIBCMTD:xtows.obj
 0002:00006990       ??_C@_1CC@JNJFIMGE@?$AAs?$AAi?$AAz?$AAe?$AAI?$AAn?$AAT?$AAC?$AAh?$AAa?$AAr?$AAs?$AA?5?$AA?$DO?$AA?5?$AA0?$AA?$AA@ 0000000180058990     LIBCMTD:xtows.obj
 0002:000069c0       ??_C@_1FA@MKGGAGEI@?$AAs?$AAi?$AAz?$AAe?$AAI?$AAn?$AAT?$AAC?$AAh?$AAa?$AAr?$AAs?$AA?5?$AA?$DO?$AA?5?$AA?$CI?$AAs?$AAi?$AAz?$AAe?$AA_?$AAt?$AA?$CJ?$AA?$CI?$AAi?$AAs?$AA_?$AAn?$AAe?$AAg?$AA?5?$AA?$DP@ 00000001800589c0     LIBCMTD:xtows.obj
 0002:00006a10       ??_C@_1DE@PCJGDBBD@?$AA2?$AA?5?$AA?$DM?$AA?$DN?$AA?5?$AAr?$AAa?$AAd?$AAi?$AAx?$AA?5?$AA?$CG?$AA?$CG?$AA?5?$AAr?$AAa?$AAd?$AAi?$AAx?$AA?5?$AA?$DM?$AA?$DN?$AA?5?$AA3?$AA6?$AA?$AA@ 0000000180058a10     LIBCMTD:xtows.obj
 0002:00006a48       ??_C@_1CM@HABGDNLJ@?$AAl?$AAe?$AAn?$AAg?$AAt?$AAh?$AA?5?$AA?$DM?$AA?5?$AAs?$AAi?$AAz?$AAe?$AAI?$AAn?$AAT?$AAC?$AAh?$AAa?$AAr?$AAs?$AA?$AA@ 0000000180058a48     LIBCMTD:xtows.obj
 0002:00006a80       ??_C@_1FC@NDJMHBOK@?$AAf?$AA?3?$AA?2?$AAd?$AAd?$AA?2?$AAv?$AAc?$AAt?$AAo?$AAo?$AAl?$AAs?$AA?2?$AAc?$AAr?$AAt?$AA?2?$AAc?$AAr?$AAt?$AAw?$AA3?$AA2?$AA?2?$AAs?$AAt?$AAd?$AAi?$AAo?$AA?2?$AAs@ 0000000180058a80     LIBCMTD:setvbuf.obj
 0002:00006ad8       ??_C@_1BA@OGODIODK@?$AAs?$AAe?$AAt?$AAv?$AAb?$AAu?$AAf?$AA?$AA@ 0000000180058ad8     LIBCMTD:setvbuf.obj
 0002:00006af0       ??_C@_1HC@CBFEDAGG@?$AA?$CI?$AAt?$AAy?$AAp?$AAe?$AA?5?$AA?$DN?$AA?$DN?$AA?5?$AA_?$AAI?$AAO?$AAN?$AAB?$AAF?$AA?$CJ?$AA?5?$AA?$HM?$AA?$HM?$AA?5?$AA?$CI?$AAt?$AAy?$AAp?$AAe?$AA?5?$AA?$DN?$AA?$DN?$AA?5?$AA_?$AAI?$AAO@ 0000000180058af0     LIBCMTD:setvbuf.obj
 0002:00006b70       ??_C@_1EG@IJNJIDNB@?$AA?$CI?$AA?$CI?$AA2?$AA?5?$AA?$DM?$AA?$DN?$AA?5?$AAs?$AAi?$AAz?$AAe?$AA?$CJ?$AA?5?$AA?$CG?$AA?$CG?$AA?5?$AA?$CI?$AAs?$AAi?$AAz?$AAe?$AA?5?$AA?$DM?$AA?$DN?$AA?5?$AAI?$AAN?$AAT?$AA_?$AAM?$AAA?$AAX@ 0000000180058b70     LIBCMTD:setvbuf.obj
 0002:00006bb8       ??_C@_0CJ@IACMAHEB@f?3?2dd?2vctools?2crt?2crtw32?2stdio?2s@ 0000000180058bb8     LIBCMTD:setvbuf.obj
 0002:00006bf0       ??_C@_1FE@OFLIMJDE@?$AAf?$AA?3?$AA?2?$AAd?$AAd?$AA?2?$AAv?$AAc?$AAt?$AAo?$AAo?$AAl?$AAs?$AA?2?$AAc?$AAr?$AAt?$AA?2?$AAc?$AAr?$AAt?$AAw?$AA3?$AA2?$AA?2?$AAs?$AAt?$AAd?$AAi?$AAo?$AA?2?$AAf@ 0000000180058bf0     LIBCMTD:fwprintf.obj
 0002:00006c48       ??_C@_1BC@BHLPNJBO@?$AAf?$AAw?$AAp?$AAr?$AAi?$AAn?$AAt?$AAf?$AA?$AA@ 0000000180058c48     LIBCMTD:fwprintf.obj
 0002:00006c60       ??_C@_1CC@MGIEJOME@?$AA?$CI?$AAf?$AAo?$AAr?$AAm?$AAa?$AAt?$AA?5?$AA?$CB?$AA?$DN?$AA?5?$AAN?$AAU?$AAL?$AAL?$AA?$CJ?$AA?$AA@ 0000000180058c60     LIBCMTD:fwprintf.obj
 0002:00006c90       ??_C@_1FE@DHCMIOFC@?$AAf?$AA?3?$AA?2?$AAd?$AAd?$AA?2?$AAv?$AAc?$AAt?$AAo?$AAo?$AAl?$AAs?$AA?2?$AAc?$AAr?$AAt?$AA?2?$AAc?$AAr?$AAt?$AAw?$AA3?$AA2?$AA?2?$AAs?$AAt?$AAd?$AAi?$AAo?$AA?2?$AAv@ 0000000180058c90     LIBCMTD:vswprnc.obj
 0002:00006ce8       ??_C@_1CE@IGKFIJFD@?$AA_?$AAv?$AAs?$AAw?$AAp?$AAr?$AAi?$AAn?$AAt?$AAf?$AA_?$AAh?$AAe?$AAl?$AAp?$AAe?$AAr?$AA?$AA@ 0000000180058ce8     LIBCMTD:vswprnc.obj
 0002:00006d10       ??_C@_1EC@FABAOFFO@?$AA?$CI?$AAc?$AAo?$AAu?$AAn?$AAt?$AA?5?$AA?$DN?$AA?$DN?$AA?5?$AA0?$AA?$CJ?$AA?5?$AA?$HM?$AA?$HM?$AA?5?$AA?$CI?$AAs?$AAt?$AAr?$AAi?$AAn?$AAg?$AA?5?$AA?$CB?$AA?$DN?$AA?5?$AAN?$AAU?$AAL?$AAL?$AA?$CJ@ 0000000180058d10     LIBCMTD:vswprnc.obj
 0002:00006d58       ??_C@_1BO@MLMCMBKN@?$AAf?$AAo?$AAr?$AAm?$AAa?$AAt?$AA?5?$AA?$CB?$AA?$DN?$AA?5?$AAN?$AAU?$AAL?$AAL?$AA?$AA@ 0000000180058d58     LIBCMTD:vswprnc.obj
 0002:00006d80       ??_C@_1EE@MPCHJFGP@?$AAs?$AAt?$AAr?$AAi?$AAn?$AAg?$AA?5?$AA?$CB?$AA?$DN?$AA?5?$AAN?$AAU?$AAL?$AAL?$AA?5?$AA?$CG?$AA?$CG?$AA?5?$AAs?$AAi?$AAz?$AAe?$AAI?$AAn?$AAW?$AAo?$AAr?$AAd?$AAs?$AA?5?$AA?$DO?$AA?5@ 0000000180058d80     LIBCMTD:vswprnc.obj
 0002:00006dc8       ??_C@_1DA@HPBFKMEB@?$AA?$CI?$AA?$CC?$AAB?$AAu?$AAf?$AAf?$AAe?$AAr?$AA?5?$AAt?$AAo?$AAo?$AA?5?$AAs?$AAm?$AAa?$AAl?$AAl?$AA?$CC?$AA?0?$AA?5?$AA0?$AA?$CJ?$AA?$AA@ 0000000180058dc8     LIBCMTD:vswprnc.obj
 0002:00006df8       ??_C@_1CA@BKFKMJFF@?$AA_?$AAv?$AAs?$AAn?$AAw?$AAp?$AAr?$AAi?$AAn?$AAt?$AAf?$AA_?$AAs?$AA_?$AAl?$AA?$AA@ 0000000180058df8     LIBCMTD:vswprnc.obj
 0002:00006e18       ??_C@_1DO@MLNEDKGB@?$AA?$CI?$AA?$CC?$AAI?$AAn?$AAv?$AAa?$AAl?$AAi?$AAd?$AA?5?$AAs?$AAi?$AAg?$AAn?$AAa?$AAl?$AA?5?$AAo?$AAr?$AA?5?$AAe?$AAr?$AAr?$AAo?$AAr?$AA?$CC?$AA?0?$AA?5?$AA0?$AA?$CJ?$AA?$AA@ 0000000180058e18     LIBCMTD:winsig.obj
 0002:00006e60       ??_C@_1EO@BCKLPCCI@?$AAf?$AA?3?$AA?2?$AAd?$AAd?$AA?2?$AAv?$AAc?$AAt?$AAo?$AAo?$AAl?$AAs?$AA?2?$AAc?$AAr?$AAt?$AA?2?$AAc?$AAr?$AAt?$AAw?$AA3?$AA2?$AA?2?$AAm?$AAi?$AAs?$AAc?$AA?2?$AAw?$AAi@ 0000000180058e60     LIBCMTD:winsig.obj
 0002:00006eb0       ??_C@_1M@DMJEIKHL@?$AAr?$AAa?$AAi?$AAs?$AAe?$AA?$AA@ 0000000180058eb0     LIBCMTD:winsig.obj
 0002:00006ec0       ??_C@_1BG@GOEBHBDC@?$AAU?$AAS?$AAE?$AAR?$AA3?$AA2?$AA?4?$AAD?$AAL?$AAL?$AA?$AA@ 0000000180058ec0     LIBCMTD:crtmboxw.obj
 0002:00006ed8       ??_C@_0M@DLDCCGNP@MessageBoxW?$AA@ 0000000180058ed8     LIBCMTD:crtmboxw.obj
 0002:00006ee8       ??_C@_0BA@HNOPNCHB@GetActiveWindow?$AA@ 0000000180058ee8     LIBCMTD:crtmboxw.obj
 0002:00006ef8       ??_C@_0BD@HHGDFDBJ@GetLastActivePopup?$AA@ 0000000180058ef8     LIBCMTD:crtmboxw.obj
 0002:00006f10       ??_C@_0BK@DEKFELLI@GetUserObjectInformationW?$AA@ 0000000180058f10     LIBCMTD:crtmboxw.obj
 0002:00006f30       ??_C@_0BI@DFKBFLJE@GetProcessWindowStation?$AA@ 0000000180058f30     LIBCMTD:crtmboxw.obj
 0002:000070c0       ??_C@_1FK@PGACCAFB@?$AAR?$AA6?$AA0?$AA0?$AA2?$AA?$AN?$AA?6?$AA?9?$AA?5?$AAf?$AAl?$AAo?$AAa?$AAt?$AAi?$AAn?$AAg?$AA?5?$AAp?$AAo?$AAi?$AAn?$AAt?$AA?5?$AAs?$AAu?$AAp?$AAp?$AAo?$AAr?$AAt?$AA?5@ 00000001800590c0     LIBCMTD:crt0msg.obj
 0002:00007120       ??_C@_1FE@LLNEDJMD@?$AAR?$AA6?$AA0?$AA0?$AA8?$AA?$AN?$AA?6?$AA?9?$AA?5?$AAn?$AAo?$AAt?$AA?5?$AAe?$AAn?$AAo?$AAu?$AAg?$AAh?$AA?5?$AAs?$AAp?$AAa?$AAc?$AAe?$AA?5?$AAf?$AAo?$AAr?$AA?5?$AAa?$AAr@ 0000000180059120     LIBCMTD:crt0msg.obj
 0002:00007180       ??_C@_1FI@HONFMGBI@?$AAR?$AA6?$AA0?$AA0?$AA9?$AA?$AN?$AA?6?$AA?9?$AA?5?$AAn?$AAo?$AAt?$AA?5?$AAe?$AAn?$AAo?$AAu?$AAg?$AAh?$AA?5?$AAs?$AAp?$AAa?$AAc?$AAe?$AA?5?$AAf?$AAo?$AAr?$AA?5?$AAe?$AAn@ 0000000180059180     LIBCMTD:crt0msg.obj
 0002:000071e0       ??_C@_1EG@BEHAGFJD@?$AAR?$AA6?$AA0?$AA1?$AA0?$AA?$AN?$AA?6?$AA?9?$AA?5?$AAa?$AAb?$AAo?$AAr?$AAt?$AA?$CI?$AA?$CJ?$AA?5?$AAh?$AAa?$AAs?$AA?5?$AAb?$AAe?$AAe?$AAn?$AA?5?$AAc?$AAa?$AAl?$AAl?$AAe?$AAd@ 00000001800591e0     LIBCMTD:crt0msg.obj
 0002:00007230       ??_C@_1FI@LOGNIKDM@?$AAR?$AA6?$AA0?$AA1?$AA6?$AA?$AN?$AA?6?$AA?9?$AA?5?$AAn?$AAo?$AAt?$AA?5?$AAe?$AAn?$AAo?$AAu?$AAg?$AAh?$AA?5?$AAs?$AAp?$AAa?$AAc?$AAe?$AA?5?$AAf?$AAo?$AAr?$AA?5?$AAt?$AAh@ 0000000180059230     LIBCMTD:crt0msg.obj
 0002:00007290       ??_C@_1FK@BEOGODMC@?$AAR?$AA6?$AA0?$AA1?$AA7?$AA?$AN?$AA?6?$AA?9?$AA?5?$AAu?$AAn?$AAe?$AAx?$AAp?$AAe?$AAc?$AAt?$AAe?$AAd?$AA?5?$AAm?$AAu?$AAl?$AAt?$AAi?$AAt?$AAh?$AAr?$AAe?$AAa?$AAd?$AA?5@ 0000000180059290     LIBCMTD:crt0msg.obj
 0002:000072f0       ??_C@_1EC@JIBHAOPH@?$AAR?$AA6?$AA0?$AA1?$AA8?$AA?$AN?$AA?6?$AA?9?$AA?5?$AAu?$AAn?$AAe?$AAx?$AAp?$AAe?$AAc?$AAt?$AAe?$AAd?$AA?5?$AAh?$AAe?$AAa?$AAp?$AA?5?$AAe?$AAr?$AAr?$AAo?$AAr?$AA?$AN?$AA?6@ 00000001800592f0     LIBCMTD:crt0msg.obj
 0002:00007340       ??_C@_1FC@ECHBIFBC@?$AAR?$AA6?$AA0?$AA1?$AA9?$AA?$AN?$AA?6?$AA?9?$AA?5?$AAu?$AAn?$AAa?$AAb?$AAl?$AAe?$AA?5?$AAt?$AAo?$AA?5?$AAo?$AAp?$AAe?$AAn?$AA?5?$AAc?$AAo?$AAn?$AAs?$AAo?$AAl?$AAe?$AA?5@ 0000000180059340     LIBCMTD:crt0msg.obj
 0002:000073a0       ??_C@_1GK@FHCKBEFA@?$AAR?$AA6?$AA0?$AA2?$AA4?$AA?$AN?$AA?6?$AA?9?$AA?5?$AAn?$AAo?$AAt?$AA?5?$AAe?$AAn?$AAo?$AAu?$AAg?$AAh?$AA?5?$AAs?$AAp?$AAa?$AAc?$AAe?$AA?5?$AAf?$AAo?$AAr?$AA?5?$AA_?$AAo@ 00000001800593a0     LIBCMTD:crt0msg.obj
 0002:00007410       ??_C@_1EM@MAADIHMB@?$AAR?$AA6?$AA0?$AA2?$AA5?$AA?$AN?$AA?6?$AA?9?$AA?5?$AAp?$AAu?$AAr?$AAe?$AA?5?$AAv?$AAi?$AAr?$AAt?$AAu?$AAa?$AAl?$AA?5?$AAf?$AAu?$AAn?$AAc?$AAt?$AAi?$AAo?$AAn?$AA?5?$AAc@ 0000000180059410     LIBCMTD:crt0msg.obj
 0002:00007460       ??_C@_1GK@MCAAGJMO@?$AAR?$AA6?$AA0?$AA2?$AA6?$AA?$AN?$AA?6?$AA?9?$AA?5?$AAn?$AAo?$AAt?$AA?5?$AAe?$AAn?$AAo?$AAu?$AAg?$AAh?$AA?5?$AAs?$AAp?$AAa?$AAc?$AAe?$AA?5?$AAf?$AAo?$AAr?$AA?5?$AAs?$AAt@ 0000000180059460     LIBCMTD:crt0msg.obj
 0002:000074d0       ??_C@_1GK@MFGOKLAG@?$AAR?$AA6?$AA0?$AA2?$AA7?$AA?$AN?$AA?6?$AA?9?$AA?5?$AAn?$AAo?$AAt?$AA?5?$AAe?$AAn?$AAo?$AAu?$AAg?$AAh?$AA?5?$AAs?$AAp?$AAa?$AAc?$AAe?$AA?5?$AAf?$AAo?$AAr?$AA?5?$AAl?$AAo@ 00000001800594d0     LIBCMTD:crt0msg.obj
 0002:00007540       ??_C@_1EK@HHFLMAOL@?$AAR?$AA6?$AA0?$AA2?$AA8?$AA?$AN?$AA?6?$AA?9?$AA?5?$AAu?$AAn?$AAa?$AAb?$AAl?$AAe?$AA?5?$AAt?$AAo?$AA?5?$AAi?$AAn?$AAi?$AAt?$AAi?$AAa?$AAl?$AAi?$AAz?$AAe?$AA?5?$AAh?$AAe@ 0000000180059540     LIBCMTD:crt0msg.obj
 0002:00007590       ??_C@_1DO@BMFCDCD@?$AAR?$AA6?$AA0?$AA3?$AA0?$AA?$AN?$AA?6?$AA?9?$AA?5?$AAC?$AAR?$AAT?$AA?5?$AAn?$AAo?$AAt?$AA?5?$AAi?$AAn?$AAi?$AAt?$AAi?$AAa?$AAl?$AAi?$AAz?$AAe?$AAd?$AA?$AN?$AA?6?$AA?$AA@ 0000000180059590     LIBCMTD:crt0msg.obj
 0002:000075d0       ??_C@_1MG@ENCOOIDF@?$AAR?$AA6?$AA0?$AA3?$AA1?$AA?$AN?$AA?6?$AA?9?$AA?5?$AAA?$AAt?$AAt?$AAe?$AAm?$AAp?$AAt?$AA?5?$AAt?$AAo?$AA?5?$AAi?$AAn?$AAi?$AAt?$AAi?$AAa?$AAl?$AAi?$AAz?$AAe?$AA?5?$AAt@ 00000001800595d0     LIBCMTD:crt0msg.obj
 0002:000076a0       ??_C@_1GG@GOPILAJP@?$AAR?$AA6?$AA0?$AA3?$AA2?$AA?$AN?$AA?6?$AA?9?$AA?5?$AAn?$AAo?$AAt?$AA?5?$AAe?$AAn?$AAo?$AAu?$AAg?$AAh?$AA?5?$AAs?$AAp?$AAa?$AAc?$AAe?$AA?5?$AAf?$AAo?$AAr?$AA?5?$AAl?$AAo@ 00000001800596a0     LIBCMTD:crt0msg.obj
 0002:00007710       ??_C@_1BOO@KGEDBGAJ@?$AAR?$AA6?$AA0?$AA3?$AA3?$AA?$AN?$AA?6?$AA?9?$AA?5?$AAA?$AAt?$AAt?$AAe?$AAm?$AAp?$AAt?$AA?5?$AAt?$AAo?$AA?5?$AAu?$AAs?$AAe?$AA?5?$AAM?$AAS?$AAI?$AAL?$AA?5?$AAc?$AAo?$AAd@ 0000000180059710     LIBCMTD:crt0msg.obj
 0002:00007900       ??_C@_1GG@MKFPEKFO@?$AAR?$AA6?$AA0?$AA3?$AA4?$AA?$AN?$AA?6?$AA?9?$AA?5?$AAi?$AAn?$AAc?$AAo?$AAn?$AAs?$AAi?$AAs?$AAt?$AAe?$AAn?$AAt?$AA?5?$AAo?$AAn?$AAe?$AAx?$AAi?$AAt?$AA?5?$AAb?$AAe?$AAg@ 0000000180059900     LIBCMTD:crt0msg.obj
 0002:00007968       ??_C@_1BO@BFCDCGC@?$AAD?$AAO?$AAM?$AAA?$AAI?$AAN?$AA?5?$AAe?$AAr?$AAr?$AAo?$AAr?$AA?$AN?$AA?6?$AA?$AA@ 0000000180059968     LIBCMTD:crt0msg.obj
 0002:00007988       ??_C@_1BK@KMOMNAAI@?$AAS?$AAI?$AAN?$AAG?$AA?5?$AAe?$AAr?$AAr?$AAo?$AAr?$AA?$AN?$AA?6?$AA?$AA@ 0000000180059988     LIBCMTD:crt0msg.obj
 0002:000079a8       ??_C@_1BM@JBBEPPHI@?$AAT?$AAL?$AAO?$AAS?$AAS?$AA?5?$AAe?$AAr?$AAr?$AAo?$AAr?$AA?$AN?$AA?6?$AA?$AA@ 00000001800599a8     LIBCMTD:crt0msg.obj
 0002:000079c4       ??_C@_15JNBOKNOG@?$AA?$AN?$AA?6?$AA?$AA@ 00000001800599c4     LIBCMTD:crt0msg.obj
 0002:000079d0       ??_C@_1BO@BKOMIGKJ@?$AAr?$AAu?$AAn?$AAt?$AAi?$AAm?$AAe?$AA?5?$AAe?$AAr?$AAr?$AAo?$AAr?$AA?5?$AA?$AA@ 00000001800599d0     LIBCMTD:crt0msg.obj
 0002:000079f0       ??_C@_1FG@ILOHEEMG@?$AAf?$AA?3?$AA?2?$AAd?$AAd?$AA?2?$AAv?$AAc?$AAt?$AAo?$AAo?$AAl?$AAs?$AA?2?$AAc?$AAr?$AAt?$AA?2?$AAc?$AAr?$AAt?$AAw?$AA3?$AA2?$AA?2?$AAs?$AAt?$AAa?$AAr?$AAt?$AAu?$AAp@ 00000001800599f0     LIBCMTD:crt0msg.obj
 0002:00007a48       ??_C@_1BI@EAHMBMEC@?$AA_?$AAN?$AAM?$AAS?$AAG?$AA_?$AAW?$AAR?$AAI?$AAT?$AAE?$AA?$AA@ 0000000180059a48     LIBCMTD:crt0msg.obj
 0002:00007a60       ??_C@_1KO@BKLCKNFL@?$AAw?$AAc?$AAs?$AAc?$AAp?$AAy?$AA_?$AAs?$AA?$CI?$AAo?$AAu?$AAt?$AAm?$AAs?$AAg?$AA?0?$AA?5?$AA?$CI?$AAs?$AAi?$AAz?$AAe?$AAo?$AAf?$AA?$CI?$AAo?$AAu?$AAt?$AAm?$AAs?$AAg?$AA?$CJ@ 0000000180059a60     LIBCMTD:crt0msg.obj
 0002:00007b10       ??_C@_1DE@JNGNBFGO@?$AAR?$AAu?$AAn?$AAt?$AAi?$AAm?$AAe?$AA?5?$AAE?$AAr?$AAr?$AAo?$AAr?$AA?$CB?$AA?6?$AA?6?$AAP?$AAr?$AAo?$AAg?$AAr?$AAa?$AAm?$AA?3?$AA?5?$AA?$AA@ 0000000180059b10     LIBCMTD:crt0msg.obj
 0002:00007b50       ??_C@_1HK@FJJNAABO@?$AAw?$AAc?$AAs?$AAc?$AAp?$AAy?$AA_?$AAs?$AA?$CI?$AAp?$AAr?$AAo?$AAg?$AAn?$AAa?$AAm?$AAe?$AA?0?$AA?5?$AAp?$AAr?$AAo?$AAg?$AAn?$AAa?$AAm?$AAe?$AA_?$AAs?$AAi?$AAz?$AAe@ 0000000180059b50     LIBCMTD:crt0msg.obj
 0002:00007bd0       ??_C@_1HI@FLHKGEBE@?$AAw?$AAc?$AAs?$AAn?$AAc?$AAp?$AAy?$AA_?$AAs?$AA?$CI?$AAp?$AAc?$AAh?$AA?0?$AA?5?$AAp?$AAr?$AAo?$AAg?$AAn?$AAa?$AAm?$AAe?$AA_?$AAs?$AAi?$AAz?$AAe?$AA?5?$AA?9?$AA?5?$AA?$CI@ 0000000180059bd0     LIBCMTD:crt0msg.obj
 0002:00007c50       ??_C@_1IA@DCJGKHFO@?$AAw?$AAc?$AAs?$AAc?$AAa?$AAt?$AA_?$AAs?$AA?$CI?$AAo?$AAu?$AAt?$AAm?$AAs?$AAg?$AA?0?$AA?5?$AA?$CI?$AAs?$AAi?$AAz?$AAe?$AAo?$AAf?$AA?$CI?$AAo?$AAu?$AAt?$AAm?$AAs?$AAg?$AA?$CJ@ 0000000180059c50     LIBCMTD:crt0msg.obj
 0002:00007cd0       ??_C@_1IG@NMONDPP@?$AAw?$AAc?$AAs?$AAc?$AAa?$AAt?$AA_?$AAs?$AA?$CI?$AAo?$AAu?$AAt?$AAm?$AAs?$AAg?$AA?0?$AA?5?$AA?$CI?$AAs?$AAi?$AAz?$AAe?$AAo?$AAf?$AA?$CI?$AAo?$AAu?$AAt?$AAm?$AAs?$AAg?$AA?$CJ@ 0000000180059cd0     LIBCMTD:crt0msg.obj
 0002:00007ed0       ??_C@_04LAGPAAHP@sinf?$AA@ 0000000180059ed0     LIBCMTD:sincos_special.obj
 0002:00007ed8       ??_C@_04OBBKPIAC@cosf?$AA@ 0000000180059ed8     LIBCMTD:sincos_special.obj
 0002:00007ee0       __Lcosfarray               0000000180059ee0     LIBCMTD:Lsincosf_array.obj
 0002:00007f10       __Lsinfarray               0000000180059f10     LIBCMTD:Lsincosf_array.obj
 0002:00007f30       __two_to_jby64_table       0000000180059f30     LIBCMTD:two_to_jby64_table.obj
 0002:00008130       __log_F_inv_qword          000000018005a130     LIBCMTD:log_F_inv_qword_table.obj
 0002:00008940       ??_C@_04MBFDLNIM@powf?$AA@ 000000018005a940     LIBCMTD:pow_special.obj
 0002:00008950       __L_2_by_pi_bits           000000018005a950     LIBCMTD:L2_by_pi_bits.obj
 0002:00008aa0       ??_C@_1EG@OHONNKNN@?$AAf?$AA?3?$AA?2?$AAd?$AAd?$AA?2?$AAv?$AAc?$AAt?$AAo?$AAo?$AAl?$AAs?$AA?2?$AAc?$AAr?$AAt?$AA?2?$AAf?$AAp?$AAw?$AA3?$AA2?$AA?2?$AAc?$AAo?$AAn?$AAv?$AA?2?$AAc?$AAv?$AAt@ 000000018005aaa0     LIBCMTD:cvt.obj
 0002:00008ae8       ??_C@_1BE@OLBNEILL@?$AA_?$AAc?$AAf?$AAt?$AAo?$AAe?$AA2?$AA_?$AAl?$AA?$AA@ 000000018005aae8     LIBCMTD:cvt.obj
 0002:00008b00       ??_C@_1CA@CBMNPEO@?$AAs?$AAi?$AAz?$AAe?$AAI?$AAn?$AAB?$AAy?$AAt?$AAe?$AAs?$AA?5?$AA?$DO?$AA?5?$AA0?$AA?$AA@ 000000018005ab00     LIBCMTD:cvt.obj
 0002:00008b20       ??_C@_1HE@NACBNDPP@?$AAs?$AAi?$AAz?$AAe?$AAI?$AAn?$AAB?$AAy?$AAt?$AAe?$AAs?$AA?5?$AA?$DO?$AA?5?$AA?$CI?$AAs?$AAi?$AAz?$AAe?$AA_?$AAt?$AA?$CJ?$AA?$CI?$AA3?$AA?5?$AA?$CL?$AA?5?$AA?$CI?$AAn?$AAd?$AAe?$AAc@ 000000018005ab20     LIBCMTD:cvt.obj
 0002:00008ba0       ??_C@_1LE@EOIFGNCJ@?$AAs?$AAt?$AAr?$AAc?$AAp?$AAy?$AA_?$AAs?$AA?$CI?$AAp?$AA?0?$AA?5?$AA?$CI?$AAs?$AAi?$AAz?$AAe?$AAI?$AAn?$AAB?$AAy?$AAt?$AAe?$AAs?$AA?5?$AA?$DN?$AA?$DN?$AA?5?$AA?$CI?$AAs?$AAi?$AAz@ 000000018005aba0     LIBCMTD:cvt.obj
 0002:00008c54       ??_C@_05KLBDPFGC@e?$CL000?$AA@ 000000018005ac54     LIBCMTD:cvt.obj
 0002:00008c60       ??_C@_1BC@INKAPMHI@?$AA_?$AAc?$AAf?$AAt?$AAo?$AAe?$AA_?$AAl?$AA?$AA@ 000000018005ac60     LIBCMTD:cvt.obj
 0002:00008c78       ??_C@_1BC@JOKPCIC@?$AA_?$AAc?$AAf?$AAt?$AAo?$AAa?$AA_?$AAl?$AA?$AA@ 000000018005ac78     LIBCMTD:cvt.obj
 0002:00008c90       ??_C@_1FC@IKIMAMJB@?$AAs?$AAi?$AAz?$AAe?$AAI?$AAn?$AAB?$AAy?$AAt?$AAe?$AAs?$AA?5?$AA?$DO?$AA?5?$AA?$CI?$AAs?$AAi?$AAz?$AAe?$AA_?$AAt?$AA?$CJ?$AA?$CI?$AA1?$AA?5?$AA?$CL?$AA?5?$AA4?$AA?5?$AA?$CL?$AA?5?$AAn@ 000000018005ac90     LIBCMTD:cvt.obj
 0002:00008ce8       ??_C@_1BE@CKPDLI@?$AA_?$AAc?$AAf?$AAt?$AAo?$AAf?$AA2?$AA_?$AAl?$AA?$AA@ 000000018005ace8     LIBCMTD:cvt.obj
 0002:00008d00       ??_C@_1BC@DCPPLJL@?$AA_?$AAc?$AAf?$AAt?$AAo?$AAf?$AA_?$AAl?$AA?$AA@ 000000018005ad00     LIBCMTD:cvt.obj
 0002:00008d18       ??_C@_1BC@MPIFPLAF@?$AA_?$AAc?$AAf?$AAt?$AAo?$AAg?$AA_?$AAl?$AA?$AA@ 000000018005ad18     LIBCMTD:cvt.obj
 0002:00008d30       _XcptActTab                000000018005ad30     LIBCMTD:winxfltr.obj
 0002:00008df0       _XcptActTabCount           000000018005adf0     LIBCMTD:winxfltr.obj
 0002:00008df4       _XcptActTabSize            000000018005adf4     LIBCMTD:winxfltr.obj
 0002:00008df8       _First_FPE_Indx            000000018005adf8     LIBCMTD:winxfltr.obj
 0002:00008dfc       _Num_FPE                   000000018005adfc     LIBCMTD:winxfltr.obj
 0002:00008e00       ??_C@_0CI@BIOGDJKL@f?3?2dd?2vctools?2crt?2crtw32?2lowio?2i@ 000000018005ae00     LIBCMTD:ioinit.obj
 0002:00008e28       ??_C@_0CL@OBKFGCKK@f?3?2dd?2vctools?2crt?2crtw32?2startup@ 000000018005ae28     LIBCMTD:stdargv.obj
 0002:00008e58       ??_C@_0CL@BJBFGFLH@f?3?2dd?2vctools?2crt?2crtw32?2startup@ 000000018005ae58     LIBCMTD:stdenvp.obj
 0002:00008e90       ??_C@_1FG@MHBLOJIO@?$AAf?$AA?3?$AA?2?$AAd?$AAd?$AA?2?$AAv?$AAc?$AAt?$AAo?$AAo?$AAl?$AAs?$AA?2?$AAc?$AAr?$AAt?$AA?2?$AAc?$AAr?$AAt?$AAw?$AA3?$AA2?$AA?2?$AAs?$AAt?$AAa?$AAr?$AAt?$AAu?$AAp@ 000000018005ae90     LIBCMTD:stdenvp.obj
 0002:00008ee8       ??_C@_1BC@GHMCNHHL@?$AA_?$AAs?$AAe?$AAt?$AAe?$AAn?$AAv?$AAp?$AA?$AA@ 000000018005aee8     LIBCMTD:stdenvp.obj
 0002:00008f00       ??_C@_1DE@MMOGFGHF@?$AAs?$AAt?$AAr?$AAc?$AAp?$AAy?$AA_?$AAs?$AA?$CI?$AA?$CK?$AAe?$AAn?$AAv?$AA?0?$AA?5?$AAc?$AAc?$AAh?$AAa?$AAr?$AAs?$AA?0?$AA?5?$AAp?$AA?$CJ?$AA?$AA@ 000000018005af00     LIBCMTD:stdenvp.obj
 0002:00008f38       ??_C@_0CG@NNNNMKLF@f?3?2dd?2vctools?2crt?2crtw32?2misc?2a_@ 000000018005af38     LIBCMTD:a_env.obj
 0002:00008f60       ??_C@_1BK@MGMFAEKH@?$AAk?$AAe?$AAr?$AAn?$AAe?$AAl?$AA3?$AA2?$AA?4?$AAd?$AAl?$AAl?$AA?$AA@ 000000018005af60     LIBCMTD:winapisupp.obj
 0002:00008f80       ??_C@_08KNHFBNJ@FlsAlloc?$AA@ 000000018005af80     LIBCMTD:winapisupp.obj
 0002:00008f90       ??_C@_07PEJMOBNF@FlsFree?$AA@ 000000018005af90     LIBCMTD:winapisupp.obj
 0002:00008f98       ??_C@_0M@GDNOONDI@FlsGetValue?$AA@ 000000018005af98     LIBCMTD:winapisupp.obj
 0002:00008fa8       ??_C@_0M@JCPCPOEF@FlsSetValue?$AA@ 000000018005afa8     LIBCMTD:winapisupp.obj
 0002:00008fb8       ??_C@_0BM@HCFOFFN@InitializeCriticalSectionEx?$AA@ 000000018005afb8     LIBCMTD:winapisupp.obj
 0002:00008fd8       ??_C@_0P@DLHPPCNH@CreateEventExW?$AA@ 000000018005afd8     LIBCMTD:winapisupp.obj
 0002:00008fe8       ??_C@_0BD@KIEEOEEH@CreateSemaphoreExW?$AA@ 000000018005afe8     LIBCMTD:winapisupp.obj
 0002:00009000       ??_C@_0BI@BKLFFAPO@SetThreadStackGuarantee?$AA@ 000000018005b000     LIBCMTD:winapisupp.obj
 0002:00009018       ??_C@_0BG@OGFAJCKC@CreateThreadpoolTimer?$AA@ 000000018005b018     LIBCMTD:winapisupp.obj
 0002:00009030       ??_C@_0BD@LPLEMMDI@SetThreadpoolTimer?$AA@ 000000018005b030     LIBCMTD:winapisupp.obj
 0002:00009048       ??_C@_0CA@FMNJENH@WaitForThreadpoolTimerCallbacks?$AA@ 000000018005b048     LIBCMTD:winapisupp.obj
 0002:00009068       ??_C@_0BF@DCFCCNOC@CloseThreadpoolTimer?$AA@ 000000018005b068     LIBCMTD:winapisupp.obj
 0002:00009080       ??_C@_0BF@FLABGKKM@CreateThreadpoolWait?$AA@ 000000018005b080     LIBCMTD:winapisupp.obj
 0002:00009098       ??_C@_0BC@MGCOHNA@SetThreadpoolWait?$AA@ 000000018005b098     LIBCMTD:winapisupp.obj
 0002:000090b0       ??_C@_0BE@OCIOMIMP@CloseThreadpoolWait?$AA@ 000000018005b0b0     LIBCMTD:winapisupp.obj
 0002:000090c8       ??_C@_0BJ@LKGHFHBO@FlushProcessWriteBuffers?$AA@ 000000018005b0c8     LIBCMTD:winapisupp.obj
 0002:000090e8       ??_C@_0BP@KALKKPMO@FreeLibraryWhenCallbackReturns?$AA@ 000000018005b0e8     LIBCMTD:winapisupp.obj
 0002:00009108       ??_C@_0BK@DFNBACLA@GetCurrentProcessorNumber?$AA@ 000000018005b108     LIBCMTD:winapisupp.obj
 0002:00009128       ??_C@_0BP@KHGALBC@GetLogicalProcessorInformation?$AA@ 000000018005b128     LIBCMTD:winapisupp.obj
 0002:00009148       ??_C@_0BE@FKKLLFLM@CreateSymbolicLinkW?$AA@ 000000018005b148     LIBCMTD:winapisupp.obj
 0002:00009160       ??_C@_0BJ@OHNKDLIJ@SetDefaultDllDirectories?$AA@ 000000018005b160     LIBCMTD:winapisupp.obj
 0002:00009180       ??_C@_0BE@LJANKFHF@EnumSystemLocalesEx?$AA@ 000000018005b180     LIBCMTD:winapisupp.obj
 0002:00009198       ??_C@_0BA@IHGNDAEB@CompareStringEx?$AA@ 000000018005b198     LIBCMTD:winapisupp.obj
 0002:000091a8       ??_C@_0BA@EPCJIIPD@GetDateFormatEx?$AA@ 000000018005b1a8     LIBCMTD:winapisupp.obj
 0002:000091b8       ??_C@_0BA@ONOKGCMP@GetLocaleInfoEx?$AA@ 000000018005b1b8     LIBCMTD:winapisupp.obj
 0002:000091c8       ??_C@_0BA@CIJJKCJJ@GetTimeFormatEx?$AA@ 000000018005b1c8     LIBCMTD:winapisupp.obj
 0002:000091d8       ??_C@_0BJ@PBCCBIPI@GetUserDefaultLocaleName?$AA@ 000000018005b1d8     LIBCMTD:winapisupp.obj
 0002:000091f8       ??_C@_0BC@CELBKLLA@IsValidLocaleName?$AA@ 000000018005b1f8     LIBCMTD:winapisupp.obj
 0002:00009210       ??_C@_0O@KKBNKAPF@LCMapStringEx?$AA@ 000000018005b210     LIBCMTD:winapisupp.obj
 0002:00009220       ??_C@_0BE@JOGNEJCI@GetCurrentPackageId?$AA@ 000000018005b220     LIBCMTD:winapisupp.obj
 0002:00009238       ??_C@_0P@CDHHOHKP@GetTickCount64?$AA@ 000000018005b238     LIBCMTD:winapisupp.obj
 0002:00009248       ??_C@_0BO@KPCLFDJJ@GetFileInformationByHandleExW?$AA@ 000000018005b248     LIBCMTD:winapisupp.obj
 0002:00009268       ??_C@_0BM@MHIDLABK@SetFileInformationByHandleW?$AA@ 000000018005b268     LIBCMTD:winapisupp.obj
 0002:00009288       ??_C@_0CJ@LPLBAFNO@f?3?2dd?2vctools?2crt?2crtw32?2startup@ 000000018005b288     LIBCMTD:mlock.obj
 0002:000092c0       ??_C@_1FA@PPLJBGMP@?$AAf?$AA?3?$AA?2?$AAd?$AAd?$AA?2?$AAv?$AAc?$AAt?$AAo?$AAo?$AAl?$AAs?$AA?2?$AAc?$AAr?$AAt?$AA?2?$AAc?$AAr?$AAt?$AAw?$AA3?$AA2?$AA?2?$AAm?$AAi?$AAs?$AAc?$AA?2?$AAd?$AAb@ 000000018005b2c0     LIBCMTD:dbgrptt.obj
 0002:00009310       ??_C@_1CA@KHJHLKA@?$AA_?$AAV?$AAC?$AAr?$AAt?$AAD?$AAb?$AAg?$AAR?$AAe?$AAp?$AAo?$AAr?$AAt?$AAA?$AA?$AA@ 000000018005b310     LIBCMTD:dbgrptt.obj
 0002:00009330       ??_C@_1FA@JPHJBHEM@?$AA_?$AAi?$AAt?$AAo?$AAa?$AA_?$AAs?$AA?$CI?$AAn?$AAL?$AAi?$AAn?$AAe?$AA?0?$AA?5?$AAs?$AAz?$AAL?$AAi?$AAn?$AAe?$AAM?$AAe?$AAs?$AAs?$AAa?$AAg?$AAe?$AA?0?$AA?5?$AA4?$AA0@ 000000018005b330     LIBCMTD:dbgrptt.obj
 0002:00009380       ??_C@_0CG@BNGLOCEO@Second?5Chance?5Assertion?5Failed?3?5@ 000000018005b380     LIBCMTD:dbgrptt.obj
 0002:000093a8       ??_C@_0P@DFJNDPOP@?$DMfile?5unknown?$DO?$AA@ 000000018005b3a8     LIBCMTD:dbgrptt.obj
 0002:000093b8       ??_C@_07BHGABMGB@?0?5Line?5?$AA@ 000000018005b3b8     LIBCMTD:dbgrptt.obj
 0002:000093c0       ??_C@_01EEMJAFIK@?6?$AA@   000000018005b3c0     LIBCMTD:dbgrptt.obj
 0002:000093d0       ??_C@_1JI@GAALPGBM@?$AAs?$AAt?$AAr?$AAc?$AAp?$AAy?$AA_?$AAs?$AA?$CI?$AAs?$AAz?$AAU?$AAs?$AAe?$AAr?$AAM?$AAe?$AAs?$AAs?$AAa?$AAg?$AAe?$AA?0?$AA?5?$AA4?$AA0?$AA9?$AA6?$AA?0?$AA?5?$AA?$CC?$AA_@ 000000018005b3d0     LIBCMTD:dbgrptt.obj
 0002:00009468       ??_C@_0CL@EACFGMNB@_CrtDbgReport?3?5String?5too?5long?5o@ 000000018005b468     LIBCMTD:dbgrptt.obj
 0002:000094a0       ??_C@_1KK@GIGAEDMO@?$AAs?$AAt?$AAr?$AAc?$AAp?$AAy?$AA_?$AAs?$AA?$CI?$AAs?$AAz?$AAL?$AAi?$AAn?$AAe?$AAM?$AAe?$AAs?$AAs?$AAa?$AAg?$AAe?$AA?0?$AA?5?$AA4?$AA0?$AA9?$AA6?$AA?0?$AA?5?$AAs?$AAz@ 000000018005b4a0     LIBCMTD:dbgrptt.obj
 0002:00009550       ??_C@_0BD@CAENFOHP@Assertion?5failed?3?5?$AA@ 000000018005b550     LIBCMTD:dbgrptt.obj
 0002:00009568       ??_C@_0BC@LAIDCHCH@Assertion?5failed?$CB?$AA@ 000000018005b568     LIBCMTD:dbgrptt.obj
 0002:00009580       ??_C@_1FK@NPGBPOFO@?$AAs?$AAt?$AAr?$AAc?$AAa?$AAt?$AA_?$AAs?$AA?$CI?$AAs?$AAz?$AAL?$AAi?$AAn?$AAe?$AAM?$AAe?$AAs?$AAs?$AAa?$AAg?$AAe?$AA?0?$AA?5?$AA4?$AA0?$AA9?$AA6?$AA?0?$AA?5?$AAs?$AAz@ 000000018005b580     LIBCMTD:dbgrptt.obj
 0002:000095e0       ??_C@_1EI@CACDLAFK@?$AAs?$AAt?$AAr?$AAc?$AAa?$AAt?$AA_?$AAs?$AA?$CI?$AAs?$AAz?$AAL?$AAi?$AAn?$AAe?$AAM?$AAe?$AAs?$AAs?$AAa?$AAg?$AAe?$AA?0?$AA?5?$AA4?$AA0?$AA9?$AA6?$AA?0?$AA?5?$AA?$CC?$AA?2@ 000000018005b5e0     LIBCMTD:dbgrptt.obj
 0002:00009628       ??_C@_01LIIJDEN@?$AN?$AA@  000000018005b628     LIBCMTD:dbgrptt.obj
 0002:00009630       ??_C@_1EI@LDHJEDO@?$AAs?$AAt?$AAr?$AAc?$AAa?$AAt?$AA_?$AAs?$AA?$CI?$AAs?$AAz?$AAL?$AAi?$AAn?$AAe?$AAM?$AAe?$AAs?$AAs?$AAa?$AAg?$AAe?$AA?0?$AA?5?$AA4?$AA0?$AA9?$AA6?$AA?0?$AA?5?$AA?$CC?$AA?2@ 000000018005b630     LIBCMTD:dbgrptt.obj
 0002:00009678       ??_C@_0M@IPILFDFN@?$CFs?$CI?$CFd?$CJ?5?3?5?$CFs?$AA@ 000000018005b678     LIBCMTD:dbgrptt.obj
 0002:00009690       ??_C@_1JG@CPKCIOEE@?$AAs?$AAt?$AAr?$AAc?$AAp?$AAy?$AA_?$AAs?$AA?$CI?$AAs?$AAz?$AAO?$AAu?$AAt?$AAM?$AAe?$AAs?$AAs?$AAa?$AAg?$AAe?$AA?0?$AA?5?$AA4?$AA0?$AA9?$AA6?$AA?0?$AA?5?$AA?$CC?$AA_?$AAC@ 000000018005b690     LIBCMTD:dbgrptt.obj
 0002:00009730       ??_C@_1FI@IBIOIHEG@?$AAs?$AAt?$AAr?$AAc?$AAp?$AAy?$AA_?$AAs?$AA?$CI?$AAs?$AAz?$AAO?$AAu?$AAt?$AAM?$AAe?$AAs?$AAs?$AAa?$AAg?$AAe?$AA?0?$AA?5?$AA4?$AA0?$AA9?$AA6?$AA?0?$AA?5?$AAs?$AAz?$AAL@ 000000018005b730     LIBCMTD:dbgrptt.obj
 0002:00009790       ??_C@_1IM@OOKIFKOH@?$AAe?$AA?5?$AA?$DN?$AA?5?$AAm?$AAb?$AAs?$AAt?$AAo?$AAw?$AAc?$AAs?$AA_?$AAs?$AA?$CI?$AA?$CG?$AAr?$AAe?$AAt?$AA?0?$AA?5?$AAs?$AAz?$AAO?$AAu?$AAt?$AAM?$AAe?$AAs?$AAs?$AAa?$AAg@ 000000018005b790     LIBCMTD:dbgrptt.obj
 0002:00009820       ??_C@_1MC@IGEECMDB@?$AAw?$AAc?$AAs?$AAc?$AAp?$AAy?$AA_?$AAs?$AA?$CI?$AAs?$AAz?$AAO?$AAu?$AAt?$AAM?$AAe?$AAs?$AAs?$AAa?$AAg?$AAe?$AA2?$AA?0?$AA?5?$AA4?$AA0?$AA9?$AA6?$AA?0?$AA?5?$AAL?$AA?$CC@ 000000018005b820     LIBCMTD:dbgrptt.obj
 0002:000098f0       ??_C@_1HO@PJOFIKFE@?$AA_?$AAC?$AAr?$AAt?$AAD?$AAb?$AAg?$AAR?$AAe?$AAp?$AAo?$AAr?$AAt?$AA?3?$AA?5?$AAS?$AAt?$AAr?$AAi?$AAn?$AAg?$AA?5?$AAt?$AAo?$AAo?$AA?5?$AAl?$AAo?$AAn?$AAg?$AA?5?$AAo@ 000000018005b8f0     LIBCMTD:dbgrptt.obj
 0002:00009970       ??_C@_1CA@HPALHDOD@?$AA_?$AAV?$AAC?$AAr?$AAt?$AAD?$AAb?$AAg?$AAR?$AAe?$AAp?$AAo?$AAr?$AAt?$AAW?$AA?$AA@ 000000018005b970     LIBCMTD:dbgrptt.obj
 0002:00009990       ??_C@_1FA@CNLLOMHI@?$AA_?$AAi?$AAt?$AAo?$AAw?$AA_?$AAs?$AA?$CI?$AAn?$AAL?$AAi?$AAn?$AAe?$AA?0?$AA?5?$AAs?$AAz?$AAL?$AAi?$AAn?$AAe?$AAM?$AAe?$AAs?$AAs?$AAa?$AAg?$AAe?$AA?0?$AA?5?$AA4?$AA0@ 000000018005b990     LIBCMTD:dbgrptt.obj
 0002:000099e0       ??_C@_1EM@MJFLEDMB@?$AAS?$AAe?$AAc?$AAo?$AAn?$AAd?$AA?5?$AAC?$AAh?$AAa?$AAn?$AAc?$AAe?$AA?5?$AAA?$AAs?$AAs?$AAe?$AAr?$AAt?$AAi?$AAo?$AAn?$AA?5?$AAF?$AAa?$AAi?$AAl?$AAe?$AAd?$AA?3?$AA?5@ 000000018005b9e0     LIBCMTD:dbgrptt.obj
 0002:00009a30       ??_C@_1BO@OCHMLCAG@?$AA?$DM?$AAf?$AAi?$AAl?$AAe?$AA?5?$AAu?$AAn?$AAk?$AAn?$AAo?$AAw?$AAn?$AA?$DO?$AA?$AA@ 000000018005ba30     LIBCMTD:dbgrptt.obj
 0002:00009a50       ??_C@_1BA@ELMMDCFC@?$AA?0?$AA?5?$AAL?$AAi?$AAn?$AAe?$AA?5?$AA?$AA@ 000000018005ba50     LIBCMTD:dbgrptt.obj
 0002:00009a60       ??_C@_1JK@KHFABAEO@?$AAw?$AAc?$AAs?$AAc?$AAp?$AAy?$AA_?$AAs?$AA?$CI?$AAs?$AAz?$AAU?$AAs?$AAe?$AAr?$AAM?$AAe?$AAs?$AAs?$AAa?$AAg?$AAe?$AA?0?$AA?5?$AA4?$AA0?$AA9?$AA6?$AA?0?$AA?5?$AAL?$AA?$CC@ 000000018005ba60     LIBCMTD:dbgrptt.obj
 0002:00009b00       ??_C@_1KO@DGAHENCH@?$AAw?$AAc?$AAs?$AAc?$AAp?$AAy?$AA_?$AAs?$AA?$CI?$AAs?$AAz?$AAL?$AAi?$AAn?$AAe?$AAM?$AAe?$AAs?$AAs?$AAa?$AAg?$AAe?$AA?0?$AA?5?$AA4?$AA0?$AA9?$AA6?$AA?0?$AA?5?$AAs?$AAz@ 000000018005bb00     LIBCMTD:dbgrptt.obj
 0002:00009bb0       ??_C@_1CG@FFFGGODN@?$AAA?$AAs?$AAs?$AAe?$AAr?$AAt?$AAi?$AAo?$AAn?$AA?5?$AAf?$AAa?$AAi?$AAl?$AAe?$AAd?$AA?3?$AA?5?$AA?$AA@ 000000018005bbb0     LIBCMTD:dbgrptt.obj
 0002:00009be0       ??_C@_1FK@HPADHBBD@?$AAw?$AAc?$AAs?$AAc?$AAa?$AAt?$AA_?$AAs?$AA?$CI?$AAs?$AAz?$AAL?$AAi?$AAn?$AAe?$AAM?$AAe?$AAs?$AAs?$AAa?$AAg?$AAe?$AA?0?$AA?5?$AA4?$AA0?$AA9?$AA6?$AA?0?$AA?5?$AAs?$AAz@ 000000018005bbe0     LIBCMTD:dbgrptt.obj
 0002:00009c40       ??_C@_1EK@NMDFGHMF@?$AAw?$AAc?$AAs?$AAc?$AAa?$AAt?$AA_?$AAs?$AA?$CI?$AAs?$AAz?$AAL?$AAi?$AAn?$AAe?$AAM?$AAe?$AAs?$AAs?$AAa?$AAg?$AAe?$AA?0?$AA?5?$AA4?$AA0?$AA9?$AA6?$AA?0?$AA?5?$AAL?$AA?$CC@ 000000018005bc40     LIBCMTD:dbgrptt.obj
 0002:00009c8c       ??_C@_13CMNBPIDO@?$AA?$AN?$AA?$AA@ 000000018005bc8c     LIBCMTD:dbgrptt.obj
 0002:00009c90       ??_C@_1EK@PHCBEDKB@?$AAw?$AAc?$AAs?$AAc?$AAa?$AAt?$AA_?$AAs?$AA?$CI?$AAs?$AAz?$AAL?$AAi?$AAn?$AAe?$AAM?$AAe?$AAs?$AAs?$AAa?$AAg?$AAe?$AA?0?$AA?5?$AA4?$AA0?$AA9?$AA6?$AA?0?$AA?5?$AAL?$AA?$CC@ 000000018005bc90     LIBCMTD:dbgrptt.obj
 0002:00009ce0       ??_C@_1BI@JIDBEPIG@?$AA?$CF?$AAs?$AA?$CI?$AA?$CF?$AAd?$AA?$CJ?$AA?5?$AA?3?$AA?5?$AA?$CF?$AAs?$AA?$AA@ 000000018005bce0     LIBCMTD:dbgrptt.obj
 0002:00009d00       ??_C@_1FI@DBAIJPJE@?$AAw?$AAc?$AAs?$AAc?$AAp?$AAy?$AA_?$AAs?$AA?$CI?$AAs?$AAz?$AAO?$AAu?$AAt?$AAM?$AAe?$AAs?$AAs?$AAa?$AAg?$AAe?$AA?0?$AA?5?$AA4?$AA0?$AA9?$AA6?$AA?0?$AA?5?$AAs?$AAz?$AAL@ 000000018005bd00     LIBCMTD:dbgrptt.obj
 0002:00009d60       ??_C@_1JC@EOAPFDLN@?$AAw?$AAc?$AAs?$AAt?$AAo?$AAm?$AAb?$AAs?$AA_?$AAs?$AA?$CI?$AA?$CI?$AA?$CI?$AAv?$AAo?$AAi?$AAd?$AA?5?$AA?$CK?$AA?$CJ?$AA0?$AA?$CJ?$AA?0?$AA?5?$AAs?$AAz?$AAO?$AAu?$AAt?$AAM?$AAe?$AAs@ 000000018005bd60     LIBCMTD:dbgrptt.obj
 0002:00009e00       ??_C@_1MA@LBAMNNOB@?$AAs?$AAt?$AAr?$AAc?$AAp?$AAy?$AA_?$AAs?$AA?$CI?$AAs?$AAz?$AAO?$AAu?$AAt?$AAM?$AAe?$AAs?$AAs?$AAa?$AAg?$AAe?$AA2?$AA?0?$AA?5?$AA4?$AA0?$AA9?$AA6?$AA?0?$AA?5?$AA?$CC?$AA_@ 000000018005be00     LIBCMTD:dbgrptt.obj
 0002:00009ec0       ??_C@_0DP@GNPEPHJD@_CrtDbgReport?3?5String?5too?5long?5o@ 000000018005bec0     LIBCMTD:dbgrptt.obj
 0002:00009f00       ??_C@_1IE@CPGKIAGP@?$AAw?$AAc?$AAs?$AAt?$AAo?$AAm?$AAb?$AAs?$AA_?$AAs?$AA?$CI?$AA?$CG?$AAr?$AAe?$AAt?$AA?0?$AA?5?$AAs?$AAz?$AAa?$AAO?$AAu?$AAt?$AAM?$AAe?$AAs?$AAs?$AAa?$AAg?$AAe?$AA?0?$AA?5@ 000000018005bf00     LIBCMTD:dbgrptt.obj
 0002:00009f90       ??_C@_1FC@LGKDBMCL@?$AAf?$AA?3?$AA?2?$AAd?$AAd?$AA?2?$AAv?$AAc?$AAt?$AAo?$AAo?$AAl?$AAs?$AA?2?$AAc?$AAr?$AAt?$AA?2?$AAc?$AAr?$AAt?$AAw?$AA3?$AA2?$AA?2?$AAs?$AAt?$AAd?$AAi?$AAo?$AA?2?$AA_@ 000000018005bf90     LIBCMTD:_getbuf.obj
 0002:00009fe8       ??_C@_0CJ@NMDFOMAF@f?3?2dd?2vctools?2crt?2crtw32?2stdio?2_@ 000000018005bfe8     LIBCMTD:_getbuf.obj
 0002:0000a020       ??_C@_1FA@NFCHPDNG@?$AAf?$AA?3?$AA?2?$AAd?$AAd?$AA?2?$AAv?$AAc?$AAt?$AAo?$AAo?$AAl?$AAs?$AA?2?$AAc?$AAr?$AAt?$AA?2?$AAc?$AAr?$AAt?$AAw?$AA3?$AA2?$AA?2?$AAl?$AAo?$AAw?$AAi?$AAo?$AA?2?$AAi@ 000000018005c020     LIBCMTD:isatty.obj
 0002:0000a070       ??_C@_1BA@LEBDGIHM@?$AA_?$AAi?$AAs?$AAa?$AAt?$AAt?$AAy?$AA?$AA@ 000000018005c070     LIBCMTD:isatty.obj
 0002:0000a080       ??_C@_1FC@BEKMGBFL@?$AAf?$AA?3?$AA?2?$AAd?$AAd?$AA?2?$AAv?$AAc?$AAt?$AAo?$AAo?$AAl?$AAs?$AA?2?$AAc?$AAr?$AAt?$AA?2?$AAc?$AAr?$AAt?$AAw?$AA3?$AA2?$AA?2?$AAl?$AAo?$AAw?$AAi?$AAo?$AA?2?$AAo@ 000000018005c080     LIBCMTD:osfinfo.obj
 0002:0000a0d8       ??_C@_1BO@EMBOBGKE@?$AA_?$AAg?$AAe?$AAt?$AA_?$AAo?$AAs?$AAf?$AAh?$AAa?$AAn?$AAd?$AAl?$AAe?$AA?$AA@ 000000018005c0d8     LIBCMTD:osfinfo.obj
 0002:0000a100       ??_C@_1FE@NDDOFCDF@?$AAf?$AA?3?$AA?2?$AAd?$AAd?$AA?2?$AAv?$AAc?$AAt?$AAo?$AAo?$AAl?$AAs?$AA?2?$AAc?$AAr?$AAt?$AA?2?$AAc?$AAr?$AAt?$AAw?$AA3?$AA2?$AA?2?$AAl?$AAo?$AAw?$AAi?$AAo?$AA?2?$AAl@ 000000018005c100     LIBCMTD:lseeki64.obj
 0002:0000a158       ??_C@_1BE@KHFBJMNM@?$AA_?$AAl?$AAs?$AAe?$AAe?$AAk?$AAi?$AA6?$AA4?$AA?$AA@ 000000018005c158     LIBCMTD:lseeki64.obj
 0002:0000a170       ??_C@_1HC@KFLBHHBC@?$AA?$CI?$AAf?$AAi?$AAl?$AAe?$AAd?$AAe?$AAs?$AA?5?$AA?$DO?$AA?$DN?$AA?5?$AA0?$AA?5?$AA?$CG?$AA?$CG?$AA?5?$AA?$CI?$AAu?$AAn?$AAs?$AAi?$AAg?$AAn?$AAe?$AAd?$AA?$CJ?$AAf?$AAi?$AAl?$AAe?$AAd@ 000000018005c170     LIBCMTD:commit.obj
 0002:0000a1f0       ??_C@_1FA@HELGICMG@?$AAf?$AA?3?$AA?2?$AAd?$AAd?$AA?2?$AAv?$AAc?$AAt?$AAo?$AAo?$AAl?$AAs?$AA?2?$AAc?$AAr?$AAt?$AA?2?$AAc?$AAr?$AAt?$AAw?$AA3?$AA2?$AA?2?$AAl?$AAo?$AAw?$AAi?$AAo?$AA?2?$AAc@ 000000018005c1f0     LIBCMTD:commit.obj
 0002:0000a240       ??_C@_1BA@FLNMBBIM@?$AA_?$AAc?$AAo?$AAm?$AAm?$AAi?$AAt?$AA?$AA@ 000000018005c240     LIBCMTD:commit.obj
 0002:0000a250       ??_C@_1DG@LNNHNFHJ@?$AA?$CI?$AA_?$AAo?$AAs?$AAf?$AAi?$AAl?$AAe?$AA?$CI?$AAf?$AAi?$AAl?$AAe?$AAd?$AAe?$AAs?$AA?$CJ?$AA?5?$AA?$CG?$AA?5?$AAF?$AAO?$AAP?$AAE?$AAN?$AA?$CJ?$AA?$AA@ 000000018005c250     LIBCMTD:commit.obj
 0002:0000a290       ??_C@_1EO@NLGPLDCN@?$AAf?$AA?3?$AA?2?$AAd?$AAd?$AA?2?$AAv?$AAc?$AAt?$AAo?$AAo?$AAl?$AAs?$AA?2?$AAc?$AAr?$AAt?$AA?2?$AAc?$AAr?$AAt?$AAw?$AA3?$AA2?$AA?2?$AAl?$AAo?$AAw?$AAi?$AAo?$AA?2?$AAw@ 000000018005c290     LIBCMTD:write.obj
 0002:0000a2e0       ??_C@_1O@KOFKDHPL@?$AA_?$AAw?$AAr?$AAi?$AAt?$AAe?$AA?$AA@ 000000018005c2e0     LIBCMTD:write.obj
 0002:0000a2f0       ??_C@_1BM@KFJLMBPG@?$AA?$CI?$AAb?$AAu?$AAf?$AA?5?$AA?$CB?$AA?$DN?$AA?5?$AAN?$AAU?$AAL?$AAL?$AA?$CJ?$AA?$AA@ 000000018005c2f0     LIBCMTD:write.obj
 0002:0000a310       ??_C@_1BM@NCANHCIP@?$AA_?$AAw?$AAr?$AAi?$AAt?$AAe?$AA_?$AAn?$AAo?$AAl?$AAo?$AAc?$AAk?$AA?$AA@ 000000018005c310     LIBCMTD:write.obj
 0002:0000a330       ??_C@_1DI@CNMHHHLG@?$AAi?$AAs?$AAl?$AAe?$AAa?$AAd?$AAb?$AAy?$AAt?$AAe?$AA?$CI?$AA_?$AAd?$AAb?$AAc?$AAs?$AAB?$AAu?$AAf?$AAf?$AAe?$AAr?$AA?$CI?$AAf?$AAh?$AA?$CJ?$AA?$CJ?$AA?$AA@ 000000018005c330     LIBCMTD:write.obj
 0002:0000a380       ??_C@_1BO@KFIJIAEA@?$AAp?$AAB?$AAl?$AAo?$AAc?$AAk?$AA?5?$AA?$CB?$AA?$DN?$AA?5?$AAN?$AAU?$AAL?$AAL?$AA?$AA@ 000000018005c380     LIBCMTD:expand.obj
 0002:0000a3a0       ??_C@_1EO@BOMKIKJB@?$AAf?$AA?3?$AA?2?$AAd?$AAd?$AA?2?$AAv?$AAc?$AAt?$AAo?$AAo?$AAl?$AAs?$AA?2?$AAc?$AAr?$AAt?$AA?2?$AAc?$AAr?$AAt?$AAw?$AA3?$AA2?$AA?2?$AAh?$AAe?$AAa?$AAp?$AA?2?$AAe?$AAx@ 000000018005c3a0     LIBCMTD:expand.obj
 0002:0000a3f0       ??_C@_1BK@JMCGJOCC@?$AA_?$AAe?$AAx?$AAp?$AAa?$AAn?$AAd?$AA_?$AAb?$AAa?$AAs?$AAe?$AA?$AA@ 000000018005c3f0     LIBCMTD:expand.obj
 0002:0000a428       ??_C@_03KHICJKCI@?4?4?4?$AA@ 000000018005c428     LIBCMTD:dbgrpt.obj
 0002:0000a430       ??_C@_1CI@IDOKFLAJ@?$AA_?$AA_?$AAc?$AAr?$AAt?$AAM?$AAe?$AAs?$AAs?$AAa?$AAg?$AAe?$AAW?$AAi?$AAn?$AAd?$AAo?$AAw?$AAA?$AA?$AA@ 000000018005c430     LIBCMTD:dbgrpt.obj
 0002:0000a460       ??_C@_1GG@DLDHOIGE@?$AAs?$AAt?$AAr?$AAc?$AAp?$AAy?$AA_?$AAs?$AA?$CI?$AAs?$AAz?$AAE?$AAx?$AAe?$AAN?$AAa?$AAm?$AAe?$AA?0?$AA?5?$AA2?$AA6?$AA0?$AA?0?$AA?5?$AA?$CC?$AA?$DM?$AAp?$AAr?$AAo?$AAg?$AAr@ 000000018005c460     LIBCMTD:dbgrpt.obj
 0002:0000a4c8       ??_C@_0BH@DNAGHKFM@?$DMprogram?5name?5unknown?$DO?$AA@ 000000018005c4c8     LIBCMTD:dbgrpt.obj
 0002:0000a4df       ??_C@_00CNPNBAHC@?$AA@     000000018005c4df     LIBCMTD:dbgrpt.obj
 0002:0000a4e0       ??_C@_1LG@BEHAHJLI@?$AAD?$AAe?$AAb?$AAu?$AAg?$AA?5?$AA?$CF?$AAs?$AA?$CB?$AA?6?$AA?6?$AAP?$AAr?$AAo?$AAg?$AAr?$AAa?$AAm?$AA?3?$AA?5?$AA?$CF?$AAh?$AAs?$AA?$CF?$AAs?$AA?$CF?$AAs?$AA?$CF?$AAh?$AAs?$AA?$CF?$AAs@ 000000018005c4e0     LIBCMTD:dbgrpt.obj
 0002:0000a5a0       ??_C@_1FE@KNPCCODH@?$AA?$CI?$AA?$CC?$AAC?$AAo?$AAr?$AAr?$AAu?$AAp?$AAt?$AAe?$AAd?$AA?5?$AAp?$AAo?$AAi?$AAn?$AAt?$AAe?$AAr?$AA?5?$AAp?$AAa?$AAs?$AAs?$AAe?$AAd?$AA?5?$AAt?$AAo?$AA?5?$AA_?$AAf@ 000000018005c5a0     LIBCMTD:a_map.obj
 0002:0000a600       ??_C@_1EI@DKDOCKPJ@?$AAf?$AA?3?$AA?2?$AAd?$AAd?$AA?2?$AAv?$AAc?$AAt?$AAo?$AAo?$AAl?$AAs?$AA?2?$AAc?$AAr?$AAt?$AA?2?$AAc?$AAr?$AAt?$AAw?$AA3?$AA2?$AA?2?$AAh?$AA?2?$AAm?$AAa?$AAl?$AAl?$AAo@ 000000018005c600     LIBCMTD:a_map.obj
 0002:0000a648       _pDestructExceptionObject  000000018005c648     LIBCMTD:frame.obj
 0002:0000a658       ??_7bad_exception@std@@6B@ 000000018005c658     LIBCMTD:frame.obj
 0002:0000a668       ??_C@_0O@DPKOEFFH@bad?5exception?$AA@ 000000018005c668     LIBCMTD:frame.obj
 0002:0000a680       __newctype                 000000018005c680     LIBCMTD:ctype.obj
 0002:0000a980       _wctype                    000000018005c980     LIBCMTD:ctype.obj
 0002:0000ab90       __newclmap                 000000018005cb90     LIBCMTD:ctype.obj
 0002:0000ad10       __newcumap                 000000018005cd10     LIBCMTD:ctype.obj
 0002:0000ae90       ??_C@_1FC@LFLBLJJB@?$AAf?$AA?3?$AA?2?$AAd?$AAd?$AA?2?$AAv?$AAc?$AAt?$AAo?$AAo?$AAl?$AAs?$AA?2?$AAc?$AAr?$AAt?$AA?2?$AAc?$AAr?$AAt?$AAw?$AA3?$AA2?$AA?2?$AAh?$AA?2?$AAt?$AAc?$AAs?$AAn?$AAc@ 000000018005ce90     LIBCMTD:wcsncpy_s.obj
 0002:0000aee8       ??_C@_1BE@PMMBFFCC@?$AAw?$AAc?$AAs?$AAn?$AAc?$AAp?$AAy?$AA_?$AAs?$AA?$AA@ 000000018005cee8     LIBCMTD:wcsncpy_s.obj
 0002:0000aefc       ??_C@_15PJPFLCCM@?$AAu?$AAk?$AA?$AA@ 000000018005cefc     LIBCMTD:getqloc.obj
 0002:0000af04       __rg_language_count        000000018005cf04     LIBCMTD:getqloc.obj
 0002:0000af08       __rg_country_count         000000018005cf08     LIBCMTD:getqloc.obj
 0002:0000af10       LcidToLocaleNameTable      000000018005cf10     LIBCMTD:winapinls.obj
 0002:0000bd50       LocaleNameToIndexTable     000000018005dd50     LIBCMTD:winapinls.obj
 0002:0000cb90       ??_C@_15EMKDOKLE@?$AAa?$AAr?$AA?$AA@ 000000018005eb90     LIBCMTD:winapinls.obj
 0002:0000cb98       ??_C@_15KNPADPLH@?$AAb?$AAg?$AA?$AA@ 000000018005eb98     LIBCMTD:winapinls.obj
 0002:0000cba0       ??_C@_15EDMHLDMO@?$AAc?$AAa?$AA?$AA@ 000000018005eba0     LIBCMTD:winapinls.obj
 0002:0000cba8       ??_C@_1O@BPEAJADD@?$AAz?$AAh?$AA?9?$AAC?$AAH?$AAS?$AA?$AA@ 000000018005eba8     LIBCMTD:winapinls.obj
 0002:0000cbb8       ??_C@_15LJNHCMNK@?$AAc?$AAs?$AA?$AA@ 000000018005ebb8     LIBCMTD:winapinls.obj
 0002:0000cbc0       ??_C@_15FOMCIDHG@?$AAd?$AAa?$AA?$AA@ 000000018005ebc0     LIBCMTD:winapinls.obj
 0002:0000cbc8       ??_C@_15NBKABECB@?$AAd?$AAe?$AA?$AA@ 000000018005ebc8     LIBCMTD:winapinls.obj
 0002:0000cbd0       ??_C@_15GHPEIIAO@?$AAe?$AAl?$AA?$AA@ 000000018005ebd0     LIBCMTD:winapinls.obj
 0002:0000cbd8       ??_C@_15MNPNEAIF@?$AAe?$AAn?$AA?$AA@ 000000018005ebd8     LIBCMTD:winapinls.obj
 0002:0000cbe0       ??_C@_15GPIOMPMH@?$AAe?$AAs?$AA?$AA@ 000000018005ebe0     LIBCMTD:winapinls.obj
 0002:0000cbe8       ??_C@_15NGLOAKJC@?$AAf?$AAi?$AA?$AA@ 000000018005ebe8     LIBCMTD:winapinls.obj
 0002:0000cbf0       ??_C@_15FBKGNKAM@?$AAf?$AAr?$AA?$AA@ 000000018005ebf0     LIBCMTD:winapinls.obj
 0002:0000cbf8       ??_C@_15KGGCNEFK@?$AAh?$AAe?$AA?$AA@ 000000018005ebf8     LIBCMTD:winapinls.obj
 0002:0000cc00       ??_C@_15PGHLIDMF@?$AAh?$AAu?$AA?$AA@ 000000018005ec00     LIBCMTD:winapinls.obj
 0002:0000cc08       ??_C@_15BIEMAPLM@?$AAi?$AAs?$AA?$AA@ 000000018005ec08     LIBCMTD:winapinls.obj
 0002:0000cc10       ??_C@_15IFJLDHAF@?$AAi?$AAt?$AA?$AA@ 000000018005ec10     LIBCMTD:winapinls.obj
 0002:0000cc18       ??_C@_15GEMIOCAG@?$AAj?$AAa?$AA?$AA@ 000000018005ec18     LIBCMTD:winapinls.obj
 0002:0000cc20       ??_C@_15EPELEGJA@?$AAk?$AAo?$AA?$AA@ 000000018005ec20     LIBCMTD:winapinls.obj
 0002:0000cc28       ??_C@_15NDDHIMN@?$AAn?$AAl?$AA?$AA@ 000000018005ec28     LIBCMTD:winapinls.obj
 0002:0000cc30       ??_C@_15BPIGNHCD@?$AAn?$AAo?$AA?$AA@ 000000018005ec30     LIBCMTD:winapinls.obj
 0002:0000cc38       ??_C@_15DEOPBLCG@?$AAp?$AAl?$AA?$AA@ 000000018005ec38     LIBCMTD:winapinls.obj
 0002:0000cc40       ??_C@_15KBECGEFG@?$AAp?$AAt?$AA?$AA@ 000000018005ec40     LIBCMTD:winapinls.obj
 0002:0000cc48       ??_C@_15GLJCBFMD@?$AAr?$AAo?$AA?$AA@ 000000018005ec48     LIBCMTD:winapinls.obj
 0002:0000cc50       ??_C@_15FEDGKCDI@?$AAr?$AAu?$AA?$AA@ 000000018005ec50     LIBCMTD:winapinls.obj
 0002:0000cc58       ??_C@_15GLKMLLHM@?$AAh?$AAr?$AA?$AA@ 000000018005ec58     LIBCMTD:winapinls.obj
 0002:0000cc60       ??_C@_15CPKMFBDB@?$AAs?$AAk?$AA?$AA@ 000000018005ec60     LIBCMTD:winapinls.obj
 0002:0000cc68       ??_C@_15BAAIOGMK@?$AAs?$AAq?$AA?$AA@ 000000018005ec68     LIBCMTD:winapinls.obj
 0002:0000cc70       ??_C@_15INNPNOHD@?$AAs?$AAv?$AA?$AA@ 000000018005ec70     LIBCMTD:winapinls.obj
 0002:0000cc78       ??_C@_15CABMMOGH@?$AAt?$AAh?$AA?$AA@ 000000018005ec78     LIBCMTD:winapinls.obj
 0002:0000cc80       ??_C@_15BPLIHJJM@?$AAt?$AAr?$AA?$AA@ 000000018005ec80     LIBCMTD:winapinls.obj
 0002:0000cc88       ??_C@_15NEOEKKDJ@?$AAu?$AAr?$AA?$AA@ 000000018005ec88     LIBCMTD:winapinls.obj
 0002:0000cc90       ??_C@_15NFICGAJK@?$AAi?$AAd?$AA?$AA@ 000000018005ec90     LIBCMTD:winapinls.obj
 0002:0000cc98       ??_C@_15HPJPHDM@?$AAb?$AAe?$AA?$AA@ 000000018005ec98     LIBCMTD:winapinls.obj
 0002:0000cca0       ??_C@_15LCHLGJII@?$AAs?$AAl?$AA?$AA@ 000000018005eca0     LIBCMTD:winapinls.obj
 0002:0000cca8       ??_C@_15PCFJPHHO@?$AAe?$AAt?$AA?$AA@ 000000018005eca8     LIBCMTD:winapinls.obj
 0002:0000ccb0       ??_C@_15HPFPGODN@?$AAl?$AAv?$AA?$AA@ 000000018005ecb0     LIBCMTD:winapinls.obj
 0002:0000ccb8       ??_C@_15NFFGKGLG@?$AAl?$AAt?$AA?$AA@ 000000018005ecb8     LIBCMTD:winapinls.obj
 0002:0000ccc0       ??_C@_15BDAKCCHN@?$AAf?$AAa?$AA?$AA@ 000000018005ecc0     LIBCMTD:winapinls.obj
 0002:0000ccc8       ??_C@_15NFGIAIAJ@?$AAv?$AAi?$AA?$AA@ 000000018005ecc8     LIBCMTD:winapinls.obj
 0002:0000ccd0       ??_C@_15LMKNDMHN@?$AAh?$AAy?$AA?$AA@ 000000018005ecd0     LIBCMTD:winapinls.obj
 0002:0000ccd8       ??_C@_15IJBHMCFL@?$AAa?$AAz?$AA?$AA@ 000000018005ecd8     LIBCMTD:winapinls.obj
 0002:0000cce0       ??_C@_15EKOFJABL@?$AAe?$AAu?$AA?$AA@ 000000018005ece0     LIBCMTD:winapinls.obj
 0002:0000cce8       ??_C@_15BGHADCNK@?$AAm?$AAk?$AA?$AA@ 000000018005ece8     LIBCMTD:winapinls.obj
 0002:0000ccf0       ??_C@_15JDNICKHM@?$AAa?$AAf?$AA?$AA@ 000000018005ecf0     LIBCMTD:winapinls.obj
 0002:0000ccf8       ??_C@_15KPJEDBKD@?$AAk?$AAa?$AA?$AA@ 000000018005ecf8     LIBCMTD:winapinls.obj
 0002:0000cd00       ??_C@_15PDNFFFEO@?$AAf?$AAo?$AA?$AA@ 000000018005ed00     LIBCMTD:winapinls.obj
 0002:0000cd08       ??_C@_15OMLEGLOC@?$AAh?$AAi?$AA?$AA@ 000000018005ed08     LIBCMTD:winapinls.obj
 0002:0000cd10       ??_C@_15IDNNENKK@?$AAm?$AAs?$AA?$AA@ 000000018005ed10     LIBCMTD:winapinls.obj
 0002:0000cd18       ??_C@_15MACJNBMH@?$AAk?$AAk?$AA?$AA@ 000000018005ed18     LIBCMTD:winapinls.obj
 0002:0000cd20       ??_C@_15DKDJEOND@?$AAk?$AAy?$AA?$AA@ 000000018005ed20     LIBCMTD:winapinls.obj
 0002:0000cd28       ??_C@_15DFGDLJBG@?$AAs?$AAw?$AA?$AA@ 000000018005ed28     LIBCMTD:winapinls.obj
 0002:0000cd30       ??_C@_15BBFAICNG@?$AAu?$AAz?$AA?$AA@ 000000018005ed30     LIBCMTD:winapinls.obj
 0002:0000cd38       ??_C@_15DKNDCGEA@?$AAt?$AAt?$AA?$AA@ 000000018005ed38     LIBCMTD:winapinls.obj
 0002:0000cd40       ??_C@_15MGIFMDPL@?$AAp?$AAa?$AA?$AA@ 000000018005ed40     LIBCMTD:winapinls.obj
 0002:0000cd48       ??_C@_15HCNDBBA@?$AAg?$AAu?$AA?$AA@ 000000018005ed48     LIBCMTD:winapinls.obj
 0002:0000cd50       ??_C@_15FNBEIBON@?$AAt?$AAa?$AA?$AA@ 000000018005ed50     LIBCMTD:winapinls.obj
 0002:0000cd58       ??_C@_15NCHGBGLK@?$AAt?$AAe?$AA?$AA@ 000000018005ed58     LIBCMTD:winapinls.obj
 0002:0000cd60       ??_C@_15PHPHCBPF@?$AAk?$AAn?$AA?$AA@ 000000018005ed60     LIBCMTD:winapinls.obj
 0002:0000cd68       ??_C@_15DLGBCKMP@?$AAm?$AAr?$AA?$AA@ 000000018005ed68     LIBCMTD:winapinls.obj
 0002:0000cd70       ??_C@_15EABBLBFF@?$AAs?$AAa?$AA?$AA@ 000000018005ed70     LIBCMTD:winapinls.obj
 0002:0000cd78       ??_C@_15CBKOMCOI@?$AAm?$AAn?$AA?$AA@ 000000018005ed78     LIBCMTD:winapinls.obj
 0002:0000cd80       ??_C@_15CKDMCJAF@?$AAg?$AAl?$AA?$AA@ 000000018005ed80     LIBCMTD:winapinls.obj
 0002:0000cd88       ??_C@_17CNJFBPG@?$AAk?$AAo?$AAk?$AA?$AA@ 000000018005ed88     LIBCMTD:winapinls.obj
 0002:0000cd90       ??_C@_17FFBJICPL@?$AAs?$AAy?$AAr?$AA?$AA@ 000000018005ed90     LIBCMTD:winapinls.obj
 0002:0000cd98       ??_C@_17KPNDCPAF@?$AAd?$AAi?$AAv?$AA?$AA@ 000000018005ed98     LIBCMTD:winapinls.obj
 0002:0000cda0       ??_C@_1M@OKAHONE@?$AAa?$AAr?$AA?9?$AAS?$AAA?$AA?$AA@ 000000018005eda0     LIBCMTD:winapinls.obj
 0002:0000cdb0       ??_C@_1M@FFFIGIGK@?$AAb?$AAg?$AA?9?$AAB?$AAG?$AA?$AA@ 000000018005edb0     LIBCMTD:winapinls.obj
 0002:0000cdc0       ??_C@_1M@BJNKEDC@?$AAc?$AAa?$AA?9?$AAE?$AAS?$AA?$AA@ 000000018005edc0     LIBCMTD:winapinls.obj
 0002:0000cdd0       ??_C@_1M@IJJHFJHA@?$AAc?$AAs?$AA?9?$AAC?$AAZ?$AA?$AA@ 000000018005edd0     LIBCMTD:winapinls.obj
 0002:0000cde0       ??_C@_1M@CLPEOBGI@?$AAd?$AAa?$AA?9?$AAD?$AAK?$AA?$AA@ 000000018005ede0     LIBCMTD:winapinls.obj
 0002:0000cdf0       ??_C@_1M@MCMADGCB@?$AAd?$AAe?$AA?9?$AAD?$AAE?$AA?$AA@ 000000018005edf0     LIBCMTD:winapinls.obj
 0002:0000ce00       ??_C@_1M@OOCKEMAM@?$AAe?$AAl?$AA?9?$AAG?$AAR?$AA?$AA@ 000000018005ee00     LIBCMTD:winapinls.obj
 0002:0000ce10       ??_C@_1M@DDNJFGID@?$AAf?$AAi?$AA?9?$AAF?$AAI?$AA?$AA@ 000000018005ee10     LIBCMTD:winapinls.obj
 0002:0000ce20       ??_C@_1M@GLIPPMAC@?$AAf?$AAr?$AA?9?$AAF?$AAR?$AA?$AA@ 000000018005ee20     LIBCMTD:winapinls.obj
 0002:0000ce30       ??_C@_1M@GFMCHPE@?$AAh?$AAe?$AA?9?$AAI?$AAL?$AA?$AA@ 000000018005ee30     LIBCMTD:winapinls.obj
 0002:0000ce40       ??_C@_1M@MHLPGNKM@?$AAh?$AAu?$AA?9?$AAH?$AAU?$AA?$AA@ 000000018005ee40     LIBCMTD:winapinls.obj
 0002:0000ce50       ??_C@_1M@LPDDNNPN@?$AAi?$AAs?$AA?9?$AAI?$AAS?$AA?$AA@ 000000018005ee50     LIBCMTD:winapinls.obj
 0002:0000ce60       ??_C@_1M@MADIPODN@?$AAi?$AAt?$AA?9?$AAI?$AAT?$AA?$AA@ 000000018005ee60     LIBCMTD:winapinls.obj
 0002:0000ce70       ??_C@_1M@IHBJJGG@?$AAn?$AAl?$AA?9?$AAN?$AAL?$AA?$AA@ 000000018005ee70     LIBCMTD:winapinls.obj
 0002:0000ce80       ??_C@_1M@EANAGDL@?$AAn?$AAb?$AA?9?$AAN?$AAO?$AA?$AA@ 000000018005ee80     LIBCMTD:winapinls.obj
 0002:0000ce90       ??_C@_1M@NEIEMEGP@?$AAp?$AAl?$AA?9?$AAP?$AAL?$AA?$AA@ 000000018005ee90     LIBCMTD:winapinls.obj
 0002:0000cea0       ??_C@_1M@BOCFIGEP@?$AAp?$AAt?$AA?9?$AAB?$AAR?$AA?$AA@ 000000018005eea0     LIBCMTD:winapinls.obj
 0002:0000ceb0       ??_C@_1M@IMPFOPBG@?$AAr?$AAo?$AA?9?$AAR?$AAO?$AA?$AA@ 000000018005eeb0     LIBCMTD:winapinls.obj
 0002:0000cec0       ??_C@_1M@IDNNEJMM@?$AAr?$AAu?$AA?9?$AAR?$AAU?$AA?$AA@ 000000018005eec0     LIBCMTD:winapinls.obj
 0002:0000ced0       ??_C@_1M@LILEEOGM@?$AAh?$AAr?$AA?9?$AAH?$AAR?$AA?$AA@ 000000018005eed0     LIBCMTD:winapinls.obj
 0002:0000cee0       ??_C@_1M@FKIFEHPB@?$AAs?$AAk?$AA?9?$AAS?$AAK?$AA?$AA@ 000000018005eee0     LIBCMTD:winapinls.obj
 0002:0000cef0       ??_C@_1M@LJMAMNPJ@?$AAs?$AAq?$AA?9?$AAA?$AAL?$AA?$AA@ 000000018005eef0     LIBCMTD:winapinls.obj
 0002:0000cf00       ??_C@_1M@GIAKDKJK@?$AAs?$AAv?$AA?9?$AAS?$AAE?$AA?$AA@ 000000018005ef00     LIBCMTD:winapinls.obj
 0002:0000cf10       ??_C@_1M@MKJKIKCL@?$AAt?$AAh?$AA?9?$AAT?$AAH?$AA?$AA@ 000000018005ef10     LIBCMTD:winapinls.obj
 0002:0000cf20       ??_C@_1M@MFLCCMPB@?$AAt?$AAr?$AA?9?$AAT?$AAR?$AA?$AA@ 000000018005ef20     LIBCMTD:winapinls.obj
 0002:0000cf30       ??_C@_1M@OIJHDKJN@?$AAu?$AAr?$AA?9?$AAP?$AAK?$AA?$AA@ 000000018005ef30     LIBCMTD:winapinls.obj
 0002:0000cf40       ??_C@_1M@LHIPCIEK@?$AAi?$AAd?$AA?9?$AAI?$AAD?$AA?$AA@ 000000018005ef40     LIBCMTD:winapinls.obj
 0002:0000cf50       ??_C@_1M@MFMOBGI@?$AAu?$AAk?$AA?9?$AAU?$AAA?$AA?$AA@ 000000018005ef50     LIBCMTD:winapinls.obj
 0002:0000cf60       ??_C@_1M@OBGLJIPL@?$AAb?$AAe?$AA?9?$AAB?$AAY?$AA?$AA@ 000000018005ef60     LIBCMTD:winapinls.obj
 0002:0000cf70       ??_C@_1M@BCFAJEAD@?$AAs?$AAl?$AA?9?$AAS?$AAI?$AA?$AA@ 000000018005ef70     LIBCMTD:winapinls.obj
 0002:0000cf80       ??_C@_1M@FKFFEDDN@?$AAe?$AAt?$AA?9?$AAE?$AAE?$AA?$AA@ 000000018005ef80     LIBCMTD:winapinls.obj
 0002:0000cf90       ??_C@_1M@KGKKAACI@?$AAl?$AAv?$AA?9?$AAL?$AAV?$AA?$AA@ 000000018005ef90     LIBCMTD:winapinls.obj
 0002:0000cfa0       ??_C@_1M@IFGBIJO@?$AAl?$AAt?$AA?9?$AAL?$AAT?$AA?$AA@ 000000018005efa0     LIBCMTD:winapinls.obj
 0002:0000cfb0       ??_C@_1M@FGEAHEDM@?$AAf?$AAa?$AA?9?$AAI?$AAR?$AA?$AA@ 000000018005efb0     LIBCMTD:winapinls.obj
 0002:0000cfc0       ??_C@_1M@KBMAIBFN@?$AAv?$AAi?$AA?9?$AAV?$AAN?$AA?$AA@ 000000018005efc0     LIBCMTD:winapinls.obj
 0002:0000cfd0       ??_C@_1M@GPCBKDJK@?$AAh?$AAy?$AA?9?$AAA?$AAM?$AA?$AA@ 000000018005efd0     LIBCMTD:winapinls.obj
 0002:0000cfe0       ??_C@_1BG@BECMDDJB@?$AAa?$AAz?$AA?9?$AAA?$AAZ?$AA?9?$AAL?$AAa?$AAt?$AAn?$AA?$AA@ 000000018005efe0     LIBCMTD:winapinls.obj
 0002:0000cff8       ??_C@_1M@MAOFCAEA@?$AAe?$AAu?$AA?9?$AAE?$AAS?$AA?$AA@ 000000018005eff8     LIBCMTD:winapinls.obj
 0002:0000d008       ??_C@_1M@IGHABKPI@?$AAm?$AAk?$AA?9?$AAM?$AAK?$AA?$AA@ 000000018005f008     LIBCMTD:winapinls.obj
 0002:0000d018       ??_C@_1M@IAIGNEJG@?$AAt?$AAn?$AA?9?$AAZ?$AAA?$AA?$AA@ 000000018005f018     LIBCMTD:winapinls.obj
 0002:0000d028       ??_C@_1M@IIJCOJFA@?$AAx?$AAh?$AA?9?$AAZ?$AAA?$AA?$AA@ 000000018005f028     LIBCMTD:winapinls.obj
 0002:0000d038       ??_C@_1M@LGPJHNJH@?$AAz?$AAu?$AA?9?$AAZ?$AAA?$AA?$AA@ 000000018005f038     LIBCMTD:winapinls.obj
 0002:0000d048       ??_C@_1M@HOKAOIO@?$AAa?$AAf?$AA?9?$AAZ?$AAA?$AA?$AA@ 000000018005f048     LIBCMTD:winapinls.obj
 0002:0000d058       ??_C@_1M@DPCLHLIE@?$AAk?$AAa?$AA?9?$AAG?$AAE?$AA?$AA@ 000000018005f058     LIBCMTD:winapinls.obj
 0002:0000d068       ??_C@_1M@BLKMHJBI@?$AAf?$AAo?$AA?9?$AAF?$AAO?$AA?$AA@ 000000018005f068     LIBCMTD:winapinls.obj
 0002:0000d078       ??_C@_1M@LGGJAPPB@?$AAh?$AAi?$AA?9?$AAI?$AAN?$AA?$AA@ 000000018005f078     LIBCMTD:winapinls.obj
 0002:0000d088       ??_C@_1M@FIKPIHFE@?$AAm?$AAt?$AA?9?$AAM?$AAT?$AA?$AA@ 000000018005f088     LIBCMTD:winapinls.obj
 0002:0000d098       ??_C@_1M@HEGGPBFA@?$AAs?$AAe?$AA?9?$AAN?$AAO?$AA?$AA@ 000000018005f098     LIBCMTD:winapinls.obj
 0002:0000d0a8       ??_C@_1M@EIBJEEPA@?$AAm?$AAs?$AA?9?$AAM?$AAY?$AA?$AA@ 000000018005f0a8     LIBCMTD:winapinls.obj
 0002:0000d0b8       ??_C@_1M@FHLBGMPP@?$AAk?$AAk?$AA?9?$AAK?$AAZ?$AA?$AA@ 000000018005f0b8     LIBCMTD:winapinls.obj
 0002:0000d0c8       ??_C@_1M@NGJJLCGI@?$AAk?$AAy?$AA?9?$AAK?$AAG?$AA?$AA@ 000000018005f0c8     LIBCMTD:winapinls.obj
 0002:0000d0d8       ??_C@_1M@GIENNBFC@?$AAs?$AAw?$AA?9?$AAK?$AAE?$AA?$AA@ 000000018005f0d8     LIBCMTD:winapinls.obj
 0002:0000d0e8       ??_C@_1BG@NDGMJIMJ@?$AAu?$AAz?$AA?9?$AAU?$AAZ?$AA?9?$AAL?$AAa?$AAt?$AAn?$AA?$AA@ 000000018005f0e8     LIBCMTD:winapinls.obj
 0002:0000d100       ??_C@_1M@IDCCIHBC@?$AAt?$AAt?$AA?9?$AAR?$AAU?$AA?$AA@ 000000018005f100     LIBCMTD:winapinls.obj
 0002:0000d110       ??_C@_1M@LOICPMOJ@?$AAb?$AAn?$AA?9?$AAI?$AAN?$AA?$AA@ 000000018005f110     LIBCMTD:winapinls.obj
 0002:0000d120       ??_C@_1M@KPKKNEAH@?$AAp?$AAa?$AA?9?$AAI?$AAN?$AA?$AA@ 000000018005f120     LIBCMTD:winapinls.obj
 0002:0000d130       ??_C@_1M@PJGPPBOG@?$AAg?$AAu?$AA?9?$AAI?$AAN?$AA?$AA@ 000000018005f130     LIBCMTD:winapinls.obj
 0002:0000d140       ??_C@_1M@KMKMOPHI@?$AAt?$AAa?$AA?9?$AAI?$AAN?$AA?$AA@ 000000018005f140     LIBCMTD:winapinls.obj
 0002:0000d150       ??_C@_1M@KFEHEPAC@?$AAt?$AAe?$AA?9?$AAI?$AAN?$AA?$AA@ 000000018005f150     LIBCMTD:winapinls.obj
 0002:0000d160       ??_C@_1M@CDCLMGHI@?$AAk?$AAn?$AA?9?$AAI?$AAN?$AA?$AA@ 000000018005f160     LIBCMTD:winapinls.obj
 0002:0000d170       ??_C@_1M@MIODLDKF@?$AAm?$AAl?$AA?9?$AAI?$AAN?$AA?$AA@ 000000018005f170     LIBCMTD:winapinls.obj
 0002:0000d180       ??_C@_1M@PBIEACPO@?$AAm?$AAr?$AA?9?$AAI?$AAN?$AA?$AA@ 000000018005f180     LIBCMTD:winapinls.obj
 0002:0000d190       ??_C@_1M@NIDEAGPH@?$AAs?$AAa?$AA?9?$AAI?$AAN?$AA?$AA@ 000000018005f190     LIBCMTD:winapinls.obj
 0002:0000d1a0       ??_C@_1M@FHIHCBIO@?$AAm?$AAn?$AA?9?$AAM?$AAN?$AA?$AA@ 000000018005f1a0     LIBCMTD:winapinls.obj
 0002:0000d1b0       ??_C@_1M@JAIJPENP@?$AAc?$AAy?$AA?9?$AAG?$AAB?$AA?$AA@ 000000018005f1b0     LIBCMTD:winapinls.obj
 0002:0000d1c0       ??_C@_1M@PHGFBEPN@?$AAg?$AAl?$AA?9?$AAE?$AAS?$AA?$AA@ 000000018005f1c0     LIBCMTD:winapinls.obj
 0002:0000d1d0       ??_C@_1O@KPIPDNCP@?$AAk?$AAo?$AAk?$AA?9?$AAI?$AAN?$AA?$AA@ 000000018005f1d0     LIBCMTD:winapinls.obj
 0002:0000d1e0       ??_C@_1O@KNHJLDJA@?$AAs?$AAy?$AAr?$AA?9?$AAS?$AAY?$AA?$AA@ 000000018005f1e0     LIBCMTD:winapinls.obj
 0002:0000d1f0       ??_C@_1O@MKEKBLAH@?$AAd?$AAi?$AAv?$AA?9?$AAM?$AAV?$AA?$AA@ 000000018005f1f0     LIBCMTD:winapinls.obj
 0002:0000d200       ??_C@_1O@OHDCKDDF@?$AAq?$AAu?$AAz?$AA?9?$AAB?$AAO?$AA?$AA@ 000000018005f200     LIBCMTD:winapinls.obj
 0002:0000d210       ??_C@_1M@LEPJNLFD@?$AAn?$AAs?$AA?9?$AAZ?$AAA?$AA?$AA@ 000000018005f210     LIBCMTD:winapinls.obj
 0002:0000d220       ??_C@_1M@OMLEIIJB@?$AAm?$AAi?$AA?9?$AAN?$AAZ?$AA?$AA@ 000000018005f220     LIBCMTD:winapinls.obj
 0002:0000d230       ??_C@_1M@PMPEAILG@?$AAa?$AAr?$AA?9?$AAI?$AAQ?$AA?$AA@ 000000018005f230     LIBCMTD:winapinls.obj
 0002:0000d240       ??_C@_1M@CNKPNOEE@?$AAd?$AAe?$AA?9?$AAC?$AAH?$AA?$AA@ 000000018005f240     LIBCMTD:winapinls.obj
 0002:0000d250       ??_C@_1M@LKMGMLKO@?$AAe?$AAn?$AA?9?$AAG?$AAB?$AA?$AA@ 000000018005f250     LIBCMTD:winapinls.obj
 0002:0000d260       ??_C@_1M@PGKJFFGL@?$AAe?$AAs?$AA?9?$AAM?$AAX?$AA?$AA@ 000000018005f260     LIBCMTD:winapinls.obj
 0002:0000d270       ??_C@_1M@DNNANBDC@?$AAf?$AAr?$AA?9?$AAB?$AAE?$AA?$AA@ 000000018005f270     LIBCMTD:winapinls.obj
 0002:0000d280       ??_C@_1M@HLGMDFHM@?$AAi?$AAt?$AA?9?$AAC?$AAH?$AA?$AA@ 000000018005f280     LIBCMTD:winapinls.obj
 0002:0000d290       ??_C@_1M@CLLBGJH@?$AAn?$AAl?$AA?9?$AAB?$AAE?$AA?$AA@ 000000018005f290     LIBCMTD:winapinls.obj
 0002:0000d2a0       ??_C@_1M@BODBOGLF@?$AAn?$AAn?$AA?9?$AAN?$AAO?$AA?$AA@ 000000018005f2a0     LIBCMTD:winapinls.obj
 0002:0000d2b0       ??_C@_1M@HFFAHKAD@?$AAp?$AAt?$AA?9?$AAP?$AAT?$AA?$AA@ 000000018005f2b0     LIBCMTD:winapinls.obj
 0002:0000d2c0       ??_C@_1BG@LNOAKHIE@?$AAs?$AAr?$AA?9?$AAS?$AAP?$AA?9?$AAL?$AAa?$AAt?$AAn?$AA?$AA@ 000000018005f2c0     LIBCMTD:winapinls.obj
 0002:0000d2d8       ??_C@_1M@HBMHBGAK@?$AAs?$AAv?$AA?9?$AAF?$AAI?$AA?$AA@ 000000018005f2d8     LIBCMTD:winapinls.obj
 0002:0000d2e8       ??_C@_1BG@DGCJGJBE@?$AAa?$AAz?$AA?9?$AAA?$AAZ?$AA?9?$AAC?$AAy?$AAr?$AAl?$AA?$AA@ 000000018005f2e8     LIBCMTD:winapinls.obj
 0002:0000d300       ??_C@_1M@KEJDAAHB@?$AAs?$AAe?$AA?9?$AAS?$AAE?$AA?$AA@ 000000018005f300     LIBCMTD:winapinls.obj
 0002:0000d310       ??_C@_1M@HEIBJJAD@?$AAm?$AAs?$AA?9?$AAB?$AAN?$AA?$AA@ 000000018005f310     LIBCMTD:winapinls.obj
 0002:0000d320       ??_C@_1BG@PBGJMCEM@?$AAu?$AAz?$AA?9?$AAU?$AAZ?$AA?9?$AAC?$AAy?$AAr?$AAl?$AA?$AA@ 000000018005f320     LIBCMTD:winapinls.obj
 0002:0000d338       ??_C@_1O@LAOBCMDF@?$AAq?$AAu?$AAz?$AA?9?$AAE?$AAC?$AA?$AA@ 000000018005f338     LIBCMTD:winapinls.obj
 0002:0000d348       ??_C@_1M@POEEMAIO@?$AAa?$AAr?$AA?9?$AAE?$AAG?$AA?$AA@ 000000018005f348     LIBCMTD:winapinls.obj
 0002:0000d358       ??_C@_1M@EFAKDEDL@?$AAz?$AAh?$AA?9?$AAH?$AAK?$AA?$AA@ 000000018005f358     LIBCMTD:winapinls.obj
 0002:0000d368       ??_C@_1M@HKKIJHGI@?$AAd?$AAe?$AA?9?$AAA?$AAT?$AA?$AA@ 000000018005f368     LIBCMTD:winapinls.obj
 0002:0000d378       ??_C@_1M@KBFBEHJF@?$AAe?$AAn?$AA?9?$AAA?$AAU?$AA?$AA@ 000000018005f378     LIBCMTD:winapinls.obj
 0002:0000d388       ??_C@_1M@MNPLFAAH@?$AAe?$AAs?$AA?9?$AAE?$AAS?$AA?$AA@ 000000018005f388     LIBCMTD:winapinls.obj
 0002:0000d398       ??_C@_1M@HJOOJFMA@?$AAf?$AAr?$AA?9?$AAC?$AAA?$AA?$AA@ 000000018005f398     LIBCMTD:winapinls.obj
 0002:0000d3a8       ??_C@_1BG@JPOFPNAB@?$AAs?$AAr?$AA?9?$AAS?$AAP?$AA?9?$AAC?$AAy?$AAr?$AAl?$AA?$AA@ 000000018005f3a8     LIBCMTD:winapinls.obj
 0002:0000d3c0       ??_C@_1M@LNFOCMOB@?$AAs?$AAe?$AA?9?$AAF?$AAI?$AA?$AA@ 000000018005f3c0     LIBCMTD:winapinls.obj
 0002:0000d3d0       ??_C@_1O@MGJBOAMB@?$AAq?$AAu?$AAz?$AA?9?$AAP?$AAE?$AA?$AA@ 000000018005f3d0     LIBCMTD:winapinls.obj
 0002:0000d3e0       ??_C@_1M@GJINLBOK@?$AAa?$AAr?$AA?9?$AAL?$AAY?$AA?$AA@ 000000018005f3e0     LIBCMTD:winapinls.obj
 0002:0000d3f0       ??_C@_1M@GGMNHJNL@?$AAz?$AAh?$AA?9?$AAS?$AAG?$AA?$AA@ 000000018005f3f0     LIBCMTD:winapinls.obj
 0002:0000d400       ??_C@_1M@HOIKODND@?$AAd?$AAe?$AA?9?$AAL?$AAU?$AA?$AA@ 000000018005f400     LIBCMTD:winapinls.obj
 0002:0000d410       ??_C@_1M@DDOCCGFG@?$AAe?$AAn?$AA?9?$AAC?$AAA?$AA?$AA@ 000000018005f410     LIBCMTD:winapinls.obj
 0002:0000d420       ??_C@_1M@BNOEMJLF@?$AAe?$AAs?$AA?9?$AAG?$AAT?$AA?$AA@ 000000018005f420     LIBCMTD:winapinls.obj
 0002:0000d430       ??_C@_1M@EOGNKEK@?$AAf?$AAr?$AA?9?$AAC?$AAH?$AA?$AA@ 000000018005f430     LIBCMTD:winapinls.obj
 0002:0000d440       ??_C@_1M@FLIDJFHL@?$AAh?$AAr?$AA?9?$AAB?$AAA?$AA?$AA@ 000000018005f440     LIBCMTD:winapinls.obj
 0002:0000d450       ??_C@_1O@FMCELNAJ@?$AAs?$AAm?$AAj?$AA?9?$AAN?$AAO?$AA?$AA@ 000000018005f450     LIBCMTD:winapinls.obj
 0002:0000d460       ??_C@_1M@JHGLJMGJ@?$AAa?$AAr?$AA?9?$AAD?$AAZ?$AA?$AA@ 000000018005f460     LIBCMTD:winapinls.obj
 0002:0000d470       ??_C@_1M@JKKFDCNP@?$AAz?$AAh?$AA?9?$AAM?$AAO?$AA?$AA@ 000000018005f470     LIBCMTD:winapinls.obj
 0002:0000d480       ??_C@_1M@GEEFALPE@?$AAd?$AAe?$AA?9?$AAL?$AAI?$AA?$AA@ 000000018005f480     LIBCMTD:winapinls.obj
 0002:0000d490       ??_C@_1M@IGEOFBG@?$AAe?$AAn?$AA?9?$AAN?$AAZ?$AA?$AA@ 000000018005f490     LIBCMTD:winapinls.obj
 0002:0000d4a0       ??_C@_1M@KDBONEHP@?$AAe?$AAs?$AA?9?$AAC?$AAR?$AA?$AA@ 000000018005f4a0     LIBCMTD:winapinls.obj
 0002:0000d4b0       ??_C@_1M@FHMDOHNN@?$AAf?$AAr?$AA?9?$AAL?$AAU?$AA?$AA@ 000000018005f4b0     LIBCMTD:winapinls.obj
 0002:0000d4c0       ??_C@_1BG@NFKKMAFG@?$AAb?$AAs?$AA?9?$AAB?$AAA?$AA?9?$AAL?$AAa?$AAt?$AAn?$AA?$AA@ 000000018005f4c0     LIBCMTD:winapinls.obj
 0002:0000d4d8       ??_C@_1O@IMNBEMCI@?$AAs?$AAm?$AAj?$AA?9?$AAS?$AAE?$AA?$AA@ 000000018005f4d8     LIBCMTD:winapinls.obj
 0002:0000d4e8       ??_C@_1M@DHHMBNDP@?$AAa?$AAr?$AA?9?$AAM?$AAA?$AA?$AA@ 000000018005f4e8     LIBCMTD:winapinls.obj
 0002:0000d4f8       ??_C@_1M@BNBLJCGH@?$AAe?$AAn?$AA?9?$AAI?$AAE?$AA?$AA@ 000000018005f4f8     LIBCMTD:winapinls.obj
 0002:0000d508       ??_C@_1M@GEPAFMDL@?$AAe?$AAs?$AA?9?$AAP?$AAA?$AA?$AA@ 000000018005f508     LIBCMTD:winapinls.obj
 0002:0000d518       ??_C@_1M@OJONDMDL@?$AAf?$AAr?$AA?9?$AAM?$AAC?$AA?$AA@ 000000018005f518     LIBCMTD:winapinls.obj
 0002:0000d528       ??_C@_1BG@OBCNFJB@?$AAs?$AAr?$AA?9?$AAB?$AAA?$AA?9?$AAL?$AAa?$AAt?$AAn?$AA?$AA@ 000000018005f528     LIBCMTD:winapinls.obj
 0002:0000d540       ??_C@_1O@KEMEEGPO@?$AAs?$AAm?$AAa?$AA?9?$AAN?$AAO?$AA?$AA@ 000000018005f540     LIBCMTD:winapinls.obj
 0002:0000d550       ??_C@_1M@ELMGFODK@?$AAa?$AAr?$AA?9?$AAT?$AAN?$AA?$AA@ 000000018005f550     LIBCMTD:winapinls.obj
 0002:0000d560       ??_C@_1M@BHDLHFAF@?$AAe?$AAn?$AA?9?$AAZ?$AAA?$AA?$AA@ 000000018005f560     LIBCMTD:winapinls.obj
 0002:0000d570       ??_C@_1M@BMGIGLIF@?$AAe?$AAs?$AA?9?$AAD?$AAO?$AA?$AA@ 000000018005f570     LIBCMTD:winapinls.obj
 0002:0000d580       ??_C@_1BG@CMBHIPBE@?$AAs?$AAr?$AA?9?$AAB?$AAA?$AA?9?$AAC?$AAy?$AAr?$AAl?$AA?$AA@ 000000018005f580     LIBCMTD:winapinls.obj
 0002:0000d598       ??_C@_1O@HEDBLHNP@?$AAs?$AAm?$AAa?$AA?9?$AAS?$AAE?$AA?$AA@ 000000018005f598     LIBCMTD:winapinls.obj
 0002:0000d5a8       ??_C@_1M@DAGCADIM@?$AAa?$AAr?$AA?9?$AAO?$AAM?$AA?$AA@ 000000018005f5a8     LIBCMTD:winapinls.obj
 0002:0000d5b8       ??_C@_1M@FODLMICG@?$AAe?$AAn?$AA?9?$AAJ?$AAM?$AA?$AA@ 000000018005f5b8     LIBCMTD:winapinls.obj
 0002:0000d5c8       ??_C@_1M@DNMLCIHB@?$AAe?$AAs?$AA?9?$AAV?$AAE?$AA?$AA@ 000000018005f5c8     LIBCMTD:winapinls.obj
 0002:0000d5d8       ??_C@_1O@EOKHMKJK@?$AAs?$AAm?$AAs?$AA?9?$AAF?$AAI?$AA?$AA@ 000000018005f5d8     LIBCMTD:winapinls.obj
 0002:0000d5e8       ??_C@_1M@CAFJMKOF@?$AAa?$AAr?$AA?9?$AAY?$AAE?$AA?$AA@ 000000018005f5e8     LIBCMTD:winapinls.obj
 0002:0000d5f8       ??_C@_1M@CBFHIJLI@?$AAe?$AAn?$AA?9?$AAC?$AAB?$AA?$AA@ 000000018005f5f8     LIBCMTD:winapinls.obj
 0002:0000d608       ??_C@_1M@BGNFLDN@?$AAe?$AAs?$AA?9?$AAC?$AAO?$AA?$AA@ 000000018005f608     LIBCMTD:winapinls.obj
 0002:0000d618       ??_C@_1O@JMPHMAMC@?$AAs?$AAm?$AAn?$AA?9?$AAF?$AAI?$AA?$AA@ 000000018005f618     LIBCMTD:winapinls.obj
 0002:0000d628       ??_C@_1M@JLANABKE@?$AAa?$AAr?$AA?9?$AAS?$AAY?$AA?$AA@ 000000018005f628     LIBCMTD:winapinls.obj
 0002:0000d638       ??_C@_1M@HPKGCFGN@?$AAe?$AAn?$AA?9?$AAB?$AAZ?$AA?$AA@ 000000018005f638     LIBCMTD:winapinls.obj
 0002:0000d648       ??_C@_1M@OLJCMLGM@?$AAe?$AAs?$AA?9?$AAP?$AAE?$AA?$AA@ 000000018005f648     LIBCMTD:winapinls.obj
 0002:0000d658       ??_C@_1M@MKKGFKLE@?$AAa?$AAr?$AA?9?$AAJ?$AAO?$AA?$AA@ 000000018005f658     LIBCMTD:winapinls.obj
 0002:0000d668       ??_C@_1M@EKPGLDNI@?$AAe?$AAn?$AA?9?$AAT?$AAT?$AA?$AA@ 000000018005f668     LIBCMTD:winapinls.obj
 0002:0000d678       ??_C@_1M@OONGHFHE@?$AAe?$AAs?$AA?9?$AAA?$AAR?$AA?$AA@ 000000018005f678     LIBCMTD:winapinls.obj
 0002:0000d688       ??_C@_1M@OOJFGBHE@?$AAa?$AAr?$AA?9?$AAL?$AAB?$AA?$AA@ 000000018005f688     LIBCMTD:winapinls.obj
 0002:0000d698       ??_C@_1M@GCEJHNEG@?$AAe?$AAn?$AA?9?$AAZ?$AAW?$AA?$AA@ 000000018005f698     LIBCMTD:winapinls.obj
 0002:0000d6a8       ??_C@_1M@JNOCAHJI@?$AAe?$AAs?$AA?9?$AAE?$AAC?$AA?$AA@ 000000018005f6a8     LIBCMTD:winapinls.obj
 0002:0000d6b8       ??_C@_1M@JEFHPGGB@?$AAa?$AAr?$AA?9?$AAK?$AAW?$AA?$AA@ 000000018005f6b8     LIBCMTD:winapinls.obj
 0002:0000d6c8       ??_C@_1M@MLKIBJOJ@?$AAe?$AAn?$AA?9?$AAP?$AAH?$AA?$AA@ 000000018005f6c8     LIBCMTD:winapinls.obj
 0002:0000d6d8       ??_C@_1M@BDNIPEND@?$AAe?$AAs?$AA?9?$AAC?$AAL?$AA?$AA@ 000000018005f6d8     LIBCMTD:winapinls.obj
 0002:0000d6e8       ??_C@_1M@MPNMEKBD@?$AAa?$AAr?$AA?9?$AAA?$AAE?$AA?$AA@ 000000018005f6e8     LIBCMTD:winapinls.obj
 0002:0000d6f8       ??_C@_1M@KBJALCPI@?$AAe?$AAs?$AA?9?$AAU?$AAY?$AA?$AA@ 000000018005f6f8     LIBCMTD:winapinls.obj
 0002:0000d708       ??_C@_1M@LLCCOAGA@?$AAa?$AAr?$AA?9?$AAB?$AAH?$AA?$AA@ 000000018005f708     LIBCMTD:winapinls.obj
 0002:0000d718       ??_C@_1M@PBFNCDEL@?$AAe?$AAs?$AA?9?$AAP?$AAY?$AA?$AA@ 000000018005f718     LIBCMTD:winapinls.obj
 0002:0000d728       ??_C@_1M@EDGINPNP@?$AAa?$AAr?$AA?9?$AAQ?$AAA?$AA?$AA@ 000000018005f728     LIBCMTD:winapinls.obj
 0002:0000d738       ??_C@_1M@MKDBIIJI@?$AAe?$AAs?$AA?9?$AAB?$AAO?$AA?$AA@ 000000018005f738     LIBCMTD:winapinls.obj
 0002:0000d748       ??_C@_1M@CPKKEBLD@?$AAe?$AAs?$AA?9?$AAS?$AAV?$AA?$AA@ 000000018005f748     LIBCMTD:winapinls.obj
 0002:0000d758       ??_C@_1M@NDBGMMJL@?$AAe?$AAs?$AA?9?$AAH?$AAN?$AA?$AA@ 000000018005f758     LIBCMTD:winapinls.obj
 0002:0000d768       ??_C@_1M@JIJIBHDP@?$AAe?$AAs?$AA?9?$AAN?$AAI?$AA?$AA@ 000000018005f768     LIBCMTD:winapinls.obj
 0002:0000d778       ??_C@_1M@CGFMKEEK@?$AAe?$AAs?$AA?9?$AAP?$AAR?$AA?$AA@ 000000018005f778     LIBCMTD:winapinls.obj
 0002:0000d788       ??_C@_1O@ICJHKIIK@?$AAz?$AAh?$AA?9?$AAC?$AAH?$AAT?$AA?$AA@ 000000018005f788     LIBCMTD:winapinls.obj
 0002:0000d798       ??_C@_15CLNEJCE@?$AAs?$AAr?$AA?$AA@ 000000018005f798     LIBCMTD:winapinls.obj
 0002:0000d7a0       ??_C@_1M@KAHEKEIG@?$AAa?$AAf?$AA?9?$AAz?$AAa?$AA?$AA@ 000000018005f7a0     LIBCMTD:winapinls.obj
 0002:0000d7b0       ??_C@_1M@GIECOABL@?$AAa?$AAr?$AA?9?$AAa?$AAe?$AA?$AA@ 000000018005f7b0     LIBCMTD:winapinls.obj
 0002:0000d7c0       ??_C@_1M@BMLMEKGI@?$AAa?$AAr?$AA?9?$AAb?$AAh?$AA?$AA@ 000000018005f7c0     LIBCMTD:winapinls.obj
 0002:0000d7d0       ??_C@_1M@DAPFDGGB@?$AAa?$AAr?$AA?9?$AAd?$AAz?$AA?$AA@ 000000018005f7d0     LIBCMTD:winapinls.obj
 0002:0000d7e0       ??_C@_1M@FJNKGKIG@?$AAa?$AAr?$AA?9?$AAe?$AAg?$AA?$AA@ 000000018005f7e0     LIBCMTD:winapinls.obj
 0002:0000d7f0       ??_C@_1M@FLGKKCLO@?$AAa?$AAr?$AA?9?$AAi?$AAq?$AA?$AA@ 000000018005f7f0     LIBCMTD:winapinls.obj
 0002:0000d800       ??_C@_1M@GNDIPALM@?$AAa?$AAr?$AA?9?$AAj?$AAo?$AA?$AA@ 000000018005f800     LIBCMTD:winapinls.obj
 0002:0000d810       ??_C@_1M@DDMJFMGJ@?$AAa?$AAr?$AA?9?$AAk?$AAw?$AA?$AA@ 000000018005f810     LIBCMTD:winapinls.obj
 0002:0000d820       ??_C@_1M@EJALMLHM@?$AAa?$AAr?$AA?9?$AAl?$AAb?$AA?$AA@ 000000018005f820     LIBCMTD:winapinls.obj
 0002:0000d830       ??_C@_1M@MOBDBLOC@?$AAa?$AAr?$AA?9?$AAl?$AAy?$AA?$AA@ 000000018005f830     LIBCMTD:winapinls.obj
 0002:0000d840       ??_C@_1M@JAOCLHDH@?$AAa?$AAr?$AA?9?$AAm?$AAa?$AA?$AA@ 000000018005f840     LIBCMTD:winapinls.obj
 0002:0000d850       ??_C@_1M@JHPMKJIE@?$AAa?$AAr?$AA?9?$AAo?$AAm?$AA?$AA@ 000000018005f850     LIBCMTD:winapinls.obj
 0002:0000d860       ??_C@_1M@OEPGHFNH@?$AAa?$AAr?$AA?9?$AAq?$AAa?$AA?$AA@ 000000018005f860     LIBCMTD:winapinls.obj
 0002:0000d870       ??_C@_1M@KJDONENM@?$AAa?$AAr?$AA?9?$AAs?$AAa?$AA?$AA@ 000000018005f870     LIBCMTD:winapinls.obj
 0002:0000d880       ??_C@_1M@DMJDKLKM@?$AAa?$AAr?$AA?9?$AAs?$AAy?$AA?$AA@ 000000018005f880     LIBCMTD:winapinls.obj
 0002:0000d890       ??_C@_1M@OMFIPEDC@?$AAa?$AAr?$AA?9?$AAt?$AAn?$AA?$AA@ 000000018005f890     LIBCMTD:winapinls.obj
 0002:0000d8a0       ??_C@_1M@IHMHGAON@?$AAa?$AAr?$AA?9?$AAy?$AAe?$AA?$AA@ 000000018005f8a0     LIBCMTD:winapinls.obj
 0002:0000d8b0       ??_C@_1BG@KDCPGJGB@?$AAa?$AAz?$AA?9?$AAa?$AAz?$AA?9?$AAc?$AAy?$AAr?$AAl?$AA?$AA@ 000000018005f8b0     LIBCMTD:winapinls.obj
 0002:0000d8c8       ??_C@_1BG@IBCKDDOE@?$AAa?$AAz?$AA?9?$AAa?$AAz?$AA?9?$AAl?$AAa?$AAt?$AAn?$AA?$AA@ 000000018005f8c8     LIBCMTD:winapinls.obj
 0002:0000d8e0       ??_C@_1M@EGPFDCPD@?$AAb?$AAe?$AA?9?$AAb?$AAy?$AA?$AA@ 000000018005f8e0     LIBCMTD:winapinls.obj
 0002:0000d8f0       ??_C@_1M@PCMGMCGC@?$AAb?$AAg?$AA?9?$AAb?$AAg?$AA?$AA@ 000000018005f8f0     LIBCMTD:winapinls.obj
 0002:0000d900       ??_C@_1M@BJBMFGOB@?$AAb?$AAn?$AA?9?$AAi?$AAn?$AA?$AA@ 000000018005f900     LIBCMTD:winapinls.obj
 0002:0000d910       ??_C@_1BG@EAKMMACD@?$AAb?$AAs?$AA?9?$AAb?$AAa?$AA?9?$AAl?$AAa?$AAt?$AAn?$AA?$AA@ 000000018005f910     LIBCMTD:winapinls.obj
 0002:0000d928       ??_C@_1M@KGADAODK@?$AAc?$AAa?$AA?9?$AAe?$AAs?$AA?$AA@ 000000018005f928     LIBCMTD:winapinls.obj
 0002:0000d938       ??_C@_1M@COAJPDHI@?$AAc?$AAs?$AA?9?$AAc?$AAz?$AA?$AA@ 000000018005f938     LIBCMTD:winapinls.obj
 0002:0000d948       ??_C@_1M@DHBHFONH@?$AAc?$AAy?$AA?9?$AAg?$AAb?$AA?$AA@ 000000018005f948     LIBCMTD:winapinls.obj
 0002:0000d958       ??_C@_1M@IMGKELGA@?$AAd?$AAa?$AA?9?$AAd?$AAk?$AA?$AA@ 000000018005f958     LIBCMTD:winapinls.obj
 0002:0000d968       ??_C@_1M@NNDGDNGA@?$AAd?$AAe?$AA?9?$AAa?$AAt?$AA?$AA@ 000000018005f968     LIBCMTD:winapinls.obj
 0002:0000d978       ??_C@_1M@IKDBHEEM@?$AAd?$AAe?$AA?9?$AAc?$AAh?$AA?$AA@ 000000018005f978     LIBCMTD:winapinls.obj
 0002:0000d988       ??_C@_1M@GFFOJMCJ@?$AAd?$AAe?$AA?9?$AAd?$AAe?$AA?$AA@ 000000018005f988     LIBCMTD:winapinls.obj
 0002:0000d998       ??_C@_1M@MDNLKBPM@?$AAd?$AAe?$AA?9?$AAl?$AAi?$AA?$AA@ 000000018005f998     LIBCMTD:winapinls.obj
 0002:0000d9a8       ??_C@_1M@NJBEEJNL@?$AAd?$AAe?$AA?9?$AAl?$AAu?$AA?$AA@ 000000018005f9a8     LIBCMTD:winapinls.obj
 0002:0000d9b8       ??_C@_1O@GNNELBAP@?$AAd?$AAi?$AAv?$AA?9?$AAm?$AAv?$AA?$AA@ 000000018005f9b8     LIBCMTD:winapinls.obj
 0002:0000d9c8       ??_C@_1M@EJLEOGAE@?$AAe?$AAl?$AA?9?$AAg?$AAr?$AA?$AA@ 000000018005f9c8     LIBCMTD:winapinls.obj
 0002:0000d9d8       ??_C@_1M@GMPONJN@?$AAe?$AAn?$AA?9?$AAa?$AAu?$AA?$AA@ 000000018005f9d8     LIBCMTD:winapinls.obj
 0002:0000d9e8       ??_C@_1M@NIDIIPGF@?$AAe?$AAn?$AA?9?$AAb?$AAz?$AA?$AA@ 000000018005f9e8     LIBCMTD:winapinls.obj
 0002:0000d9f8       ??_C@_1M@JEHMIMFO@?$AAe?$AAn?$AA?9?$AAc?$AAa?$AA?$AA@ 000000018005f9f8     LIBCMTD:winapinls.obj
 0002:0000da08       ??_C@_1M@IGMJCDLA@?$AAe?$AAn?$AA?9?$AAc?$AAb?$AA?$AA@ 000000018005fa08     LIBCMTD:winapinls.obj
 0002:0000da18       ??_C@_1M@BNFIGBKG@?$AAe?$AAn?$AA?9?$AAg?$AAb?$AA?$AA@ 000000018005fa18     LIBCMTD:winapinls.obj
 0002:0000da28       ??_C@_1M@LKIFDIGP@?$AAe?$AAn?$AA?9?$AAi?$AAe?$AA?$AA@ 000000018005fa28     LIBCMTD:winapinls.obj
 0002:0000da38       ??_C@_1M@PJKFGCCO@?$AAe?$AAn?$AA?9?$AAj?$AAm?$AA?$AA@ 000000018005fa38     LIBCMTD:winapinls.obj
 0002:0000da48       ??_C@_1M@KPPKEPBO@?$AAe?$AAn?$AA?9?$AAn?$AAz?$AA?$AA@ 000000018005fa48     LIBCMTD:winapinls.obj
 0002:0000da58       ??_C@_1M@GMDGLDOB@?$AAe?$AAn?$AA?9?$AAp?$AAh?$AA?$AA@ 000000018005fa58     LIBCMTD:winapinls.obj
 0002:0000da68       ??_C@_1M@ONGIBJNA@?$AAe?$AAn?$AA?9?$AAt?$AAt?$AA?$AA@ 000000018005fa68     LIBCMTD:winapinls.obj
 0002:0000da78       ??_C@_1M@LLODPCMM@?$AAe?$AAn?$AA?9?$AAu?$AAs?$AA?$AA@ 000000018005fa78     LIBCMTD:winapinls.obj
 0002:0000da88       ??_C@_1M@LAKFNPAN@?$AAe?$AAn?$AA?9?$AAz?$AAa?$AA?$AA@ 000000018005fa88     LIBCMTD:winapinls.obj
 0002:0000da98       ??_C@_1M@MFNHNHEO@?$AAe?$AAn?$AA?9?$AAz?$AAw?$AA?$AA@ 000000018005fa98     LIBCMTD:winapinls.obj
 0002:0000daa8       ??_C@_1M@EJEINPHM@?$AAe?$AAs?$AA?9?$AAa?$AAr?$AA?$AA@ 000000018005faa8     LIBCMTD:winapinls.obj
 0002:0000dab8       ??_C@_1M@GNKPCCJA@?$AAe?$AAs?$AA?9?$AAb?$AAo?$AA?$AA@ 000000018005fab8     LIBCMTD:winapinls.obj
 0002:0000dac8       ??_C@_1M@LEEGFONL@?$AAe?$AAs?$AA?9?$AAc?$AAl?$AA?$AA@ 000000018005fac8     LIBCMTD:winapinls.obj
 0002:0000dad8       ??_C@_1M@KGPDPBDF@?$AAe?$AAs?$AA?9?$AAc?$AAo?$AA?$AA@ 000000018005fad8     LIBCMTD:winapinls.obj
 0002:0000dae8       ??_C@_1M@EIAHOHH@?$AAe?$AAs?$AA?9?$AAc?$AAr?$AA?$AA@ 000000018005fae8     LIBCMTD:winapinls.obj
 0002:0000daf8       ??_C@_1M@LLPGMBIN@?$AAe?$AAs?$AA?9?$AAd?$AAo?$AA?$AA@ 000000018005faf8     LIBCMTD:winapinls.obj
 0002:0000db08       ??_C@_1M@DKHMKNJA@?$AAe?$AAs?$AA?9?$AAe?$AAc?$AA?$AA@ 000000018005fb08     LIBCMTD:winapinls.obj
 0002:0000db18       ??_C@_1M@GKGFPKAP@?$AAe?$AAs?$AA?9?$AAe?$AAs?$AA?$AA@ 000000018005fb18     LIBCMTD:winapinls.obj
 0002:0000db28       ??_C@_1M@LKHKGDLN@?$AAe?$AAs?$AA?9?$AAg?$AAt?$AA?$AA@ 000000018005fb28     LIBCMTD:winapinls.obj
 0002:0000db38       ??_C@_1M@HEIIGGJD@?$AAe?$AAs?$AA?9?$AAh?$AAn?$AA?$AA@ 000000018005fb38     LIBCMTD:winapinls.obj
 0002:0000db48       ??_C@_1M@FBDHPPGD@?$AAe?$AAs?$AA?9?$AAm?$AAx?$AA?$AA@ 000000018005fb48     LIBCMTD:winapinls.obj
 0002:0000db58       ??_C@_1M@DPAGLNDH@?$AAe?$AAs?$AA?9?$AAn?$AAi?$AA?$AA@ 000000018005fb58     LIBCMTD:winapinls.obj
 0002:0000db68       ??_C@_1M@MDGOPGDD@?$AAe?$AAs?$AA?9?$AAp?$AAa?$AA?$AA@ 000000018005fb68     LIBCMTD:winapinls.obj
 0002:0000db78       ??_C@_1M@EMAMGBGE@?$AAe?$AAs?$AA?9?$AAp?$AAe?$AA?$AA@ 000000018005fb78     LIBCMTD:winapinls.obj
 0002:0000db88       ??_C@_1M@IBMCAOEC@?$AAe?$AAs?$AA?9?$AAp?$AAr?$AA?$AA@ 000000018005fb88     LIBCMTD:winapinls.obj
 0002:0000db98       ??_C@_1M@FGMDIJED@?$AAe?$AAs?$AA?9?$AAp?$AAy?$AA?$AA@ 000000018005fb98     LIBCMTD:winapinls.obj
 0002:0000dba8       ??_C@_1M@IIDEOLLL@?$AAe?$AAs?$AA?9?$AAs?$AAv?$AA?$AA@ 000000018005fba8     LIBCMTD:winapinls.obj
 0002:0000dbb8       ??_C@_1M@GAOBIPA@?$AAe?$AAs?$AA?9?$AAu?$AAy?$AA?$AA@ 000000018005fbb8     LIBCMTD:winapinls.obj
 0002:0000dbc8       ??_C@_1M@JKFFICHJ@?$AAe?$AAs?$AA?9?$AAv?$AAe?$AA?$AA@ 000000018005fbc8     LIBCMTD:winapinls.obj
 0002:0000dbd8       ??_C@_1M@PNMLOJDF@?$AAe?$AAt?$AA?9?$AAe?$AAe?$AA?$AA@ 000000018005fbd8     LIBCMTD:winapinls.obj
 0002:0000dbe8       ??_C@_1M@GHHLIKEI@?$AAe?$AAu?$AA?9?$AAe?$AAs?$AA?$AA@ 000000018005fbe8     LIBCMTD:winapinls.obj
 0002:0000dbf8       ??_C@_1M@PBNONODE@?$AAf?$AAa?$AA?9?$AAi?$AAr?$AA?$AA@ 000000018005fbf8     LIBCMTD:winapinls.obj
 0002:0000dc08       ??_C@_1M@JEEHPMIL@?$AAf?$AAi?$AA?9?$AAf?$AAi?$AA?$AA@ 000000018005fc08     LIBCMTD:winapinls.obj
 0002:0000dc18       ??_C@_1M@LMDCNDBA@?$AAf?$AAo?$AA?9?$AAf?$AAo?$AA?$AA@ 000000018005fc18     LIBCMTD:winapinls.obj
 0002:0000dc28       ??_C@_1M@JKEOHLDK@?$AAf?$AAr?$AA?9?$AAb?$AAe?$AA?$AA@ 000000018005fc28     LIBCMTD:winapinls.obj
 0002:0000dc38       ??_C@_1M@NOHADPMI@?$AAf?$AAr?$AA?9?$AAc?$AAa?$AA?$AA@ 000000018005fc38     LIBCMTD:winapinls.obj
 0002:0000dc48       ??_C@_1M@KDHIHAEC@?$AAf?$AAr?$AA?9?$AAc?$AAh?$AA?$AA@ 000000018005fc48     LIBCMTD:winapinls.obj
 0002:0000dc58       ??_C@_1M@MMBBFGAK@?$AAf?$AAr?$AA?9?$AAf?$AAr?$AA?$AA@ 000000018005fc58     LIBCMTD:winapinls.obj
 0002:0000dc68       ??_C@_1M@PAFNENNF@?$AAf?$AAr?$AA?9?$AAl?$AAu?$AA?$AA@ 000000018005fc68     LIBCMTD:winapinls.obj
 0002:0000dc78       ??_C@_1M@EOHDJGDD@?$AAf?$AAr?$AA?9?$AAm?$AAc?$AA?$AA@ 000000018005fc78     LIBCMTD:winapinls.obj
 0002:0000dc88       ??_C@_1M@FAPLLOPF@?$AAg?$AAl?$AA?9?$AAe?$AAs?$AA?$AA@ 000000018005fc88     LIBCMTD:winapinls.obj
 0002:0000dc98       ??_C@_1M@FOPBFLOO@?$AAg?$AAu?$AA?9?$AAi?$AAn?$AA?$AA@ 000000018005fc98     LIBCMTD:winapinls.obj
 0002:0000dca8       ??_C@_1M@KBMCINPM@?$AAh?$AAe?$AA?9?$AAi?$AAl?$AA?$AA@ 000000018005fca8     LIBCMTD:winapinls.obj
 0002:0000dcb8       ??_C@_1M@BBPHKFPJ@?$AAh?$AAi?$AA?9?$AAi?$AAn?$AA?$AA@ 000000018005fcb8     LIBCMTD:winapinls.obj
 0002:0000dcc8       ??_C@_1M@PMBNDPHD@?$AAh?$AAr?$AA?9?$AAb?$AAa?$AA?$AA@ 000000018005fcc8     LIBCMTD:winapinls.obj
 0002:0000dcd8       ??_C@_1M@BPCKOEGE@?$AAh?$AAr?$AA?9?$AAh?$AAr?$AA?$AA@ 000000018005fcd8     LIBCMTD:winapinls.obj
 0002:0000dce8       ??_C@_1M@GACBMHKE@?$AAh?$AAu?$AA?9?$AAh?$AAu?$AA?$AA@ 000000018005fce8     LIBCMTD:winapinls.obj
 0002:0000dcf8       ??_C@_1M@MILPAJJC@?$AAh?$AAy?$AA?9?$AAa?$AAm?$AA?$AA@ 000000018005fcf8     LIBCMTD:winapinls.obj
 0002:0000dd08       ??_C@_1M@BABBICEC@?$AAi?$AAd?$AA?9?$AAi?$AAd?$AA?$AA@ 000000018005fd08     LIBCMTD:winapinls.obj
 0002:0000dd18       ??_C@_1M@BIKNHHPF@?$AAi?$AAs?$AA?9?$AAi?$AAs?$AA?$AA@ 000000018005fd18     LIBCMTD:winapinls.obj
 0002:0000dd28       ??_C@_1M@NMPCJPHE@?$AAi?$AAt?$AA?9?$AAc?$AAh?$AA?$AA@ 000000018005fd28     LIBCMTD:winapinls.obj
 0002:0000dd38       ??_C@_1M@GHKGFEDF@?$AAi?$AAt?$AA?9?$AAi?$AAt?$AA?$AA@ 000000018005fd38     LIBCMTD:winapinls.obj
 0002:0000dd48       ??_C@_1M@NIEJCJJA@?$AAj?$AAa?$AA?9?$AAj?$AAp?$AA?$AA@ 000000018005fd48     LIBCMTD:winapinls.obj
 0002:0000dd58       ??_C@_1M@JILFNBIM@?$AAk?$AAa?$AA?9?$AAg?$AAe?$AA?$AA@ 000000018005fd58     LIBCMTD:winapinls.obj
 0002:0000dd68       ??_C@_1M@PACPMGPH@?$AAk?$AAk?$AA?9?$AAk?$AAz?$AA?$AA@ 000000018005fd68     LIBCMTD:winapinls.obj
 0002:0000dd78       ??_C@_1M@IELFGMHA@?$AAk?$AAn?$AA?9?$AAi?$AAn?$AA?$AA@ 000000018005fd78     LIBCMTD:winapinls.obj
 0002:0000dd88       ??_C@_1O@IBBJHCH@?$AAk?$AAo?$AAk?$AA?9?$AAi?$AAn?$AA?$AA@ 000000018005fd88     LIBCMTD:winapinls.obj
 0002:0000dd98       ??_C@_1M@DMHAEOGC@?$AAk?$AAo?$AA?9?$AAk?$AAr?$AA?$AA@ 000000018005fd98     LIBCMTD:winapinls.obj
 0002:0000dda8       ??_C@_1M@HBAHBIGA@?$AAk?$AAy?$AA?9?$AAk?$AAg?$AA?$AA@ 000000018005fda8     LIBCMTD:winapinls.obj
 0002:0000ddb8       ??_C@_1M@KPMILCJG@?$AAl?$AAt?$AA?9?$AAl?$AAt?$AA?$AA@ 000000018005fdb8     LIBCMTD:winapinls.obj
 0002:0000ddc8       ??_C@_1M@BDEKKCA@?$AAl?$AAv?$AA?9?$AAl?$AAv?$AA?$AA@ 000000018005fdc8     LIBCMTD:winapinls.obj
 0002:0000ddd8       ??_C@_1M@ELCKCCJJ@?$AAm?$AAi?$AA?9?$AAn?$AAz?$AA?$AA@ 000000018005fdd8     LIBCMTD:winapinls.obj
 0002:0000dde8       ??_C@_1M@CBOOLAPA@?$AAm?$AAk?$AA?9?$AAm?$AAk?$AA?$AA@ 000000018005fde8     LIBCMTD:winapinls.obj
 0002:0000ddf8       ??_C@_1M@GPHNBJKN@?$AAm?$AAl?$AA?9?$AAi?$AAn?$AA?$AA@ 000000018005fdf8     LIBCMTD:winapinls.obj
 0002:0000de08       ??_C@_1M@PABJILIG@?$AAm?$AAn?$AA?9?$AAm?$AAn?$AA?$AA@ 000000018005fe08     LIBCMTD:winapinls.obj
 0002:0000de18       ??_C@_1M@FGBKKIPG@?$AAm?$AAr?$AA?9?$AAi?$AAn?$AA?$AA@ 000000018005fe18     LIBCMTD:winapinls.obj
 0002:0000de28       ??_C@_1M@NDBPDDAL@?$AAm?$AAs?$AA?9?$AAb?$AAn?$AA?$AA@ 000000018005fe28     LIBCMTD:winapinls.obj
 0002:0000de38       ??_C@_1M@OPIHOOPI@?$AAm?$AAs?$AA?9?$AAm?$AAy?$AA?$AA@ 000000018005fe38     LIBCMTD:winapinls.obj
 0002:0000de48       ??_C@_1M@PPDBCNFM@?$AAm?$AAt?$AA?9?$AAm?$AAt?$AA?$AA@ 000000018005fe48     LIBCMTD:winapinls.obj
 0002:0000de58       ??_C@_1M@KDJDKMDD@?$AAn?$AAb?$AA?9?$AAn?$AAo?$AA?$AA@ 000000018005fe58     LIBCMTD:winapinls.obj
 0002:0000de68       ??_C@_1M@KFCFLMJP@?$AAn?$AAl?$AA?9?$AAb?$AAe?$AA?$AA@ 000000018005fe68     LIBCMTD:winapinls.obj
 0002:0000de78       ??_C@_1M@KPOPDDGO@?$AAn?$AAl?$AA?9?$AAn?$AAl?$AA?$AA@ 000000018005fe78     LIBCMTD:winapinls.obj
 0002:0000de88       ??_C@_1M@LJKPEMLN@?$AAn?$AAn?$AA?9?$AAn?$AAo?$AA?$AA@ 000000018005fe88     LIBCMTD:winapinls.obj
 0002:0000de98       ??_C@_1M@BDGHHBFL@?$AAn?$AAs?$AA?9?$AAz?$AAa?$AA?$AA@ 000000018005fe98     LIBCMTD:winapinls.obj
 0002:0000dea8       ??_C@_1M@IDEHOAP@?$AAp?$AAa?$AA?9?$AAi?$AAn?$AA?$AA@ 000000018005fea8     LIBCMTD:winapinls.obj
 0002:0000deb8       ??_C@_1M@HDBKGOGH@?$AAp?$AAl?$AA?9?$AAp?$AAl?$AA?$AA@ 000000018005feb8     LIBCMTD:winapinls.obj
 0002:0000dec8       ??_C@_1M@LJLLCMEH@?$AAp?$AAt?$AA?9?$AAb?$AAr?$AA?$AA@ 000000018005fec8     LIBCMTD:winapinls.obj
 0002:0000ded8       ??_C@_1M@NCMONAAL@?$AAp?$AAt?$AA?9?$AAp?$AAt?$AA?$AA@ 000000018005fed8     LIBCMTD:winapinls.obj
 0002:0000dee8       ??_C@_1O@EAKMAJDN@?$AAq?$AAu?$AAz?$AA?9?$AAb?$AAo?$AA?$AA@ 000000018005fee8     LIBCMTD:winapinls.obj
 0002:0000def8       ??_C@_1O@BHHPIGDN@?$AAq?$AAu?$AAz?$AA?9?$AAe?$AAc?$AA?$AA@ 000000018005fef8     LIBCMTD:winapinls.obj
 0002:0000df08       ??_C@_1O@GBAPEKMJ@?$AAq?$AAu?$AAz?$AA?9?$AAp?$AAe?$AA?$AA@ 000000018005ff08     LIBCMTD:winapinls.obj
 0002:0000df18       ??_C@_1M@CLGLEFBO@?$AAr?$AAo?$AA?9?$AAr?$AAo?$AA?$AA@ 000000018005ff18     LIBCMTD:winapinls.obj
 0002:0000df28       ??_C@_1M@CEEDODME@?$AAr?$AAu?$AA?9?$AAr?$AAu?$AA?$AA@ 000000018005ff28     LIBCMTD:winapinls.obj
 0002:0000df38       ??_C@_1M@HPKKKMPP@?$AAs?$AAa?$AA?9?$AAi?$AAn?$AA?$AA@ 000000018005ff38     LIBCMTD:winapinls.obj
 0002:0000df48       ??_C@_1M@BKMAIGOJ@?$AAs?$AAe?$AA?9?$AAf?$AAi?$AA?$AA@ 000000018005ff48     LIBCMTD:winapinls.obj
 0002:0000df58       ??_C@_1M@NDPIFLFI@?$AAs?$AAe?$AA?9?$AAn?$AAo?$AA?$AA@ 000000018005ff58     LIBCMTD:winapinls.obj
 0002:0000df68       ??_C@_1M@DANKKHJ@?$AAs?$AAe?$AA?9?$AAs?$AAe?$AA?$AA@ 000000018005ff68     LIBCMTD:winapinls.obj
 0002:0000df78       ??_C@_1M@PNBLONPJ@?$AAs?$AAk?$AA?9?$AAs?$AAk?$AA?$AA@ 000000018005ff78     LIBCMTD:winapinls.obj
 0002:0000df88       ??_C@_1M@LFMODOAL@?$AAs?$AAl?$AA?9?$AAs?$AAi?$AA?$AA@ 000000018005ff88     LIBCMTD:winapinls.obj
 0002:0000df98       ??_C@_1O@DFKOMPG@?$AAs?$AAm?$AAa?$AA?9?$AAn?$AAo?$AA?$AA@ 000000018005ff98     LIBCMTD:winapinls.obj
 0002:0000dfa8       ??_C@_1O@NDKPBNNH@?$AAs?$AAm?$AAa?$AA?9?$AAs?$AAe?$AA?$AA@ 000000018005ffa8     LIBCMTD:winapinls.obj
 0002:0000dfb8       ??_C@_1O@PLLKBHAB@?$AAs?$AAm?$AAj?$AA?9?$AAn?$AAo?$AA?$AA@ 000000018005ffb8     LIBCMTD:winapinls.obj
 0002:0000dfc8       ??_C@_1O@CLEPOGCA@?$AAs?$AAm?$AAj?$AA?9?$AAs?$AAe?$AA?$AA@ 000000018005ffc8     LIBCMTD:winapinls.obj
 0002:0000dfd8       ??_C@_1O@DLGJGKMK@?$AAs?$AAm?$AAn?$AA?9?$AAf?$AAi?$AA?$AA@ 000000018005ffd8     LIBCMTD:winapinls.obj
 0002:0000dfe8       ??_C@_1O@OJDJGAJC@?$AAs?$AAm?$AAs?$AA?9?$AAf?$AAi?$AA?$AA@ 000000018005ffe8     LIBCMTD:winapinls.obj
 0002:0000dff8       ??_C@_1M@BOFOGHPB@?$AAs?$AAq?$AA?9?$AAa?$AAl?$AA?$AA@ 000000018005fff8     LIBCMTD:winapinls.obj
 0002:0000e008       ??_C@_1BG@LJBBIPGB@?$AAs?$AAr?$AA?9?$AAb?$AAa?$AA?9?$AAc?$AAy?$AAr?$AAl?$AA?$AA@ 0000000180060008     LIBCMTD:winapinls.obj
 0002:0000e020       ??_C@_1BG@JLBENFOE@?$AAs?$AAr?$AA?9?$AAb?$AAa?$AA?9?$AAl?$AAa?$AAt?$AAn?$AA?$AA@ 0000000180060020     LIBCMTD:winapinls.obj
 0002:0000e038       ??_C@_1BG@KODPNHE@?$AAs?$AAr?$AA?9?$AAs?$AAp?$AA?9?$AAc?$AAy?$AAr?$AAl?$AA?$AA@ 0000000180060038     LIBCMTD:winapinls.obj
 0002:0000e050       ??_C@_1BG@CIOGKHPB@?$AAs?$AAr?$AA?9?$AAs?$AAp?$AA?9?$AAl?$AAa?$AAt?$AAn?$AA?$AA@ 0000000180060050     LIBCMTD:winapinls.obj
 0002:0000e068       ??_C@_1M@NGFJLMAC@?$AAs?$AAv?$AA?9?$AAf?$AAi?$AA?$AA@ 0000000180060068     LIBCMTD:winapinls.obj
 0002:0000e078       ??_C@_1M@MPJEJAJC@?$AAs?$AAv?$AA?9?$AAs?$AAe?$AA?$AA@ 0000000180060078     LIBCMTD:winapinls.obj
 0002:0000e088       ??_C@_1M@MPNDHLFK@?$AAs?$AAw?$AA?9?$AAk?$AAe?$AA?$AA@ 0000000180060088     LIBCMTD:winapinls.obj
 0002:0000e098       ??_C@_1O@KOHBJJI@?$AAs?$AAy?$AAr?$AA?9?$AAs?$AAy?$AA?$AA@ 0000000180060098     LIBCMTD:winapinls.obj
 0002:0000e0a8       ??_C@_1M@LDCEFHA@?$AAt?$AAa?$AA?9?$AAi?$AAn?$AA?$AA@ 00000001800600a8     LIBCMTD:winapinls.obj
 0002:0000e0b8       ??_C@_1M@CNJOFAK@?$AAt?$AAe?$AA?9?$AAi?$AAn?$AA?$AA@ 00000001800600b8     LIBCMTD:winapinls.obj
 0002:0000e0c8       ??_C@_1M@GNAECACD@?$AAt?$AAh?$AA?9?$AAt?$AAh?$AA?$AA@ 00000001800600c8     LIBCMTD:winapinls.obj
 0002:0000e0d8       ??_C@_1M@CHBIHOJO@?$AAt?$AAn?$AA?9?$AAz?$AAa?$AA?$AA@ 00000001800600d8     LIBCMTD:winapinls.obj
 0002:0000e0e8       ??_C@_1M@GCCMIGPJ@?$AAt?$AAr?$AA?9?$AAt?$AAr?$AA?$AA@ 00000001800600e8     LIBCMTD:winapinls.obj
 0002:0000e0f8       ??_C@_1M@CELMCNBK@?$AAt?$AAt?$AA?9?$AAr?$AAu?$AA?$AA@ 00000001800600f8     LIBCMTD:winapinls.obj
 0002:0000e108       ??_C@_1M@KLMCELGA@?$AAu?$AAk?$AA?9?$AAu?$AAa?$AA?$AA@ 0000000180060108     LIBCMTD:winapinls.obj
 0002:0000e118       ??_C@_1M@EPAJJAJF@?$AAu?$AAr?$AA?9?$AAp?$AAk?$AA?$AA@ 0000000180060118     LIBCMTD:winapinls.obj
 0002:0000e128       ??_C@_1BG@GEGPMCDJ@?$AAu?$AAz?$AA?9?$AAu?$AAz?$AA?9?$AAc?$AAy?$AAr?$AAl?$AA?$AA@ 0000000180060128     LIBCMTD:winapinls.obj
 0002:0000e140       ??_C@_1BG@EGGKJILM@?$AAu?$AAz?$AA?9?$AAu?$AAz?$AA?9?$AAl?$AAa?$AAt?$AAn?$AA?$AA@ 0000000180060140     LIBCMTD:winapinls.obj
 0002:0000e158       ??_C@_1M@GFOCLFF@?$AAv?$AAi?$AA?9?$AAv?$AAn?$AA?$AA@ 0000000180060158     LIBCMTD:winapinls.obj
 0002:0000e168       ??_C@_1M@CPAMEDFI@?$AAx?$AAh?$AA?9?$AAz?$AAa?$AA?$AA@ 0000000180060168     LIBCMTD:winapinls.obj
 0002:0000e178       ??_C@_1O@EBKIFIGN@?$AAz?$AAh?$AA?9?$AAc?$AAh?$AAs?$AA?$AA@ 0000000180060178     LIBCMTD:winapinls.obj
 0002:0000e188       ??_C@_1O@NMHPGANE@?$AAz?$AAh?$AA?9?$AAc?$AAh?$AAt?$AA?$AA@ 0000000180060188     LIBCMTD:winapinls.obj
 0002:0000e198       ??_C@_1M@LPINJOMC@?$AAz?$AAh?$AA?9?$AAc?$AAn?$AA?$AA@ 0000000180060198     LIBCMTD:winapinls.obj
 0002:0000e1a8       ??_C@_1M@OCJEJODD@?$AAz?$AAh?$AA?9?$AAh?$AAk?$AA?$AA@ 00000001800601a8     LIBCMTD:winapinls.obj
 0002:0000e1b8       ??_C@_1M@DNDLJINH@?$AAz?$AAh?$AA?9?$AAm?$AAo?$AA?$AA@ 00000001800601b8     LIBCMTD:winapinls.obj
 0002:0000e1c8       ??_C@_1M@MBFDNDND@?$AAz?$AAh?$AA?9?$AAs?$AAg?$AA?$AA@ 00000001800601c8     LIBCMTD:winapinls.obj
 0002:0000e1d8       ??_C@_1M@IMEPLEPE@?$AAz?$AAh?$AA?9?$AAt?$AAw?$AA?$AA@ 00000001800601d8     LIBCMTD:winapinls.obj
 0002:0000e1e8       ??_C@_1M@BBGHNHJP@?$AAz?$AAu?$AA?9?$AAz?$AAa?$AA?$AA@ 00000001800601e8     LIBCMTD:winapinls.obj
 0002:0000e1f8       ??_C@_0CH@JPGODKFM@f?3?2dd?2vctools?2crt?2crtw32?2misc?2on@ 00000001800601f8     LIBCMTD:onexit.obj
 0002:0000e220       ??_C@_1FC@LKGACDMH@?$AAf?$AA?3?$AA?2?$AAd?$AAd?$AA?2?$AAv?$AAc?$AAt?$AAo?$AAo?$AAl?$AAs?$AA?2?$AAc?$AAr?$AAt?$AA?2?$AAc?$AAr?$AAt?$AAw?$AA3?$AA2?$AA?2?$AAs?$AAt?$AAd?$AAi?$AAo?$AA?2?$AA_@ 0000000180060220     LIBCMTD:_sftbuf.obj
 0002:0000e278       ??_C@_0CJ@KDJGPIJL@f?3?2dd?2vctools?2crt?2crtw32?2stdio?2_@ 0000000180060278     LIBCMTD:_sftbuf.obj
 0002:0000e2a8       ??_C@_1CO@KCKAACMI@?$AAf?$AAl?$AAa?$AAg?$AA?5?$AA?$DN?$AA?$DN?$AA?5?$AA0?$AA?5?$AA?$HM?$AA?$HM?$AA?5?$AAf?$AAl?$AAa?$AAg?$AA?5?$AA?$DN?$AA?$DN?$AA?5?$AA1?$AA?$AA@ 00000001800602a8     LIBCMTD:_sftbuf.obj
 0002:0000e2d8       ??_C@_1BO@KIJENGPH@?$AAs?$AAt?$AAr?$AAe?$AAa?$AAm?$AA?5?$AA?$CB?$AA?$DN?$AA?5?$AAN?$AAU?$AAL?$AAL?$AA?$AA@ 00000001800602d8     LIBCMTD:_freebuf.obj
 0002:0000e300       ??_C@_1FE@DBCNNJOP@?$AAf?$AA?3?$AA?2?$AAd?$AAd?$AA?2?$AAv?$AAc?$AAt?$AAo?$AAo?$AAl?$AAs?$AA?2?$AAc?$AAr?$AAt?$AA?2?$AAc?$AAr?$AAt?$AAw?$AA3?$AA2?$AA?2?$AAs?$AAt?$AAd?$AAi?$AAo?$AA?2?$AA_@ 0000000180060300     LIBCMTD:_freebuf.obj
 0002:0000e360       ??_C@_1FA@KMIJDCIC@?$AAf?$AA?3?$AA?2?$AAd?$AAd?$AA?2?$AAv?$AAc?$AAt?$AAo?$AAo?$AAl?$AAs?$AA?2?$AAc?$AAr?$AAt?$AA?2?$AAc?$AAr?$AAt?$AAw?$AA3?$AA2?$AA?2?$AAs?$AAt?$AAd?$AAi?$AAo?$AA?2?$AAo@ 0000000180060360     LIBCMTD:woutput.obj
 0002:0000e3b0       ??_C@_1BG@BBCDFOMA@?$AA_?$AAw?$AAo?$AAu?$AAt?$AAp?$AAu?$AAt?$AA_?$AAl?$AA?$AA@ 00000001800603b0     LIBCMTD:woutput.obj
 0002:0000e3d0       ??_C@_1EK@PNGFDECN@?$AA?$CI?$AA?$CC?$AA?8?$AAn?$AA?8?$AA?5?$AAf?$AAo?$AAr?$AAm?$AAa?$AAt?$AA?5?$AAs?$AAp?$AAe?$AAc?$AAi?$AAf?$AAi?$AAe?$AAr?$AA?5?$AAd?$AAi?$AAs?$AAa?$AAb?$AAl?$AAe?$AAd?$AA?$CC@ 00000001800603d0     LIBCMTD:woutput.obj
 0002:0000e420       ??_C@_0CI@CMOPBIOD@f?3?2dd?2vctools?2crt?2crtw32?2stdio?2o@ 0000000180060420     LIBCMTD:woutput.obj
 0002:0000e450       ??_C@_1FC@OBEHAONE@?$AAf?$AA?3?$AA?2?$AAd?$AAd?$AA?2?$AAv?$AAc?$AAt?$AAo?$AAo?$AAl?$AAs?$AA?2?$AAc?$AAr?$AAt?$AA?2?$AAc?$AAr?$AAt?$AAw?$AA3?$AA2?$AA?2?$AAs?$AAt?$AAd?$AAi?$AAo?$AA?2?$AA_@ 0000000180060450     LIBCMTD:_flsbuf.obj
 0002:0000e4b0       ??_C@_1HO@MLMGPAFH@?$AA?$CI?$AA?$CC?$AAi?$AAn?$AAc?$AAo?$AAn?$AAs?$AAi?$AAs?$AAt?$AAe?$AAn?$AAt?$AA?5?$AAI?$AAO?$AAB?$AA?5?$AAf?$AAi?$AAe?$AAl?$AAd?$AAs?$AA?$CC?$AA?0?$AA?5?$AAs?$AAt?$AAr?$AAe@ 00000001800604b0     LIBCMTD:_flsbuf.obj
 0002:0000e530       ??_C@_1BK@ONMFGLDB@?$AA_?$AAw?$AAo?$AAu?$AAt?$AAp?$AAu?$AAt?$AA_?$AAs?$AA_?$AAl?$AA?$AA@ 0000000180060530     LIBCMTD:woutputs.obj
 0002:0000e550       ??_C@_1EE@DMAIGNBG@?$AA?$CI?$AA?$CC?$AAI?$AAn?$AAc?$AAo?$AAr?$AAr?$AAe?$AAc?$AAt?$AA?5?$AAf?$AAo?$AAr?$AAm?$AAa?$AAt?$AA?5?$AAs?$AAp?$AAe?$AAc?$AAi?$AAf?$AAi?$AAe?$AAr?$AA?$CC?$AA?0?$AA?5?$AA0@ 0000000180060550     LIBCMTD:woutputs.obj
 0002:0000e5a0       ??_C@_1FK@LNCFKALM@?$AA?$CI?$AA?$CI?$AAs?$AAt?$AAa?$AAt?$AAe?$AA?5?$AA?$DN?$AA?$DN?$AA?5?$AAS?$AAT?$AA_?$AAN?$AAO?$AAR?$AAM?$AAA?$AAL?$AA?$CJ?$AA?5?$AA?$HM?$AA?$HM?$AA?5?$AA?$CI?$AAs?$AAt?$AAa?$AAt?$AAe?$AA?5@ 00000001800605a0     LIBCMTD:woutputs.obj
 0002:0000e600       ??_C@_1FC@NCPEPIBI@?$AA?$CI?$AA?$CI?$AA_?$AAD?$AAs?$AAt?$AA?$CJ?$AA?$CJ?$AA?5?$AA?$CB?$AA?$DN?$AA?5?$AAN?$AAU?$AAL?$AAL?$AA?5?$AA?$CG?$AA?$CG?$AA?5?$AA?$CI?$AA?$CI?$AA_?$AAS?$AAi?$AAz?$AAe?$AAI?$AAn?$AAB?$AAy?$AAt@ 0000000180060600     LIBCMTD:strcpy_s.obj
 0002:0000e658       ??_C@_1BC@CFJEPFGF@?$AAs?$AAt?$AAr?$AAc?$AAp?$AAy?$AA_?$AAs?$AA?$AA@ 0000000180060658     LIBCMTD:strcpy_s.obj
 0002:0000e670       ??_C@_1FI@JBLIKEIM@?$AAf?$AA?3?$AA?2?$AAd?$AAd?$AA?2?$AAv?$AAc?$AAt?$AAo?$AAo?$AAl?$AAs?$AA?2?$AAc?$AAr?$AAt?$AA?2?$AAc?$AAr?$AAt?$AAw?$AA3?$AA2?$AA?2?$AAc?$AAo?$AAn?$AAv?$AAe?$AAr?$AAt@ 0000000180060670     LIBCMTD:_fptostr.obj
 0002:0000e6c8       ??_C@_1BC@OPALLEB@?$AA_?$AAf?$AAp?$AAt?$AAo?$AAs?$AAt?$AAr?$AA?$AA@ 00000001800606c8     LIBCMTD:_fptostr.obj
 0002:0000e6e0       ??_C@_1GM@CEDLGDDI@?$AAs?$AAi?$AAz?$AAe?$AAI?$AAn?$AAB?$AAy?$AAt?$AAe?$AAs?$AA?5?$AA?$DO?$AA?5?$AA?$CI?$AAs?$AAi?$AAz?$AAe?$AA_?$AAt?$AA?$CJ?$AA?$CI?$AA?$CI?$AAd?$AAi?$AAg?$AAi?$AAt?$AAs?$AA?5?$AA?$DO@ 00000001800606e0     LIBCMTD:_fptostr.obj
 0002:0000e750       ??_C@_1BK@CLIEHFDF@?$AAp?$AAf?$AAl?$AAt?$AA?5?$AA?$CB?$AA?$DN?$AA?5?$AAN?$AAU?$AAL?$AAL?$AA?$AA@ 0000000180060750     LIBCMTD:_fptostr.obj
 0002:0000e770       ??_C@_1EK@LJBJCHGA@?$AAf?$AA?3?$AA?2?$AAd?$AAd?$AA?2?$AAv?$AAc?$AAt?$AAo?$AAo?$AAl?$AAs?$AA?2?$AAc?$AAr?$AAt?$AA?2?$AAf?$AAp?$AAw?$AA3?$AA2?$AA?2?$AAc?$AAo?$AAn?$AAv?$AA?2?$AAc?$AAf?$AAo@ 0000000180060770     LIBCMTD:cfout.obj
 0002:0000e7c0       ??_C@_1BC@BPMMEHLK@?$AA_?$AAf?$AAl?$AAt?$AAo?$AAu?$AAt?$AA2?$AA?$AA@ 00000001800607c0     LIBCMTD:cfout.obj
 0002:0000e7e0       ??_C@_1FK@KODCOBKF@?$AAs?$AAt?$AAr?$AAc?$AAp?$AAy?$AA_?$AAs?$AA?$CI?$AAr?$AAe?$AAs?$AAu?$AAl?$AAt?$AAs?$AAt?$AAr?$AA?0?$AA?5?$AAr?$AAe?$AAs?$AAu?$AAl?$AAt?$AAs?$AAi?$AAz?$AAe?$AA?0?$AA?5@ 00000001800607e0     LIBCMTD:cfout.obj
 0002:0000e868       ??_C@_1BC@HGPNAKGC@?$AAs?$AAt?$AAr?$AAc?$AAa?$AAt?$AA_?$AAs?$AA?$AA@ 0000000180060868     LIBCMTD:strcat_s.obj
 0002:0000e880       ??_C@_1O@GIMBNLEI@?$AAx?$AAt?$AAo?$AAa?$AA_?$AAs?$AA?$AA@ 0000000180060880     LIBCMTD:xtoas.obj
 0002:0000e890       ??_C@_1BE@EEKACIGI@?$AAs?$AA?5?$AA?$CB?$AA?$DN?$AA?5?$AAN?$AAU?$AAL?$AAL?$AA?$AA@ 0000000180060890     LIBCMTD:mbstowcs.obj
 0002:0000e8b0       ??_C@_1FI@DADFCCMF@?$AAf?$AA?3?$AA?2?$AAd?$AAd?$AA?2?$AAv?$AAc?$AAt?$AAo?$AAo?$AAl?$AAs?$AA?2?$AAc?$AAr?$AAt?$AA?2?$AAc?$AAr?$AAt?$AAw?$AA3?$AA2?$AA?2?$AAc?$AAo?$AAn?$AAv?$AAe?$AAr?$AAt@ 00000001800608b0     LIBCMTD:mbstowcs.obj
 0002:0000e908       ??_C@_1CG@JEHFHLNG@?$AA_?$AAm?$AAb?$AAs?$AAt?$AAo?$AAw?$AAc?$AAs?$AA_?$AAl?$AA_?$AAh?$AAe?$AAl?$AAp?$AAe?$AAr?$AA?$AA@ 0000000180060908     LIBCMTD:mbstowcs.obj
 0002:0000e930       ??_C@_1JA@JKDFMOPO@?$AA?$CI?$AAp?$AAw?$AAc?$AAs?$AA?5?$AA?$DN?$AA?$DN?$AA?5?$AAN?$AAU?$AAL?$AAL?$AA?5?$AA?$CG?$AA?$CG?$AA?5?$AAs?$AAi?$AAz?$AAe?$AAI?$AAn?$AAW?$AAo?$AAr?$AAd?$AAs?$AA?5?$AA?$DN?$AA?$DN?$AA?5@ 0000000180060930     LIBCMTD:mbstowcs.obj
 0002:0000e9c0       ??_C@_1BM@PHENIGHD@?$AA_?$AAm?$AAb?$AAs?$AAt?$AAo?$AAw?$AAc?$AAs?$AA_?$AAs?$AA_?$AAl?$AA?$AA@ 00000001800609c0     LIBCMTD:mbstowcs.obj
 0002:0000e9e0       ??_C@_1CM@LLECFMFH@?$AAb?$AAu?$AAf?$AAf?$AAe?$AAr?$AAS?$AAi?$AAz?$AAe?$AA?5?$AA?$DM?$AA?$DN?$AA?5?$AAI?$AAN?$AAT?$AA_?$AAM?$AAA?$AAX?$AA?$AA@ 00000001800609e0     LIBCMTD:mbstowcs.obj
 0002:0000ea10       ??_C@_1CO@JNPEPJAL@?$AAr?$AAe?$AAt?$AAs?$AAi?$AAz?$AAe?$AA?5?$AA?$DM?$AA?$DN?$AA?5?$AAs?$AAi?$AAz?$AAe?$AAI?$AAn?$AAW?$AAo?$AAr?$AAd?$AAs?$AA?$AA@ 0000000180060a10     LIBCMTD:mbstowcs.obj
 0002:0000ea40       ??_C@_1BK@OIBENBPM@?$AAp?$AAw?$AAc?$AAs?$AA?5?$AA?$CB?$AA?$DN?$AA?5?$AAN?$AAU?$AAL?$AAL?$AA?$AA@ 0000000180060a40     LIBCMTD:wcstombs.obj
 0002:0000ea60       ??_C@_1FI@GCFLNCOB@?$AAf?$AA?3?$AA?2?$AAd?$AAd?$AA?2?$AAv?$AAc?$AAt?$AAo?$AAo?$AAl?$AAs?$AA?2?$AAc?$AAr?$AAt?$AA?2?$AAc?$AAr?$AAt?$AAw?$AA3?$AA2?$AA?2?$AAc?$AAo?$AAn?$AAv?$AAe?$AAr?$AAt@ 0000000180060a60     LIBCMTD:wcstombs.obj
 0002:0000eab8       ??_C@_1CG@LLJCAOHF@?$AA_?$AAw?$AAc?$AAs?$AAt?$AAo?$AAm?$AAb?$AAs?$AA_?$AAl?$AA_?$AAh?$AAe?$AAl?$AAp?$AAe?$AAr?$AA?$AA@ 0000000180060ab8     LIBCMTD:wcstombs.obj
 0002:0000eae0       ??_C@_1IM@MFGKHGBP@?$AA?$CI?$AAd?$AAs?$AAt?$AA?5?$AA?$CB?$AA?$DN?$AA?5?$AAN?$AAU?$AAL?$AAL?$AA?5?$AA?$CG?$AA?$CG?$AA?5?$AAs?$AAi?$AAz?$AAe?$AAI?$AAn?$AAB?$AAy?$AAt?$AAe?$AAs?$AA?5?$AA?$DO?$AA?5?$AA0?$AA?$CJ@ 0000000180060ae0     LIBCMTD:wcstombs.obj
 0002:0000eb70       ??_C@_1BM@BDMCLLDL@?$AA_?$AAw?$AAc?$AAs?$AAt?$AAo?$AAm?$AAb?$AAs?$AA_?$AAs?$AA_?$AAl?$AA?$AA@ 0000000180060b70     LIBCMTD:wcstombs.obj
 0002:0000eb90       ??_C@_1CM@KEOGBFLI@?$AAs?$AAi?$AAz?$AAe?$AAI?$AAn?$AAB?$AAy?$AAt?$AAe?$AAs?$AA?5?$AA?$DO?$AA?5?$AAr?$AAe?$AAt?$AAs?$AAi?$AAz?$AAe?$AA?$AA@ 0000000180060b90     LIBCMTD:wcstombs.obj
 0002:0000ebc0       ??_C@_1FE@CKCGICM@?$AAf?$AA?3?$AA?2?$AAd?$AAd?$AA?2?$AAv?$AAc?$AAt?$AAo?$AAo?$AAl?$AAs?$AA?2?$AAc?$AAr?$AAt?$AA?2?$AAc?$AAr?$AAt?$AAw?$AA3?$AA2?$AA?2?$AAs?$AAt?$AAd?$AAi?$AAo?$AA?2?$AAv@ 0000000180060bc0     LIBCMTD:vsnprnc.obj
 0002:0000ec18       ??_C@_1CE@PCFPEIFI@?$AA_?$AAv?$AAs?$AAn?$AAp?$AAr?$AAi?$AAn?$AAt?$AAf?$AA_?$AAh?$AAe?$AAl?$AAp?$AAe?$AAr?$AA?$AA@ 0000000180060c18     LIBCMTD:vsnprnc.obj
 0002:0000ec40       ??_C@_1BM@BLJALHEF@?$AA_?$AAv?$AAs?$AAp?$AAr?$AAi?$AAn?$AAt?$AAf?$AA_?$AAs?$AA_?$AAl?$AA?$AA@ 0000000180060c40     LIBCMTD:vsnprnc.obj
 0002:0000ec60       ??_C@_1EE@OKCKIGFK@?$AAs?$AAt?$AAr?$AAi?$AAn?$AAg?$AA?5?$AA?$CB?$AA?$DN?$AA?5?$AAN?$AAU?$AAL?$AAL?$AA?5?$AA?$CG?$AA?$CG?$AA?5?$AAs?$AAi?$AAz?$AAe?$AAI?$AAn?$AAB?$AAy?$AAt?$AAe?$AAs?$AA?5?$AA?$DO?$AA?5@ 0000000180060c60     LIBCMTD:vsnprnc.obj
 0002:0000eca8       ??_C@_1BO@MMPELNIM@?$AA_?$AAv?$AAs?$AAn?$AAp?$AAr?$AAi?$AAn?$AAt?$AAf?$AA_?$AAs?$AA_?$AAl?$AA?$AA@ 0000000180060ca8     LIBCMTD:vsnprnc.obj
 0002:0000ecd0       ??_C@_1FA@HHFEGMDA@?$AAf?$AA?3?$AA?2?$AAd?$AAd?$AA?2?$AAv?$AAc?$AAt?$AAo?$AAo?$AAl?$AAs?$AA?2?$AAc?$AAr?$AAt?$AA?2?$AAc?$AAr?$AAt?$AAw?$AA3?$AA2?$AA?2?$AAs?$AAt?$AAd?$AAi?$AAo?$AA?2?$AAf@ 0000000180060cd0     LIBCMTD:fclose.obj
 0002:0000ed20       ??_C@_1O@EGMJNCOI@?$AAf?$AAc?$AAl?$AAo?$AAs?$AAe?$AA?$AA@ 0000000180060d20     LIBCMTD:fclose.obj
 0002:0000ed30       ??_C@_1BO@JINCABEC@?$AA_?$AAf?$AAc?$AAl?$AAo?$AAs?$AAe?$AA_?$AAn?$AAo?$AAl?$AAo?$AAc?$AAk?$AA?$AA@ 0000000180060d30     LIBCMTD:fclose.obj
 0002:0000ed50       ??_C@_1NC@EINCOKCO@?$AA_?$AAl?$AAo?$AAc?$AA_?$AAu?$AAp?$AAd?$AAa?$AAt?$AAe?$AA?4?$AAG?$AAe?$AAt?$AAL?$AAo?$AAc?$AAa?$AAl?$AAe?$AAT?$AA?$CI?$AA?$CJ?$AA?9?$AA?$DO?$AAl?$AAo?$AAc?$AAi?$AAn?$AAf@ 0000000180060d50     LIBCMTD:mbtowc.obj
 0002:0000ee30       ??_C@_1FE@EKLDGEI@?$AAf?$AA?3?$AA?2?$AAd?$AAd?$AA?2?$AAv?$AAc?$AAt?$AAo?$AAo?$AAl?$AAs?$AA?2?$AAc?$AAr?$AAt?$AA?2?$AAc?$AAr?$AAt?$AAw?$AA3?$AA2?$AA?2?$AAc?$AAo?$AAn?$AAv?$AAe?$AAr?$AAt@ 0000000180060e30     LIBCMTD:mbtowc.obj
 0002:0000ee84       ??_C@_06OJHGLDPL@?$CInull?$CJ?$AA@ 0000000180060e84     LIBCMTD:output.obj
 0002:0000ee90       ??_C@_1O@CEDCILHN@?$AA?$CI?$AAn?$AAu?$AAl?$AAl?$AA?$CJ?$AA?$AA@ 0000000180060e90     LIBCMTD:output.obj
 0002:0000eea0       __lookuptable              0000000180060ea0     LIBCMTD:output.obj
 0002:0000ef00       ??_C@_1BAA@ODEGEDCK@?$AA?$CI?$AA?5?$AA?$CI?$AA_?$AAS?$AAt?$AAr?$AAe?$AAa?$AAm?$AA?9?$AA?$DO?$AA_?$AAf?$AAl?$AAa?$AAg?$AA?5?$AA?$CG?$AA?5?$AA_?$AAI?$AAO?$AAS?$AAT?$AAR?$AAG?$AA?$CJ?$AA?5?$AA?$HM?$AA?$HM?$AA?5@ 0000000180060f00     LIBCMTD:output.obj
 0002:0000f000       ??_C@_1CC@IFFHEMNF@?$AA?$CI?$AAc?$AAh?$AA?5?$AA?$CB?$AA?$DN?$AA?5?$AA_?$AAT?$AA?$CI?$AA?8?$AA?2?$AA0?$AA?8?$AA?$CJ?$AA?$CJ?$AA?$AA@ 0000000180061000     LIBCMTD:output.obj
 0002:0000f030       ??_C@_1FC@BHNGAOAE@?$AAf?$AA?3?$AA?2?$AAd?$AAd?$AA?2?$AAv?$AAc?$AAt?$AAo?$AAo?$AAl?$AAs?$AA?2?$AAc?$AAr?$AAt?$AA?2?$AAc?$AAr?$AAt?$AAw?$AA3?$AA2?$AA?2?$AAm?$AAi?$AAs?$AAc?$AA?2?$AAd?$AAb@ 0000000180061030     LIBCMTD:dbgdel.obj
 0002:0000f090       ??_7type_info@@6B@         0000000180061090     LIBCMTD:typinfo.obj
 0002:0000f0a0       ??_7exception@std@@6B@     00000001800610a0     LIBCMTD:stdexcpt.obj
 0002:0000f0b0       ??_C@_0BC@EOODALEL@Unknown?5exception?$AA@ 00000001800610b0     LIBCMTD:stdexcpt.obj
 0002:0000f110       __lookuptable_s            0000000180061110     LIBCMTD:outputs.obj
 0002:0000f170       ??_C@_1BI@COFBLHCG@?$AA_?$AAo?$AAu?$AAt?$AAp?$AAu?$AAt?$AA_?$AAs?$AA_?$AAl?$AA?$AA@ 0000000180061170     LIBCMTD:outputs.obj
 0002:0000f188       ??_C@_1CA@MBDBOHIB@?$AA_?$AAL?$AAo?$AAc?$AAa?$AAl?$AAe?$AA?5?$AA?$CB?$AA?$DN?$AA?5?$AAN?$AAU?$AAL?$AAL?$AA?$AA@ 0000000180061188     LIBCMTD:strgtold.obj
 0002:0000f1b0       ??_C@_1FO@OFJNJPKB@?$AAf?$AA?3?$AA?2?$AAd?$AAd?$AA?2?$AAv?$AAc?$AAt?$AAo?$AAo?$AAl?$AAs?$AA?2?$AAc?$AAr?$AAt?$AA?2?$AAf?$AAp?$AAw?$AA3?$AA2?$AA?2?$AAi?$AAn?$AAc?$AAl?$AAu?$AAd?$AAe?$AA?2@ 00000001800611b0     LIBCMTD:strgtold.obj
 0002:0000f210       ??_C@_1BO@IHLJHOPI@?$AA_?$AA_?$AAs?$AAt?$AAr?$AAg?$AAt?$AAo?$AAl?$AAd?$AA1?$AA2?$AA_?$AAl?$AA?$AA@ 0000000180061210     LIBCMTD:strgtold.obj
 0002:0000f230       ??_C@_1EO@IKHIJFCK@?$AAf?$AA?3?$AA?2?$AAd?$AAd?$AA?2?$AAv?$AAc?$AAt?$AAo?$AAo?$AAl?$AAs?$AA?2?$AAc?$AAr?$AAt?$AA?2?$AAf?$AAp?$AAw?$AA3?$AA2?$AA?2?$AAc?$AAo?$AAn?$AAv?$AA?2?$AAx?$AA1?$AA0@ 0000000180061230     LIBCMTD:x10fout.obj
 0002:0000f280       ??_C@_1BI@ELMAAFLN@?$AA$?$AAI?$AA1?$AA0?$AA_?$AAO?$AAU?$AAT?$AAP?$AAU?$AAT?$AA?$AA@ 0000000180061280     LIBCMTD:x10fout.obj
 0002:0000f2a0       ??_C@_1EG@CDDBFNOB@?$AAs?$AAt?$AAr?$AAc?$AAp?$AAy?$AA_?$AAs?$AA?$CI?$AAf?$AAo?$AAs?$AA?9?$AA?$DO?$AAm?$AAa?$AAn?$AA?0?$AA?5?$AA2?$AA1?$AA?$CL?$AA1?$AA?0?$AA?5?$AA?$CC?$AA1?$AA?$CD?$AAS?$AAN?$AAA?$AAN@ 00000001800612a0     LIBCMTD:x10fout.obj
 0002:0000f2e8       ??_C@_06PGGFOGJG@1?$CDSNAN?$AA@ 00000001800612e8     LIBCMTD:x10fout.obj
 0002:0000f2f0       ??_C@_1EE@MADEBIHF@?$AAs?$AAt?$AAr?$AAc?$AAp?$AAy?$AA_?$AAs?$AA?$CI?$AAf?$AAo?$AAs?$AA?9?$AA?$DO?$AAm?$AAa?$AAn?$AA?0?$AA?5?$AA2?$AA1?$AA?$CL?$AA1?$AA?0?$AA?5?$AA?$CC?$AA1?$AA?$CD?$AAI?$AAN?$AAD?$AA?$CC@ 00000001800612f0     LIBCMTD:x10fout.obj
 0002:0000f334       ??_C@_05PHHOCPM@1?$CDIND?$AA@ 0000000180061334     LIBCMTD:x10fout.obj
 0002:0000f340       ??_C@_1EE@ICBBBPAI@?$AAs?$AAt?$AAr?$AAc?$AAp?$AAy?$AA_?$AAs?$AA?$CI?$AAf?$AAo?$AAs?$AA?9?$AA?$DO?$AAm?$AAa?$AAn?$AA?0?$AA?5?$AA2?$AA1?$AA?$CL?$AA1?$AA?0?$AA?5?$AA?$CC?$AA1?$AA?$CD?$AAI?$AAN?$AAF?$AA?$CC@ 0000000180061340     LIBCMTD:x10fout.obj
 0002:0000f384       ??_C@_05DNEBIAHO@1?$CDINF?$AA@ 0000000180061384     LIBCMTD:x10fout.obj
 0002:0000f390       ??_C@_1EG@MCFPJJEM@?$AAs?$AAt?$AAr?$AAc?$AAp?$AAy?$AA_?$AAs?$AA?$CI?$AAf?$AAo?$AAs?$AA?9?$AA?$DO?$AAm?$AAa?$AAn?$AA?0?$AA?5?$AA2?$AA1?$AA?$CL?$AA1?$AA?0?$AA?5?$AA?$CC?$AA1?$AA?$CD?$AAQ?$AAN?$AAA?$AAN@ 0000000180061390     LIBCMTD:x10fout.obj
 0002:0000f3d8       ??_C@_06IMKFLFPG@1?$CDQNAN?$AA@ 00000001800613d8     LIBCMTD:x10fout.obj
 0002:0000f3e0       ??_C@_1EO@EJLBBGEB@?$AAf?$AA?3?$AA?2?$AAd?$AAd?$AA?2?$AAv?$AAc?$AAt?$AAo?$AAo?$AAl?$AAs?$AA?2?$AAc?$AAr?$AAt?$AA?2?$AAc?$AAr?$AAt?$AAw?$AA3?$AA2?$AA?2?$AAl?$AAo?$AAw?$AAi?$AAo?$AA?2?$AAc@ 00000001800613e0     LIBCMTD:close.obj
 0002:0000f430       ??_C@_1O@EDEJGJBM@?$AA_?$AAc?$AAl?$AAo?$AAs?$AAe?$AA?$AA@ 0000000180061430     LIBCMTD:close.obj
 0002:0000f440       ??_C@_1BA@BALFACEM@?$AAC?$AAO?$AAN?$AAO?$AAU?$AAT?$AA$?$AA?$AA@ 0000000180061440     LIBCMTD:initcon.obj
 0002:0000f450       ??_C@_1CO@HFMIILNF@?$AAs?$AAi?$AAz?$AAe?$AAI?$AAn?$AAB?$AAy?$AAt?$AAe?$AAs?$AA?5?$AA?$DM?$AA?$DN?$AA?5?$AAI?$AAN?$AAT?$AA_?$AAM?$AAA?$AAX?$AA?$AA@ 0000000180061450     LIBCMTD:wctomb.obj
 0002:0000f480       ??_C@_1FE@GKMDCPPB@?$AAf?$AA?3?$AA?2?$AAd?$AAd?$AA?2?$AAv?$AAc?$AAt?$AAo?$AAo?$AAl?$AAs?$AA?2?$AAc?$AAr?$AAt?$AA?2?$AAc?$AAr?$AAt?$AAw?$AA3?$AA2?$AA?2?$AAc?$AAo?$AAn?$AAv?$AAe?$AAr?$AAt@ 0000000180061480     LIBCMTD:wctomb.obj
 0002:0000f4d8       ??_C@_1BI@IEADNOHF@?$AA_?$AAw?$AAc?$AAt?$AAo?$AAm?$AAb?$AA_?$AAs?$AA_?$AAl?$AA?$AA@ 00000001800614d8     LIBCMTD:wctomb.obj
 0002:0000f4f0       ??_C@_1CK@GELGGBDK@?$AAp?$AAN?$AAo?$AAd?$AAe?$AA?9?$AA?$DO?$AA_?$AAN?$AAe?$AAx?$AAt?$AA?5?$AA?$CB?$AA?$DN?$AA?5?$AAN?$AAU?$AAL?$AAL?$AA?$AA@ 00000001800614f0     LIBCMTD:typname.obj
 0002:0000f520       ??_C@_1FA@KAJOMDBA@?$AAf?$AA?3?$AA?2?$AAd?$AAd?$AA?2?$AAv?$AAc?$AAt?$AAo?$AAo?$AAl?$AAs?$AA?2?$AAc?$AAr?$AAt?$AA?2?$AAc?$AAr?$AAt?$AAw?$AA3?$AA2?$AA?2?$AAe?$AAh?$AA?2?$AAt?$AAy?$AAp?$AAn@ 0000000180061520     LIBCMTD:typname.obj
 0002:0000f888       ??_C@_08EHJDFFNH@__based?$CI?$AA@ 0000000180061888     LIBCMTD:undname.obj
 0002:0000f898       ??_C@_07KOLFKCDI@__cdecl?$AA@ 0000000180061898     LIBCMTD:undname.obj
 0002:0000f8a0       ??_C@_08GHMPAG@__pascal?$AA@ 00000001800618a0     LIBCMTD:undname.obj
 0002:0000f8b0       ??_C@_09IFJBGAPI@__stdcall?$AA@ 00000001800618b0     LIBCMTD:undname.obj
 0002:0000f8c0       ??_C@_0L@NPHFGOKO@__thiscall?$AA@ 00000001800618c0     LIBCMTD:undname.obj
 0002:0000f8d0       ??_C@_0L@JMKHOMEK@__fastcall?$AA@ 00000001800618d0     LIBCMTD:undname.obj
 0002:0000f8e0       ??_C@_0N@BCKKPABJ@__vectorcall?$AA@ 00000001800618e0     LIBCMTD:undname.obj
 0002:0000f8f0       ??_C@_09HIJEGCPM@__clrcall?$AA@ 00000001800618f0     LIBCMTD:undname.obj
 0002:0000f8fc       ??_C@_06GHPCKEAG@__eabi?$AA@ 00000001800618fc     LIBCMTD:undname.obj
 0002:0000f908       ??_C@_07JOMMBBKO@__ptr64?$AA@ 0000000180061908     LIBCMTD:undname.obj
 0002:0000f910       ??_C@_0L@PILCLIHE@__restrict?$AA@ 0000000180061910     LIBCMTD:undname.obj
 0002:0000f920       ??_C@_0M@GFIIJFMG@__unaligned?$AA@ 0000000180061920     LIBCMTD:undname.obj
 0002:0000f930       ??_C@_09DHDLOLLB@restrict?$CI?$AA@ 0000000180061930     LIBCMTD:undname.obj
 0002:0000f93c       ??_C@_04NIHEBCM@?5new?$AA@ 000000018006193c     LIBCMTD:undname.obj
 0002:0000f948       ??_C@_07FPCDHGMM@?5delete?$AA@ 0000000180061948     LIBCMTD:undname.obj
 0002:0000f950       ??_C@_01NEMOKFLO@?$DN?$AA@ 0000000180061950     LIBCMTD:undname.obj
 0002:0000f954       ??_C@_02GPIOPFAK@?$DO?$DO?$AA@ 0000000180061954     LIBCMTD:undname.obj
 0002:0000f958       ??_C@_02FODMEDOG@?$DM?$DM?$AA@ 0000000180061958     LIBCMTD:undname.obj
 0002:0000f95c       ??_C@_01DCLJPIOD@?$CB?$AA@ 000000018006195c     LIBCMTD:undname.obj
 0002:0000f960       ??_C@_02EGOFBIJA@?$DN?$DN?$AA@ 0000000180061960     LIBCMTD:undname.obj
 0002:0000f964       ??_C@_02FDNJECIE@?$CB?$DN?$AA@ 0000000180061964     LIBCMTD:undname.obj
 0002:0000f968       ??_C@_02GPECMEKF@?$FL?$FN?$AA@ 0000000180061968     LIBCMTD:undname.obj
 0002:0000f970       ??_C@_08LHJFAFGD@operator?$AA@ 0000000180061970     LIBCMTD:undname.obj
 0002:0000f97c       ??_C@_02HBOOOICD@?9?$DO?$AA@ 000000018006197c     LIBCMTD:undname.obj
 0002:0000f980       ??_C@_01NBENCBCI@?$CK?$AA@ 0000000180061980     LIBCMTD:undname.obj
 0002:0000f984       ??_C@_02ECNGHCIF@?$CL?$CL?$AA@ 0000000180061984     LIBCMTD:undname.obj
 0002:0000f988       ??_C@_02BAABKJLB@?9?9?$AA@ 0000000180061988     LIBCMTD:undname.obj
 0002:0000f98c       ??_C@_01JOAMLHOP@?9?$AA@   000000018006198c     LIBCMTD:undname.obj
 0002:0000f990       ??_C@_01MIFGBAGJ@?$CL?$AA@ 0000000180061990     LIBCMTD:undname.obj
 0002:0000f994       ??_C@_01HNPIGOCE@?$CG?$AA@ 0000000180061994     LIBCMTD:undname.obj
 0002:0000f998       ??_C@_03MNHNFDLC@?9?$DO?$CK?$AA@ 0000000180061998     LIBCMTD:undname.obj
 0002:0000f99c       ??_C@_01KMDKNFGN@?1?$AA@   000000018006199c     LIBCMTD:undname.obj
 0002:0000f9a0       ??_C@_01FGNFDNOH@?$CF?$AA@ 00000001800619a0     LIBCMTD:undname.obj
 0002:0000f9a4       ??_C@_01MNNFJEPP@?$DM?$AA@ 00000001800619a4     LIBCMTD:undname.obj
 0002:0000f9a8       ??_C@_02EHCHHCKH@?$DM?$DN?$AA@ 00000001800619a8     LIBCMTD:undname.obj
 0002:0000f9ac       ??_C@_01PPODPGHN@?$DO?$AA@ 00000001800619ac     LIBCMTD:undname.obj
 0002:0000f9b0       ??_C@_02EEKDKGMJ@?$DO?$DN?$AA@ 00000001800619b0     LIBCMTD:undname.obj
 0002:0000f9b4       ??_C@_01IHBHIGKO@?0?$AA@   00000001800619b4     LIBCMTD:undname.obj
 0002:0000f9b8       ??_C@_02HCKGKOFO@?$CI?$CJ?$AA@ 00000001800619b8     LIBCMTD:undname.obj
 0002:0000f9bc       ??_C@_01PJKLJHI@?$HO?$AA@  00000001800619bc     LIBCMTD:undname.obj
 0002:0000f9c0       ??_C@_01JKBOJNNK@?$FO?$AA@ 00000001800619c0     LIBCMTD:undname.obj
 0002:0000f9c4       ??_C@_01DNKMNLPK@?$HM?$AA@ 00000001800619c4     LIBCMTD:undname.obj
 0002:0000f9c8       ??_C@_02PPKAJPJL@?$CG?$CG?$AA@ 00000001800619c8     LIBCMTD:undname.obj
 0002:0000f9cc       ??_C@_02NONPIBCD@?$HM?$HM?$AA@ 00000001800619cc     LIBCMTD:undname.obj
 0002:0000f9d0       ??_C@_02FPIMKNGF@?$CK?$DN?$AA@ 00000001800619d0     LIBCMTD:undname.obj
 0002:0000f9d4       ??_C@_02FOEOMHFC@?$CL?$DN?$AA@ 00000001800619d4     LIBCMTD:undname.obj
 0002:0000f9d8       ??_C@_02FKMDLLOA@?9?$DN?$AA@ 00000001800619d8     LIBCMTD:undname.obj
 0002:0000f9dc       ??_C@_02FJEHGPIO@?1?$DN?$AA@ 00000001800619dc     LIBCMTD:undname.obj
 0002:0000f9e0       ??_C@_02FENAOKFI@?$CF?$DN?$AA@ 00000001800619e0     LIBCMTD:undname.obj
 0002:0000f9e4       ??_C@_03IKFCCPFF@?$DO?$DO?$DN?$AA@ 00000001800619e4     LIBCMTD:undname.obj
 0002:0000f9e8       ??_C@_03CDNPDDLA@?$DM?$DM?$DN?$AA@ 00000001800619e8     LIBCMTD:undname.obj
 0002:0000f9ec       ??_C@_02FGJGFEAB@?$CG?$DN?$AA@ 00000001800619ec     LIBCMTD:undname.obj
 0002:0000f9f0       ??_C@_02DHLNPPGH@?$HM?$DN?$AA@ 00000001800619f0     LIBCMTD:undname.obj
 0002:0000f9f4       ??_C@_02MHEGNOJ@?$FO?$DN?$AA@ 00000001800619f4     LIBCMTD:undname.obj
 0002:0000f9f8       ??_C@_09IFPLHPGF@?$GAvftable?8?$AA@ 00000001800619f8     LIBCMTD:undname.obj
 0002:0000fa08       ??_C@_09BLBHBJP@?$GAvbtable?8?$AA@ 0000000180061a08     LIBCMTD:undname.obj
 0002:0000fa18       ??_C@_07FEEIOKP@?$GAvcall?8?$AA@ 0000000180061a18     LIBCMTD:undname.obj
 0002:0000fa20       ??_C@_08LLFFHHDJ@?$GAtypeof?8?$AA@ 0000000180061a20     LIBCMTD:undname.obj
 0002:0000fa30       ??_C@_0BF@KDPPACIK@?$GAlocal?5static?5guard?8?$AA@ 0000000180061a30     LIBCMTD:undname.obj
 0002:0000fa48       ??_C@_08OBABFOLI@?$GAstring?8?$AA@ 0000000180061a48     LIBCMTD:undname.obj
 0002:0000fa58       ??_C@_0BD@JDLKDPAB@?$GAvbase?5destructor?8?$AA@ 0000000180061a58     LIBCMTD:undname.obj
 0002:0000fa70       ??_C@_0BN@DEGPLNFK@?$GAvector?5deleting?5destructor?8?$AA@ 0000000180061a70     LIBCMTD:undname.obj
 0002:0000fa90       ??_C@_0BO@OBMKPJIG@?$GAdefault?5constructor?5closure?8?$AA@ 0000000180061a90     LIBCMTD:undname.obj
 0002:0000fab0       ??_C@_0BN@IMDCHIKM@?$GAscalar?5deleting?5destructor?8?$AA@ 0000000180061ab0     LIBCMTD:undname.obj
 0002:0000fad0       ??_C@_0BO@PFGOCPJJ@?$GAvector?5constructor?5iterator?8?$AA@ 0000000180061ad0     LIBCMTD:undname.obj
 0002:0000faf0       ??_C@_0BN@LFPFMEDL@?$GAvector?5destructor?5iterator?8?$AA@ 0000000180061af0     LIBCMTD:undname.obj
 0002:0000fb10       ??_C@_0CE@IKBNEHA@?$GAvector?5vbase?5constructor?5iterat@ 0000000180061b10     LIBCMTD:undname.obj
 0002:0000fb38       ??_C@_0BL@NILFHHPC@?$GAvirtual?5displacement?5map?8?$AA@ 0000000180061b38     LIBCMTD:undname.obj
 0002:0000fb58       ??_C@_0CB@JONCMFFK@?$GAeh?5vector?5constructor?5iterator?8@ 0000000180061b58     LIBCMTD:undname.obj
 0002:0000fb80       ??_C@_0CA@GCEOPDGL@?$GAeh?5vector?5destructor?5iterator?8?$AA@ 0000000180061b80     LIBCMTD:undname.obj
 0002:0000fba0       ??_C@_0CH@OOJPLCPH@?$GAeh?5vector?5vbase?5constructor?5ite@ 0000000180061ba0     LIBCMTD:undname.obj
 0002:0000fbc8       ??_C@_0BL@LLKPOHJI@?$GAcopy?5constructor?5closure?8?$AA@ 0000000180061bc8     LIBCMTD:undname.obj
 0002:0000fbe8       ??_C@_0BA@KBCDOMBN@?$GAudt?5returning?8?$AA@ 0000000180061be8     LIBCMTD:undname.obj
 0002:0000fbf8       ??_C@_03KLGMFNMG@?$GAEH?$AA@ 0000000180061bf8     LIBCMTD:undname.obj
 0002:0000fbfc       ??_C@_05KHLCHHI@?$GARTTI?$AA@ 0000000180061bfc     LIBCMTD:undname.obj
 0002:0000fc08       ??_C@_0BA@KKLDJDLB@?$GAlocal?5vftable?8?$AA@ 0000000180061c08     LIBCMTD:undname.obj
 0002:0000fc18       ??_C@_0CE@IIHCMGGL@?$GAlocal?5vftable?5constructor?5closu@ 0000000180061c18     LIBCMTD:undname.obj
 0002:0000fc3c       ??_C@_06FHBGPFGH@?5new?$FL?$FN?$AA@ 0000000180061c3c     LIBCMTD:undname.obj
 0002:0000fc48       ??_C@_09LBNFPBCA@?5delete?$FL?$FN?$AA@ 0000000180061c48     LIBCMTD:undname.obj
 0002:0000fc58       ??_C@_0P@HJKNJFNN@?$GAomni?5callsig?8?$AA@ 0000000180061c58     LIBCMTD:undname.obj
 0002:0000fc68       ??_C@_0BL@CNOONJFP@?$GAplacement?5delete?5closure?8?$AA@ 0000000180061c68     LIBCMTD:undname.obj
 0002:0000fc88       ??_C@_0BN@CKNJLHMB@?$GAplacement?5delete?$FL?$FN?5closure?8?$AA@ 0000000180061c88     LIBCMTD:undname.obj
 0002:0000fca8       ??_C@_0CG@CFDHKGGD@?$GAmanaged?5vector?5constructor?5iter@ 0000000180061ca8     LIBCMTD:undname.obj
 0002:0000fcd0       ??_C@_0CF@IMGKMJNO@?$GAmanaged?5vector?5destructor?5itera@ 0000000180061cd0     LIBCMTD:undname.obj
 0002:0000fcf8       ??_C@_0CG@HLDDJMAG@?$GAeh?5vector?5copy?5constructor?5iter@ 0000000180061cf8     LIBCMTD:undname.obj
 0002:0000fd20       ??_C@_0CM@FCBBDIGB@?$GAeh?5vector?5vbase?5copy?5constructo@ 0000000180061d20     LIBCMTD:undname.obj
 0002:0000fd50       ??_C@_0BL@CLIPGLGB@?$GAdynamic?5initializer?5for?5?8?$AA@ 0000000180061d50     LIBCMTD:undname.obj
 0002:0000fd70       ??_C@_0CB@PDBIFEP@?$GAdynamic?5atexit?5destructor?5for?5?8@ 0000000180061d70     LIBCMTD:undname.obj
 0002:0000fd98       ??_C@_0CD@CGAJBKEJ@?$GAvector?5copy?5constructor?5iterato@ 0000000180061d98     LIBCMTD:undname.obj
 0002:0000fdc0       ??_C@_0CJ@GJELGAMM@?$GAvector?5vbase?5copy?5constructor?5i@ 0000000180061dc0     LIBCMTD:undname.obj
 0002:0000fdf0       ??_C@_0CL@FGIJHLCE@?$GAmanaged?5vector?5copy?5constructor@ 0000000180061df0     LIBCMTD:undname.obj
 0002:0000fe20       ??_C@_0BM@PMGGMLDN@?$GAlocal?5static?5thread?5guard?8?$AA@ 0000000180061e20     LIBCMTD:undname.obj
 0002:0000fe40       ??_C@_0BC@DAFEJGAK@?5Type?5Descriptor?8?$AA@ 0000000180061e40     LIBCMTD:undname.obj
 0002:0000fe58       ??_C@_0BM@LDKODKLH@?5Base?5Class?5Descriptor?5at?5?$CI?$AA@ 0000000180061e58     LIBCMTD:undname.obj
 0002:0000fe78       ??_C@_0BD@LGICGFMM@?5Base?5Class?5Array?8?$AA@ 0000000180061e78     LIBCMTD:undname.obj
 0002:0000fe90       ??_C@_0BN@MECKDCOJ@?5Class?5Hierarchy?5Descriptor?8?$AA@ 0000000180061e90     LIBCMTD:undname.obj
 0002:0000feb0       ??_C@_0BK@CFCOFLF@?5Complete?5Object?5Locator?8?$AA@ 0000000180061eb0     LIBCMTD:undname.obj
 0002:0000fed0       _load_config_used          0000000180061ed0     LIBCMTD:loadcfg.obj
 0002:0000ffb0       ??_R4bad_exception@std@@6B@ 0000000180061fb0     LIBCMTD:frame.obj
 0002:0000ffd8       ??_R3bad_exception@std@@8  0000000180061fd8     LIBCMTD:frame.obj
 0002:0000fff0       ??_R2bad_exception@std@@8  0000000180061ff0     LIBCMTD:frame.obj
 0002:00010008       ??_R1A@?0A@EA@bad_exception@std@@8 0000000180062008     LIBCMTD:frame.obj
 0002:00010030       ??_R1A@?0A@EA@exception@std@@8 0000000180062030     LIBCMTD:frame.obj
 0002:00010058       ??_R3exception@std@@8      0000000180062058     LIBCMTD:frame.obj
 0002:00010070       ??_R2exception@std@@8      0000000180062070     LIBCMTD:frame.obj
 0002:00010080       ??_R4type_info@@6B@        0000000180062080     LIBCMTD:typinfo.obj
 0002:000100a8       ??_R3type_info@@8          00000001800620a8     LIBCMTD:typinfo.obj
 0002:000100c0       ??_R2type_info@@8          00000001800620c0     LIBCMTD:typinfo.obj
 0002:000100d0       ??_R1A@?0A@EA@type_info@@8 00000001800620d0     LIBCMTD:typinfo.obj
 0002:000100f8       ??_R4exception@std@@6B@    00000001800620f8     LIBCMTD:stdexcpt.obj
 0002:00010120       __rtc_iaa                  0000000180062120     LIBCMTD:initsect.obj
 0002:00010128       __rtc_izz                  0000000180062128     LIBCMTD:initsect.obj
 0002:00010130       __rtc_taa                  0000000180062130     LIBCMTD:initsect.obj
 0002:00010138       __rtc_tzz                  0000000180062138     LIBCMTD:initsect.obj
 0002:00011720       _TI2?AVbad_exception@std@@ 0000000180063720     LIBCMTD:frame.obj
 0002:00011740       _CTA2?AVbad_exception@std@@ 0000000180063740     LIBCMTD:frame.obj
 0002:00011758       _CT??_R0?AVbad_exception@std@@@8??0bad_exception@std@@QEAA@AEBV01@@Z24 0000000180063758     LIBCMTD:frame.obj
 0002:00011780       _CT??_R0?AVexception@std@@@8??0exception@std@@QEAA@AEBV01@@Z24 0000000180063780     LIBCMTD:frame.obj
 0002:00011820       __IMPORT_DESCRIPTOR_KERNEL32 0000000180063820     kernel32:KERNEL32.dll
 0002:00011834       __NULL_IMPORT_DESCRIPTOR   0000000180063834     kernel32:KERNEL32.dll
 0003:000043a0       __security_cookie          00000001800683a0     LIBCMTD:gs_cookie.obj
 0003:000043a8       __security_cookie_complement 00000001800683a8     LIBCMTD:gs_cookie.obj
 0003:000043b0       _fltused                   00000001800683b0     LIBCMTD:fpinit.obj
 0003:000043b4       _ldused                    00000001800683b4     LIBCMTD:fpinit.obj
 0003:00004530       _iob                       0000000180068530     LIBCMTD:_file.obj
 0003:000048f0       _lookuptrailbytes          00000001800688f0     LIBCMTD:read.obj
 0003:000049f0       _d_inf                     00000001800689f0     LIBCMTD:util.obj
 0003:000049f8       _d_ind                     00000001800689f8     LIBCMTD:util.obj
 0003:00004a00       _d_max                     0000000180068a00     LIBCMTD:util.obj
 0003:00004a08       _d_min                     0000000180068a08     LIBCMTD:util.obj
 0003:00004a10       _d_mzero                   0000000180068a10     LIBCMTD:util.obj
 0003:00004bf8       _crtBreakAlloc             0000000180068bf8     LIBCMTD:dbgheap.obj
 0003:00004bfc       _crtDbgFlag                0000000180068bfc     LIBCMTD:dbgheap.obj
 0003:00004c00       __crtDebugFillThreshold    0000000180068c00     LIBCMTD:dbgheap.obj
 0003:00004c10       _mbctype                   0000000180068c10     LIBCMTD:mbctype.obj
 0003:00004d20       _mbcasemap                 0000000180068d20     LIBCMTD:mbctype.obj
 0003:00004e20       __initialmbcinfo           0000000180068e20     LIBCMTD:mbctype.obj
 0003:00005140       __ptmbcinfo                0000000180069140     LIBCMTD:mbctype.obj
 0003:00005148       __flsindex                 0000000180069148     LIBCMTD:tidtable.obj
 0003:0000514c       __mb_cur_max               000000018006914c     LIBCMTD:nlsdata.obj
 0003:00005150       __wclocalestr              0000000180069150     LIBCMTD:nlsdata.obj
 0003:00005160       __lc_time_c                0000000180069160     LIBCMTD:nlsdata.obj
 0003:00005420       __ptlocinfo                0000000180069420     LIBCMTD:nlsdata.obj
 0003:00005430       __initiallocinfo           0000000180069430     LIBCMTD:nlsdata.obj
 0003:00005588       __initiallocalestructinfo  0000000180069588     LIBCMTD:nlsdata.obj
 0003:00005598       __globallocalestatus       0000000180069598     LIBCMTD:glstatus.obj
 0003:000055a8       __abort_behavior           00000001800695a8     LIBCMTD:abort.obj
 0003:000055b0       _cfltcvt_tab               00000001800695b0     LIBCMTD:cmiscdat.obj
 0003:00005600       __badioinfo                0000000180069600     LIBCMTD:ioinit.obj
 0003:00005660       _pfnAllocHook              0000000180069660     LIBCMTD:dbghook.obj
 0003:000058b0       _crtAssertBusy             00000001800698b0     LIBCMTD:dbgrptt.obj
 0003:000058b8       _CrtDbgMode                00000001800698b8     LIBCMTD:dbgrptt.obj
 0003:000058c8       _CrtDbgFile                00000001800698c8     LIBCMTD:dbgrptt.obj
 0003:000058e0       __isa_available            00000001800698e0     LIBCMTD:cpu_disp.obj
 0003:000058e4       __isa_enabled              00000001800698e4     LIBCMTD:cpu_disp.obj
 0003:000058f0       _matherr_flag              00000001800698f0     LIBCMTD:matherr.obj
 0003:00005910       __lconv                    0000000180069910     LIBCMTD:lconv.obj
 0003:00005918       __lconv_static_decimal     0000000180069918     LIBCMTD:lconv.obj
 0003:00005920       __lconv_c                  0000000180069920     LIBCMTD:lconv.obj
 0003:000059b8       __lconv_static_W_decimal   00000001800699b8     LIBCMTD:lconv.obj
 0003:000059c0       _pctype                    00000001800699c0     LIBCMTD:ctype.obj
 0003:000059c8       _pwctype                   00000001800699c8     LIBCMTD:ctype.obj
 0003:000059d0       __nullstring               00000001800699d0     LIBCMTD:output.obj
 0003:000059d8       __wnullstring              00000001800699d8     LIBCMTD:output.obj
 0003:00005a10       _confh                     0000000180069a10     LIBCMTD:initcon.obj
 0003:00005a20       _pow10pos                  0000000180069a20     LIBCMTD:constpow.obj
 0003:00005b80       _pow10neg                  0000000180069b80     LIBCMTD:constpow.obj
 0003:00005ce0       _HUGE                      0000000180069ce0     LIBCMTD:huge.obj
 0003:00005ce8       ??_R0?AVbad_exception@std@@@8 0000000180069ce8     LIBCMTD:frame.obj
 0003:00005d10       ??_R0?AVexception@std@@@8  0000000180069d10     LIBCMTD:frame.obj
 0003:00005d38       ??_R0?AVtype_info@@@8      0000000180069d38     LIBCMTD:typinfo.obj
 0003:00005d70       ?PlatformAddEntry@@3P6AXPEAUplatform_work_queue@@P6AX0PEAX@Z1@ZEA 0000000180069d70     dolphin.obj
 0003:00005d78       ?PlatformCompleteAllWork@@3P6AXPEAUplatform_work_queue@@@ZEA 0000000180069d78     dolphin.obj
 0003:00005d80       ?DebugGlobalMemory@@3PEAUgame_memory@@EA 0000000180069d80     dolphin.obj
 0003:00005ee0       __fastflag                 0000000180069ee0     LIBCMTD:fpinit.obj
 0003:00005ee8       _aenvptr                   0000000180069ee8     LIBCMTD:dllcrt0.obj
 0003:00005ef0       _wenvptr                   0000000180069ef0     LIBCMTD:dllcrt0.obj
 0003:00005f00       __pInvalidArgHandler       0000000180069f00     LIBCMTD:invarg.obj
 0003:00005f08       _cflush                    0000000180069f08     LIBCMTD:_file.obj
 0003:00005f10       __crtDebugCheckCount       0000000180069f10     LIBCMTD:dbgheap.obj
 0003:00005f18       ?_pfnDumpClient@@3P6AXPEAX_K@ZEA 0000000180069f18     LIBCMTD:dbgheap.obj
 0003:00005f50       _newmode                   0000000180069f50     LIBCMTD:_newmode.obj
 0003:00005f58       __mbcodepage               0000000180069f58     LIBCMTD:mbctype.obj
 0003:00005f5c       __ismbcodepage             0000000180069f5c     LIBCMTD:mbctype.obj
 0003:00005f60       __mbulinfo                 0000000180069f60     LIBCMTD:mbctype.obj
 0003:00005f70       __mblocalename             0000000180069f70     LIBCMTD:mbctype.obj
 0003:00005f7c       __locale_changed           0000000180069f7c     LIBCMTD:wsetloca.obj
 0003:000064f8       __argc                     000000018006a4f8     LIBCMTD:crt0dat.obj
 0003:000064fc       _C_Exit_Done               000000018006a4fc     LIBCMTD:crt0dat.obj
 0003:00006500       __argv                     000000018006a500     LIBCMTD:crt0dat.obj
 0003:00006508       __wargv                    000000018006a508     LIBCMTD:crt0dat.obj
 0003:00006510       _environ                   000000018006a510     LIBCMTD:crt0dat.obj
 0003:00006518       _wenviron                  000000018006a518     LIBCMTD:crt0dat.obj
 0003:00006520       _pgmptr                    000000018006a520     LIBCMTD:crt0dat.obj
 0003:00006528       _wpgmptr                   000000018006a528     LIBCMTD:crt0dat.obj
 0003:00006530       _umaskval                  000000018006a530     LIBCMTD:crt0dat.obj
 0003:00006534       _exitflag                  000000018006a534     LIBCMTD:crt0dat.obj
 0003:00006538       _C_Termination_Done        000000018006a538     LIBCMTD:crt0dat.obj
 0003:00006540       __winitenv                 000000018006a540     LIBCMTD:crt0dat.obj
 0003:00006548       __initenv                  000000018006a548     LIBCMTD:crt0dat.obj
 0003:00006550       __error_mode               000000018006a550     LIBCMTD:errmode.obj
 0003:000065b0       __app_type                 000000018006a5b0     LIBCMTD:crt0msg.obj
 0003:00006be8       __fma3_is_available        000000018006abe8     LIBCMTD:fma3_available.obj
 0003:00006bec       __use_fma3_lib             000000018006abec     LIBCMTD:fma3_available.obj
 0003:00006bf0       _crtheap                   000000018006abf0     LIBCMTD:heapinit.obj
 0003:00006c00       __pioinfo                  000000018006ac00     LIBCMTD:ioinit.obj
 0003:00007168       __favor                    000000018006b168     LIBCMTD:cpu_disp.obj
 0003:00007170       ?_pnhHeap@@3P6AH_K@ZEA     000000018006b170     LIBCMTD:handler.obj
 0003:00007178       __lconv_static_null        000000018006b178     LIBCMTD:lconv.obj
 0003:0000717c       __lconv_static_W_null      000000018006b17c     LIBCMTD:lconv.obj
 0003:00007180       ?g_OutOfMemoryExceptionCallback@@3P6APEAXXZEA 000000018006b180     LIBCMTD:frame.obj
 0003:00007188       ?__pInconsistency@@3P6AXXZEA 000000018006b188     LIBCMTD:hooks.obj
 0003:00007198       __pPurecall                000000018006b198     LIBCMTD:inithelp.obj
 0003:000071a8       _stdbuf                    000000018006b1a8     LIBCMTD:_sftbuf.obj
 0003:000071b8       _outputformat              000000018006b1b8     LIBCMTD:outputformat.obj
 0003:000071d8       ?m_pGetParameter@UnDecorator@@0P6APEADJ@ZEA 000000018006b1d8     LIBCMTD:undname.obj
 0003:000071e0       ?pArgList@UnDecorator@@0PEAVReplicator@@EA 000000018006b1e0     LIBCMTD:undname.obj
 0003:000071e8       ?pZNameList@UnDecorator@@0PEAVReplicator@@EA 000000018006b1e8     LIBCMTD:undname.obj
 0003:000071f0       ?pTemplateArgList@UnDecorator@@0PEAVReplicator@@EA 000000018006b1f0     LIBCMTD:undname.obj
 0003:000071f8       ?gName@UnDecorator@@0PEBDEB 000000018006b1f8     LIBCMTD:undname.obj
 0003:00007200       ?name@UnDecorator@@0PEBDEB 000000018006b200     LIBCMTD:undname.obj
 0003:00007208       ?outputString@UnDecorator@@0PEADEA 000000018006b208     LIBCMTD:undname.obj
 0003:00007210       ?maxStringLength@UnDecorator@@0HA 000000018006b210     LIBCMTD:undname.obj
 0003:00007214       ?disableFlags@UnDecorator@@0KA 000000018006b214     LIBCMTD:undname.obj
 0003:00007218       ?fExplicitTemplateParams@UnDecorator@@0_NA 000000018006b218     LIBCMTD:undname.obj
 0003:00007219       ?fGetTemplateArgumentList@UnDecorator@@0_NA 000000018006b219     LIBCMTD:undname.obj
 0003:00007248       _pReportHookListW          000000018006b248     <common>
 0003:00007250       _pReportHookList           000000018006b250     <common>
 0003:00007258       _pfnReportHook             000000018006b258     <common>
 0003:00007260       _debugger_hook_dummy       000000018006b260     <common>
 0003:00007280       encodedKERNEL32Functions   000000018006b280     <common>
 0003:00007388       _nhandle                   000000018006b388     <common>
 0003:00007390       __dyn_tls_init_callback    000000018006b390     <common>
 0003:00007398       __onexitend                000000018006b398     <common>
 0003:000073a0       __onexitbegin              000000018006b3a0     <common>
 0003:000073a8       __mbctype_initialized      000000018006b3a8     <common>
 0003:000073ac       __env_initialized          000000018006b3ac     <common>
 0003:000073b0       __piob                     000000018006b3b0     <common>
 0003:000073b8       _nstream                   000000018006b3b8     <common>
 0003:000073c0       _bufin                     000000018006b3c0     <common>
 0003:000083c0       _acmdln                    000000018006c3c0     <common>

 entry point at        0001:00022db0

 Static symbols

 0000:fff8f000       .debug$S                   0000000180000000     kernel32:KERNEL32.dll
 0000:fff8f000       .debug$S                   0000000180000000     kernel32:KERNEL32.dll
 0000:fff8f000       .debug$S                   0000000180000000     kernel32:KERNEL32.dll
 0000:fff8f000       .debug$S                   0000000180000000     kernel32:KERNEL32.dll
 0000:fff8f000       .debug$S                   0000000180000000     kernel32:KERNEL32.dll
 0000:fff8f000       .debug$S                   0000000180000000     kernel32:KERNEL32.dll
 0000:fff8f000       .debug$S                   0000000180000000     kernel32:KERNEL32.dll
 0000:fff8f000       .debug$S                   0000000180000000     kernel32:KERNEL32.dll
 0000:fff8f000       .debug$S                   0000000180000000     kernel32:KERNEL32.dll
 0000:fff8f000       .debug$S                   0000000180000000     kernel32:KERNEL32.dll
 0000:fff8f000       .debug$S                   0000000180000000     kernel32:KERNEL32.dll
 0000:fff8f000       .debug$S                   0000000180000000     kernel32:KERNEL32.dll
 0000:fff8f000       .debug$S                   0000000180000000     kernel32:KERNEL32.dll
 0000:fff8f000       .debug$S                   0000000180000000     kernel32:KERNEL32.dll
 0000:fff8f000       .debug$S                   0000000180000000     kernel32:KERNEL32.dll
 0000:fff8f000       .debug$S                   0000000180000000     kernel32:KERNEL32.dll
 0000:fff8f000       .debug$S                   0000000180000000     kernel32:KERNEL32.dll
 0000:fff8f000       .debug$S                   0000000180000000     kernel32:KERNEL32.dll
 0000:fff8f000       .debug$S                   0000000180000000     kernel32:KERNEL32.dll
 0000:fff8f000       .debug$S                   0000000180000000     kernel32:KERNEL32.dll
 0000:fff8f000       .debug$S                   0000000180000000     kernel32:KERNEL32.dll
 0000:fff8f000       .debug$S                   0000000180000000     kernel32:KERNEL32.dll
 0000:fff8f000       .debug$S                   0000000180000000     kernel32:KERNEL32.dll
 0000:fff8f000       .debug$S                   0000000180000000     kernel32:KERNEL32.dll
 0000:fff8f000       .debug$S                   0000000180000000     kernel32:KERNEL32.dll
 0000:fff8f000       .debug$S                   0000000180000000     kernel32:KERNEL32.dll
 0000:fff8f000       .debug$S                   0000000180000000     kernel32:KERNEL32.dll
 0000:fff8f000       .debug$S                   0000000180000000     kernel32:KERNEL32.dll
 0000:fff8f000       .debug$S                   0000000180000000     kernel32:KERNEL32.dll
 0000:fff8f000       .debug$S                   0000000180000000     kernel32:KERNEL32.dll
 0000:fff8f000       .debug$S                   0000000180000000     kernel32:KERNEL32.dll
 0000:fff8f000       .debug$S                   0000000180000000     kernel32:KERNEL32.dll
 0000:fff8f000       .debug$S                   0000000180000000     kernel32:KERNEL32.dll
 0000:fff8f000       .debug$S                   0000000180000000     kernel32:KERNEL32.dll
 0000:fff8f000       .debug$S                   0000000180000000     kernel32:KERNEL32.dll
 0000:fff8f000       .debug$S                   0000000180000000     kernel32:KERNEL32.dll
 0000:fff8f000       .debug$S                   0000000180000000     kernel32:KERNEL32.dll
 0000:fff8f000       .debug$S                   0000000180000000     kernel32:KERNEL32.dll
 0000:fff8f000       .debug$S                   0000000180000000     kernel32:KERNEL32.dll
 0000:fff8f000       .debug$S                   0000000180000000     kernel32:KERNEL32.dll
 0000:fff8f000       .debug$S                   0000000180000000     kernel32:KERNEL32.dll
 0000:fff8f000       .debug$S                   0000000180000000     kernel32:KERNEL32.dll
 0000:fff8f000       .debug$S                   0000000180000000     kernel32:KERNEL32.dll
 0000:fff8f000       .debug$S                   0000000180000000     kernel32:KERNEL32.dll
 0000:fff8f000       .debug$S                   0000000180000000     kernel32:KERNEL32.dll
 0000:fff8f000       .debug$S                   0000000180000000     kernel32:KERNEL32.dll
 0000:fff8f000       .debug$S                   0000000180000000     kernel32:KERNEL32.dll
 0000:fff8f000       .debug$S                   0000000180000000     kernel32:KERNEL32.dll
 0000:fff8f000       .debug$S                   0000000180000000     kernel32:KERNEL32.dll
 0000:fff8f000       .debug$S                   0000000180000000     kernel32:KERNEL32.dll
 0000:fff8f000       .debug$S                   0000000180000000     kernel32:KERNEL32.dll
 0000:fff8f000       .debug$S                   0000000180000000     kernel32:KERNEL32.dll
 0000:fff8f000       .debug$S                   0000000180000000     kernel32:KERNEL32.dll
 0000:fff8f000       .debug$S                   0000000180000000     kernel32:KERNEL32.dll
 0000:fff8f000       .debug$S                   0000000180000000     kernel32:KERNEL32.dll
 0000:fff8f000       .debug$S                   0000000180000000     kernel32:KERNEL32.dll
 0000:fff8f000       .debug$S                   0000000180000000     kernel32:KERNEL32.dll
 0000:fff8f000       .debug$S                   0000000180000000     kernel32:KERNEL32.dll
 0000:fff8f000       .debug$S                   0000000180000000     kernel32:KERNEL32.dll
 0000:fff8f000       .debug$S                   0000000180000000     kernel32:KERNEL32.dll
 0000:fff8f000       .debug$S                   0000000180000000     kernel32:KERNEL32.dll
 0000:fff8f000       .debug$S                   0000000180000000     kernel32:KERNEL32.dll
 0000:fff8f000       .debug$S                   0000000180000000     kernel32:KERNEL32.dll
 0000:fff8f000       .debug$S                   0000000180000000     kernel32:KERNEL32.dll
 0000:fff8f000       .debug$S                   0000000180000000     kernel32:KERNEL32.dll
 0000:fff8f000       .debug$S                   0000000180000000     kernel32:KERNEL32.dll
 0000:fff8f000       .debug$S                   0000000180000000     kernel32:KERNEL32.dll
 0000:fff8f000       .debug$S                   0000000180000000     kernel32:KERNEL32.dll
 0000:fff8f000       .debug$S                   0000000180000000     kernel32:KERNEL32.dll
 0000:fff8f000       .debug$S                   0000000180000000     kernel32:KERNEL32.dll
 0000:fff8f000       .debug$S                   0000000180000000     kernel32:KERNEL32.dll
 0000:fff8f000       .debug$S                   0000000180000000     kernel32:KERNEL32.dll
 0000:fff8f000       .debug$S                   0000000180000000     kernel32:KERNEL32.dll
 0000:fff8f000       .debug$S                   0000000180000000     kernel32:KERNEL32.dll
 0000:fff8f000       .debug$S                   0000000180000000     kernel32:KERNEL32.dll
 0000:fff8f000       .debug$S                   0000000180000000     kernel32:KERNEL32.dll
 0000:fff8f000       .debug$S                   0000000180000000     kernel32:KERNEL32.dll
 0000:fff8f000       .debug$S                   0000000180000000     kernel32:KERNEL32.dll
 0000:fff8f000       .debug$S                   0000000180000000     kernel32:KERNEL32.dll
 0000:fff8f000       .debug$S                   0000000180000000     kernel32:KERNEL32.dll
 0000:fff8f000       .debug$S                   0000000180000000     kernel32:KERNEL32.dll
 0000:fff8f000       .debug$S                   0000000180000000     kernel32:KERNEL32.dll
 0000:fff8f000       .debug$S                   0000000180000000     kernel32:KERNEL32.dll
 0000:fff8f000       .debug$S                   0000000180000000     kernel32:KERNEL32.dll
 0000:fff8f000       .debug$S                   0000000180000000     kernel32:KERNEL32.dll
 0000:fff8f000       .debug$S                   0000000180000000     kernel32:KERNEL32.dll
 0000:fff8f000       .debug$S                   0000000180000000     kernel32:KERNEL32.dll
 0000:fff8f000       .debug$S                   0000000180000000     kernel32:KERNEL32.dll
 0001:00000000       gd_sqrt                    0000000180001000 f   dolphin.obj
 0001:00000020       gd_rsqrt                   0000000180001020 f   dolphin.obj
 0001:00000050       gd_sin                     0000000180001050 f   dolphin.obj
 0001:00000070       gd_cos                     0000000180001070 f   dolphin.obj
 0001:00000090       gd_vec2_zero               0000000180001090 f   dolphin.obj
 0001:000000e0       gd_vec2                    00000001800010e0 f   dolphin.obj
 0001:00000140       gd_vec3_zero               0000000180001140 f   dolphin.obj
 0001:000001a0       gd_vec3                    00000001800011a0 f   dolphin.obj
 0001:00000230       gd_vec3_from_vec2          0000000180001230 f   dolphin.obj
 0001:000002b0       gd_vec4                    00000001800012b0 f   dolphin.obj
 0001:00000340       gd_vec2_add                0000000180001340 f   dolphin.obj
 0001:000003a0       gd_vec2_mul                00000001800013a0 f   dolphin.obj
 0001:00000400       gd_vec3_add                0000000180001400 f   dolphin.obj
 0001:000004b0       gd_vec3_sub                00000001800014b0 f   dolphin.obj
 0001:00000560       gd_vec3_mul                0000000180001560 f   dolphin.obj
 0001:00000600       gd_vec2_dot                0000000180001600 f   dolphin.obj
 0001:00000630       gd_vec2_hadamard           0000000180001630 f   dolphin.obj
 0001:000006a0       gd_vec2_squared_mag        00000001800016a0 f   dolphin.obj
 0001:000006d0       gd_vec2_norm0              00000001800016d0 f   dolphin.obj
 0001:00000780       gd_rect2                   0000000180001780 f   dolphin.obj
 0001:000007f0       ?BeginTaskWithMemory@@YAPEAUtask_with_memory@@PEAUtransient_state@@@Z 00000001800017f0 f   dolphin.obj
 0001:000008c0       ?EndTaskWithMemory@@YAXPEAUtask_with_memory@@@Z 00000001800018c0 f   dolphin.obj
 0001:00000950       ?LoadBitmapAsset@@YAXPEAUgame_assets@@Ubitmap_id@@@Z 0000000180001950 f   dolphin.obj
 0001:00000a70       ?LoadSoundAsset@@YAXPEAUgame_assets@@Usound_id@@@Z 0000000180001a70 f   dolphin.obj
 0001:00000b90       ?RenderGroupToOutput@@YAXPEAUrender_group@@PEAUloaded_bitmap@@UgdRect2i@@@Z 0000000180001b90 f   dolphin.obj
 0001:00000fa0       ?DoTiledRenderWork@@YAXPEAUplatform_work_queue@@PEAX@Z 0000000180001fa0 f   dolphin.obj
 0001:00001000       ?TiledRenderGroupToOutput@@YAXPEAUplatform_work_queue@@PEAUrender_group@@PEAUloaded_bitmap@@@Z 0000000180002000 f   dolphin.obj
 0001:000011e0       ?AllocateRenderGroup@@YAPEAUrender_group@@PEAUgame_assets@@PEAUmemory_arena@@IM@Z 00000001800021e0 f   dolphin.obj
 0001:00001280       ?LoadWAV@@YA?AUloaded_sound@@PEADII@Z 0000000180002280 f   dolphin.obj
 0001:00001740       stbi_load_from_memory      0000000180002740 f   dolphin.obj
 0001:000017e0       stbi_set_flip_vertically_on_load 00000001800027e0 f   dolphin.obj
 0001:00001800       stbi_zlib_decode_malloc_guesssize_headerflag 0000000180002800 f   dolphin.obj
 0001:00001910       ?stbi__cpuid3@@YAHXZ       0000000180002910 f   dolphin.obj
 0001:00001970       ?stbi__sse2_available@@YAHXZ 0000000180002970 f   dolphin.obj
 0001:000019b0       ?stbi__refill_buffer@@YAXPEAUstbi__context@@@Z 00000001800029b0 f   dolphin.obj
 0001:00001a70       ?stbi__start_mem@@YAXPEAUstbi__context@@PEBEH@Z 0000000180002a70 f   dolphin.obj
 0001:00001b00       ?stbi__stdio_read@@YAHPEAXPEADH@Z 0000000180002b00 f   dolphin.obj
 0001:00001b40       ?stbi__stdio_skip@@YAXPEAXH@Z 0000000180002b40 f   dolphin.obj
 0001:00001b70       ?stbi__stdio_eof@@YAHPEAX@Z 0000000180002b70 f   dolphin.obj
 0001:00001b90       ?stbi__rewind@@YAXPEAUstbi__context@@@Z 0000000180002b90 f   dolphin.obj
 0001:00001bd0       ?stbi__jpeg_test@@YAHPEAUstbi__context@@@Z 0000000180002bd0 f   dolphin.obj
 0001:00001c50       ?stbi__jpeg_load@@YAPEAEPEAUstbi__context@@PEAH11H@Z 0000000180002c50 f   dolphin.obj
 0001:00001cd0       ?stbi__png_test@@YAHPEAUstbi__context@@@Z 0000000180002cd0 f   dolphin.obj
 0001:00001d00       ?stbi__png_load@@YAPEAEPEAUstbi__context@@PEAH11H@Z 0000000180002d00 f   dolphin.obj
 0001:00001d60       ?stbi__bmp_test@@YAHPEAUstbi__context@@@Z 0000000180002d60 f   dolphin.obj
 0001:00001d90       ?stbi__bmp_load@@YAPEAEPEAUstbi__context@@PEAH11H@Z 0000000180002d90 f   dolphin.obj
 0001:00002b80       ?stbi__tga_test@@YAHPEAUstbi__context@@@Z 0000000180003b80 f   dolphin.obj
 0001:00002d20       ?stbi__tga_load@@YAPEAEPEAUstbi__context@@PEAH11H@Z 0000000180003d20 f   dolphin.obj
 0001:00003680       ?stbi__psd_test@@YAHPEAUstbi__context@@@Z 0000000180004680 f   dolphin.obj
 0001:000036d0       ?stbi__psd_load@@YAPEAEPEAUstbi__context@@PEAH11H@Z 00000001800046d0 f   dolphin.obj
 0001:00003f00       ?stbi__hdr_test@@YAHPEAUstbi__context@@@Z 0000000180004f00 f   dolphin.obj
 0001:00003f30       ?stbi__hdr_load@@YAPEAMPEAUstbi__context@@PEAH11H@Z 0000000180004f30 f   dolphin.obj
 0001:00004610       ?stbi__pic_test@@YAHPEAUstbi__context@@@Z 0000000180005610 f   dolphin.obj
 0001:00004640       ?stbi__pic_load@@YAPEAEPEAUstbi__context@@PEAH11H@Z 0000000180005640 f   dolphin.obj
 0001:00004820       ?stbi__gif_test@@YAHPEAUstbi__context@@@Z 0000000180005820 f   dolphin.obj
 0001:00004850       ?stbi__gif_load@@YAPEAEPEAUstbi__context@@PEAH11H@Z 0000000180005850 f   dolphin.obj
 0001:00004960       ?stbi__pnm_test@@YAHPEAUstbi__context@@@Z 0000000180005960 f   dolphin.obj
 0001:000049d0       ?stbi__pnm_load@@YAPEAEPEAUstbi__context@@PEAH11H@Z 00000001800059d0 f   dolphin.obj
 0001:00004b30       ?stbi__pnm_info@@YAHPEAUstbi__context@@PEAH11@Z 0000000180005b30 f   dolphin.obj
 0001:00004c70       ?stbi__err@@YAHPEBD@Z      0000000180005c70 f   dolphin.obj
 0001:00004c90       ?stbi__malloc@@YAPEAX_K@Z  0000000180005c90 f   dolphin.obj
 0001:00004cb0       ?stbi__hdr_to_ldr@@YAPEAEPEAMHHH@Z 0000000180005cb0 f   dolphin.obj
 0001:00004ee0       ?stbi__load_main@@YAPEAEPEAUstbi__context@@PEAH11H@Z 0000000180005ee0 f   dolphin.obj
 0001:00005140       ?stbi__load_flip@@YAPEAEPEAUstbi__context@@PEAH11H@Z 0000000180006140 f   dolphin.obj
 0001:00005310       ?stbi__get8@@YAEPEAUstbi__context@@@Z 0000000180006310 f   dolphin.obj
 0001:000053c0       ?stbi__at_eof@@YAHPEAUstbi__context@@@Z 00000001800063c0 f   dolphin.obj
 0001:00005440       ?stbi__skip@@YAXPEAUstbi__context@@H@Z 0000000180006440 f   dolphin.obj
 0001:00005510       ?stbi__getn@@YAHPEAUstbi__context@@PEAEH@Z 0000000180006510 f   dolphin.obj
 0001:00005670       ?stbi__get16be@@YAHPEAUstbi__context@@@Z 0000000180006670 f   dolphin.obj
 0001:000056c0       ?stbi__get32be@@YAIPEAUstbi__context@@@Z 00000001800066c0 f   dolphin.obj
 0001:00005700       ?stbi__get16le@@YAHPEAUstbi__context@@@Z 0000000180006700 f   dolphin.obj
 0001:00005740       ?stbi__get32le@@YAIPEAUstbi__context@@@Z 0000000180006740 f   dolphin.obj
 0001:00005780       ?stbi__compute_y@@YAEHHH@Z 0000000180006780 f   dolphin.obj
 0001:000057b0       ?stbi__convert_format@@YAPEAEPEAEHHII@Z 00000001800067b0 f   dolphin.obj
 0001:00006174       $LN64                      0000000180007174     dolphin.obj
 0001:000061f0       ?stbi__build_huffman@@YAHPEAUstbi__huffman@@PEAH@Z 00000001800071f0 f   dolphin.obj
 0001:00006480       ?stbi__build_fast_ac@@YAXPEAFPEAUstbi__huffman@@@Z 0000000180007480 f   dolphin.obj
 0001:00006600       ?stbi__grow_buffer_unsafe@@YAXPEAUstbi__jpeg@@@Z 0000000180007600 f   dolphin.obj
 0001:000066f0       ?stbi__jpeg_huff_decode@@YAHPEAUstbi__jpeg@@PEAUstbi__huffman@@@Z 00000001800076f0 f   dolphin.obj
 0001:00006990       ?stbi__extend_receive@@YAHPEAUstbi__jpeg@@H@Z 0000000180007990 f   dolphin.obj
 0001:00006aa0       ?stbi__jpeg_get_bits@@YAHPEAUstbi__jpeg@@H@Z 0000000180007aa0 f   dolphin.obj
 0001:00006b60       ?stbi__jpeg_get_bit@@YAHPEAUstbi__jpeg@@@Z 0000000180007b60 f   dolphin.obj
 0001:00006be0       ?stbi__jpeg_decode_block@@YAHPEAUstbi__jpeg@@QEAFPEAUstbi__huffman@@2PEAFHPEAE@Z 0000000180007be0 f   dolphin.obj
 0001:00006ed0       ?stbi__jpeg_decode_block_prog_dc@@YAHPEAUstbi__jpeg@@QEAFPEAUstbi__huffman@@H@Z 0000000180007ed0 f   dolphin.obj
 0001:00007040       ?stbi__jpeg_decode_block_prog_ac@@YAHPEAUstbi__jpeg@@QEAFPEAUstbi__huffman@@PEAF@Z 0000000180008040 f   dolphin.obj
 0001:00007690       ?stbi__clamp@@YAEH@Z       0000000180008690 f   dolphin.obj
 0001:000076d0       ?stbi__idct_block@@YAXPEAEHQEAF@Z 00000001800086d0 f   dolphin.obj
 0001:00008170       ?stbi__idct_simd@@YAXPEAEHQEAF@Z 0000000180009170 f   dolphin.obj
 0001:0000ac80       ?stbi__get_marker@@YAEPEAUstbi__jpeg@@@Z 000000018000bc80 f   dolphin.obj
 0001:0000ad10       ?stbi__jpeg_reset@@YAXPEAUstbi__jpeg@@@Z 000000018000bd10 f   dolphin.obj
 0001:0000adf0       ?stbi__parse_entropy_coded_data@@YAHPEAUstbi__jpeg@@@Z 000000018000bdf0 f   dolphin.obj
 0001:0000ba50       ?stbi__jpeg_dequantize@@YAXPEAFPEAE@Z 000000018000ca50 f   dolphin.obj
 0001:0000bab0       ?stbi__jpeg_finish@@YAXPEAUstbi__jpeg@@@Z 000000018000cab0 f   dolphin.obj
 0001:0000bc80       ?stbi__process_marker@@YAHPEAUstbi__jpeg@@H@Z 000000018000cc80 f   dolphin.obj
 0001:0000c100       ?stbi__process_scan_header@@YAHPEAUstbi__jpeg@@@Z 000000018000d100 f   dolphin.obj
 0001:0000c440       ?stbi__process_frame_header@@YAHPEAUstbi__jpeg@@H@Z 000000018000d440 f   dolphin.obj
 0001:0000ccc0       ?stbi__decode_jpeg_header@@YAHPEAUstbi__jpeg@@H@Z 000000018000dcc0 f   dolphin.obj
 0001:0000ce10       ?stbi__decode_jpeg_image@@YAHPEAUstbi__jpeg@@@Z 000000018000de10 f   dolphin.obj
 0001:0000cfc0       ?resample_row_1@@YAPEAEPEAE00HH@Z 000000018000dfc0 f   dolphin.obj
 0001:0000cfe0       ?stbi__resample_row_v_2@@YAPEAEPEAE00HH@Z 000000018000dfe0 f   dolphin.obj
 0001:0000d060       ?stbi__resample_row_h_2@@YAPEAEPEAE00HH@Z 000000018000e060 f   dolphin.obj
 0001:0000d240       ?stbi__resample_row_hv_2@@YAPEAEPEAE00HH@Z 000000018000e240 f   dolphin.obj
 0001:0000d3d0       ?stbi__resample_row_hv_2_simd@@YAPEAEPEAE00HH@Z 000000018000e3d0 f   dolphin.obj
 0001:0000da40       ?stbi__resample_row_generic@@YAPEAEPEAE00HH@Z 000000018000ea40 f   dolphin.obj
 0001:0000dad0       ?stbi__YCbCr_to_RGB_row@@YAXPEAEPEBE11HH@Z 000000018000ead0 f   dolphin.obj
 0001:0000dca0       ?stbi__YCbCr_to_RGB_simd@@YAXPEAEPEBE11HH@Z 000000018000eca0 f   dolphin.obj
 0001:0000e470       ?stbi__setup_jpeg@@YAXPEAUstbi__jpeg@@@Z 000000018000f470 f   dolphin.obj
 0001:0000e500       ?stbi__cleanup_jpeg@@YAXPEAUstbi__jpeg@@@Z 000000018000f500 f   dolphin.obj
 0001:0000e660       ?load_jpeg_image@@YAPEAEPEAUstbi__jpeg@@PEAH11H@Z 000000018000f660 f   dolphin.obj
 0001:0000f010       ?stbi__bitreverse16@@YAHH@Z 0000000180010010 f   dolphin.obj
 0001:0000f0a0       ?stbi__bit_reverse@@YAHHH@Z 00000001800100a0 f   dolphin.obj
 0001:0000f0f0       ?stbi__zbuild_huffman@@YAHPEAUstbi__zhuffman@@PEAEH@Z 00000001800100f0 f   dolphin.obj
 0001:0000f480       ?stbi__zget8@@YAEPEAUstbi__zbuf@@@Z 0000000180010480 f   dolphin.obj
 0001:0000f4d0       ?stbi__fill_bits@@YAXPEAUstbi__zbuf@@@Z 00000001800104d0 f   dolphin.obj
 0001:0000f570       ?stbi__zreceive@@YAIPEAUstbi__zbuf@@H@Z 0000000180010570 f   dolphin.obj
 0001:0000f610       ?stbi__zhuffman_decode_slowpath@@YAHPEAUstbi__zbuf@@PEAUstbi__zhuffman@@@Z 0000000180010610 f   dolphin.obj
 0001:0000f740       ?stbi__zhuffman_decode@@YAHPEAUstbi__zbuf@@PEAUstbi__zhuffman@@@Z 0000000180010740 f   dolphin.obj
 0001:0000f7f0       ?stbi__zexpand@@YAHPEAUstbi__zbuf@@PEADH@Z 00000001800107f0 f   dolphin.obj
 0001:0000f910       ?stbi__parse_huffman_block@@YAHPEAUstbi__zbuf@@@Z 0000000180010910 f   dolphin.obj
 0001:0000fbe0       ?stbi__compute_huffman_codes@@YAHPEAUstbi__zbuf@@@Z 0000000180010be0 f   dolphin.obj
 0001:0000ff30       ?stbi__parse_uncompressed_block@@YAHPEAUstbi__zbuf@@@Z 0000000180010f30 f   dolphin.obj
 0001:00010140       ?stbi__parse_zlib_header@@YAHPEAUstbi__zbuf@@@Z 0000000180011140 f   dolphin.obj
 0001:000101e0       ?stbi__init_zdefaults@@YAXXZ 00000001800111e0 f   dolphin.obj
 0001:000102b0       ?stbi__parse_zlib@@YAHPEAUstbi__zbuf@@H@Z 00000001800112b0 f   dolphin.obj
 0001:00010400       ?stbi__do_zlib@@YAHPEAUstbi__zbuf@@PEADHHH@Z 0000000180011400 f   dolphin.obj
 0001:00010480       ?stbi__get_chunk_header@@YA?AUstbi__pngchunk@@PEAUstbi__context@@@Z 0000000180011480 f   dolphin.obj
 0001:000104c0       ?stbi__check_png_header@@YAHPEAUstbi__context@@@Z 00000001800114c0 f   dolphin.obj
 0001:00010530       ?stbi__paeth@@YAHHHH@Z     0000000180011530 f   dolphin.obj
 0001:000105d0       ?stbi__create_png_image_raw@@YAHPEAUstbi__png@@PEAEIHIIHH@Z 00000001800115d0 f   dolphin.obj
 0001:00011dfc       $LN170                     0000000180012dfc     dolphin.obj
 0001:00011e18       $LN169                     0000000180012e18     dolphin.obj
 0001:00011e34       $LN168                     0000000180012e34     dolphin.obj
 0001:00011e60       ?stbi__create_png_image@@YAHPEAUstbi__png@@PEAEIHHHH@Z 0000000180012e60 f   dolphin.obj
 0001:00012310       ?stbi__compute_transparency@@YAHPEAUstbi__png@@QEAEH@Z 0000000180013310 f   dolphin.obj
 0001:000124e0       ?stbi__compute_transparency16@@YAHPEAUstbi__png@@QEAGH@Z 00000001800134e0 f   dolphin.obj
 0001:000126b0       ?stbi__expand_png_palette@@YAHPEAUstbi__png@@PEAEHH@Z 00000001800136b0 f   dolphin.obj
 0001:000128f0       ?stbi__reduce_png@@YAHPEAUstbi__png@@@Z 00000001800138f0 f   dolphin.obj
 0001:000129e0       ?stbi__de_iphone@@YAXPEAUstbi__png@@@Z 00000001800139e0 f   dolphin.obj
 0001:00012ca0       ?stbi__parse_png_file@@YAHPEAUstbi__png@@HH@Z 0000000180013ca0 f   dolphin.obj
 0001:00013980       ?stbi__do_png@@YAPEAEPEAUstbi__png@@PEAH11H@Z 0000000180014980 f   dolphin.obj
 0001:00013b50       ?stbi__bmp_test_raw@@YAHPEAUstbi__context@@@Z 0000000180014b50 f   dolphin.obj
 0001:00013c10       ?stbi__high_bit@@YAHI@Z    0000000180014c10 f   dolphin.obj
 0001:00013cd0       ?stbi__bitcount@@YAHI@Z    0000000180014cd0 f   dolphin.obj
 0001:00013d60       ?stbi__shiftsigned@@YAHHHH@Z 0000000180014d60 f   dolphin.obj
 0001:00013e00       ?stbi__bmp_parse_header@@YAPEAXPEAUstbi__context@@PEAUstbi__bmp_data@@@Z 0000000180014e00 f   dolphin.obj
 0001:00014310       ?stbi__tga_get_comp@@YAHHHPEAH@Z 0000000180015310 f   dolphin.obj
 0001:00014480       ?stbi__pic_is4@@YAHPEAUstbi__context@@PEBD@Z 0000000180015480 f   dolphin.obj
 0001:000144e0       ?stbi__pic_test_core@@YAHPEAUstbi__context@@@Z 00000001800154e0 f   dolphin.obj
 0001:00014560       ?stbi__readval@@YAPEAEPEAUstbi__context@@HPEAE@Z 0000000180015560 f   dolphin.obj
 0001:00014610       ?stbi__copyval@@YAXHPEAEPEBE@Z 0000000180015610 f   dolphin.obj
 0001:00014690       ?stbi__pic_load_core@@YAPEAEPEAUstbi__context@@HHPEAHPEAE@Z 0000000180015690 f   dolphin.obj
 0001:00014cd0       ?stbi__gif_test_raw@@YAHPEAUstbi__context@@@Z 0000000180015cd0 f   dolphin.obj
 0001:00014d70       ?stbi__gif_parse_colortable@@YAXPEAUstbi__context@@QEAY03EHH@Z 0000000180015d70 f   dolphin.obj
 0001:00014e70       ?stbi__gif_header@@YAHPEAUstbi__context@@PEAUstbi__gif@@PEAHH@Z 0000000180015e70 f   dolphin.obj
 0001:00015040       ?stbi__out_gif_code@@YAXPEAUstbi__gif@@G@Z 0000000180016040 f   dolphin.obj
 0001:000152c0       ?stbi__process_gif_raster@@YAPEAEPEAUstbi__context@@PEAUstbi__gif@@@Z 00000001800162c0 f   dolphin.obj
 0001:00015710       ?stbi__fill_gif_background@@YAXPEAUstbi__gif@@HHHH@Z 0000000180016710 f   dolphin.obj
 0001:00015840       ?stbi__gif_load_next@@YAPEAEPEAUstbi__context@@PEAUstbi__gif@@PEAHH@Z 0000000180016840 f   dolphin.obj
 0001:000160a0       ?stbi__hdr_test_core@@YAHPEAUstbi__context@@@Z 00000001800170a0 f   dolphin.obj
 0001:00016110       ?stbi__hdr_gettoken@@YAPEADPEAUstbi__context@@PEAD@Z 0000000180017110 f   dolphin.obj
 0001:000161d0       ?stbi__hdr_convert@@YAXPEAMPEAEH@Z 00000001800171d0 f   dolphin.obj
 0001:00016440       ?stbi__pnm_isspace@@YAHD@Z 0000000180017440 f   dolphin.obj
 0001:000164b0       ?stbi__pnm_skip_whitespace@@YAXPEAUstbi__context@@PEAD@Z 00000001800174b0 f   dolphin.obj
 0001:00016560       ?stbi__pnm_isdigit@@YAHD@Z 0000000180017560 f   dolphin.obj
 0001:000165a0       ?stbi__pnm_getinteger@@YAHPEAUstbi__context@@PEAD@Z 00000001800175a0 f   dolphin.obj
 0001:00016610       ?LoadBMP@@YA?AUloaded_bitmap@@PEADTgdVec2@@H@Z 0000000180017610 f   dolphin.obj
 0001:000169d0       ?LoadBitmapWork@@YAXPEAUplatform_work_queue@@PEAX@Z 00000001800179d0 f   dolphin.obj
 0001:00016ae0       ?LoadSoundWork@@YAXPEAUplatform_work_queue@@PEAX@Z 0000000180017ae0 f   dolphin.obj
 0001:00016bd0       ?GetBestMatchAssetFrom@@YAIPEAUgame_assets@@W4asset_type_id@@PEAUasset_vector@@2@Z 0000000180017bd0 f   dolphin.obj
 0001:00016ef0       ?GetFirstSlotFrom@@YAIPEAUgame_assets@@W4asset_type_id@@@Z 0000000180017ef0 f   dolphin.obj
 0001:00016f60       ?DEBUGAddBitmapInfo@@YA?AUbitmap_id@@PEAUgame_assets@@PEADTgdVec2@@@Z 0000000180017f60 f   dolphin.obj
 0001:00017010       ?DEBUGAddSoundInfo@@YA?AUsound_id@@PEAUgame_assets@@PEADII@Z 0000000180018010 f   dolphin.obj
 0001:000170e0       ?BeginAssetType@@YAXPEAUgame_assets@@W4asset_type_id@@@Z 00000001800180e0 f   dolphin.obj
 0001:00017160       ?AddBitmapAsset@@YAXPEAUgame_assets@@PEADTgdVec2@@@Z 0000000180018160 f   dolphin.obj
 0001:00017260       ?AddSoundAsset@@YAPEAUasset@@PEAUgame_assets@@PEADII@Z 0000000180018260 f   dolphin.obj
 0001:00017370       ?AddTag@@YAXPEAUgame_assets@@W4asset_tag_id@@M@Z 0000000180018370 f   dolphin.obj
 0001:00017420       ?EndAssetType@@YAXPEAUgame_assets@@@Z 0000000180018420 f   dolphin.obj
 0001:00017480       ?AllocateGameAssets@@YAPEAUgame_assets@@PEAUmemory_arena@@_KPEAUtransient_state@@@Z 0000000180018480 f   dolphin.obj
 0001:00017ef0       ?PlaySound@@YAPEAUplaying_sound@@PEAUaudio_state@@Usound_id@@@Z 0000000180018ef0 f   dolphin.obj
 0001:00018040       ?OutputPlayingSounds@@YAXPEAUaudio_state@@PEAUgame_sound_output_buffer@@PEAUgame_assets@@PEAUmemory_arena@@@Z 0000000180019040 f   dolphin.obj
 0001:000188c0       ?InitializeAudioState@@YAXPEAUaudio_state@@PEAUmemory_arena@@@Z 00000001800198c0 f   dolphin.obj
 0001:00018950       ?MakeEmptyBitmap@@YA?AUloaded_bitmap@@PEAUmemory_arena@@HH@Z 0000000180019950 f   dolphin.obj
 0001:0001f6e0       ?strtoxl@@YAKPEAUlocaleinfo_struct@@PEBDPEAPEBDHH@Z 00000001800206e0 f   LIBCMTD:strtol.obj
 0001:0001fe40       $$000000                   0000000180020e40     LIBCMTD:strncmp.obj
 0001:00020da0       swprintf                   0000000180021da0 f   LIBCMTD:wassert.obj
 0001:00020f40       $$000000                   0000000180021f40     LIBCMTD:chkstk.obj
 0001:00020fa0       $$000000                   0000000180021fa0     LIBCMTD:amdsecgs.obj
 0001:00020fd0       $$000000                   0000000180021fd0     LIBCMTD:cosf.obj
 0001:00021680       $$000000                   0000000180022680     LIBCMTD:powf.obj
 0001:00022210       $$000000                   0000000180023210     LIBCMTD:sinf.obj
 0001:00022df0       __DllMainCRTStartup        0000000180023df0 f   LIBCMTD:dllcrt0.obj
 0001:00024430       $$000000                   0000000180025430     LIBCMTD:memset.obj
 0001:000245d5       MsetTab                    00000001800255d5     LIBCMTD:memset.obj
 0001:00027620       flsall                     0000000180028620 f   LIBCMTD:fflush.obj
 0001:00027c20       _get_fname                 0000000180028c20 f   LIBCMTD:fpexcept.obj
 0001:00028d50       ?_CrtMemDumpAllObjectsSince_stat@@YAXPEBU_CrtMemState@@PEAUlocaleinfo_struct@@@Z 0000000180029d50 f   LIBCMTD:dbgheap.obj
 0001:000290f0       ?__crtIsBadReadPtr@@YAHPEBX_K@Z 000000018002a0f0 f   LIBCMTD:dbgheap.obj
 0001:00029210       CheckBytes                 000000018002a210 f   LIBCMTD:dbgheap.obj
 0001:0002a660       _heap_alloc_dbg_impl       000000018002b660 f   LIBCMTD:dbgheap.obj
 0001:0002ae20       _nh_malloc_dbg_impl        000000018002be20 f   LIBCMTD:dbgheap.obj
 0001:0002aec0       _printMemBlockData         000000018002bec0 f   LIBCMTD:dbgheap.obj
 0001:0002b1a0       realloc_help               000000018002c1a0 f   LIBCMTD:dbgheap.obj
 0001:0002c270       ?CPtoLocaleName@@YAPEB_WH@Z 000000018002d270 f   LIBCMTD:mbctype.obj
 0001:0002c310       ?getSystemCP@@YAHH@Z       000000018002d310 f   LIBCMTD:mbctype.obj
 0001:0002c3f0       ?setSBCS@@YAXPEAUthreadmbcinfostruct@@@Z 000000018002d3f0 f   LIBCMTD:mbctype.obj
 0001:0002c4f0       ?setSBUpLow@@YAXPEAUthreadmbcinfostruct@@@Z 000000018002d4f0 f   LIBCMTD:mbctype.obj
 0001:0002da00       ?_CatchTryBlock@@YAPEBU_s_TryBlockMapEntry@@PEBU_s_FuncInfo@@H@Z 000000018002ea00 f   LIBCMTD:trnsctrl.obj
 0001:0002fd40       _initterm                  0000000180030d40 f   LIBCMTD:crt0dat.obj
 0001:0002fe30       doexit                     0000000180030e30 f   LIBCMTD:crt0dat.obj
 0001:00030260       xtow_s                     0000000180031260 f   LIBCMTD:xtows.obj
 0001:00031b90       $LN41                      0000000180032b90     LIBCMTD:winsig.obj
 0001:00031ba8       $LN40                      0000000180032ba8     LIBCMTD:winsig.obj
 0001:00031bc0       siglookup                  0000000180032bc0 f   LIBCMTD:winsig.obj
 0001:000325f0       $$000000                   00000001800335f0     LIBCMTD:remainder_piby2f_forAsm.obj
 0001:00032740       $$000000                   0000000180033740     LIBCMTD:remainder_piby2_forFMA3.obj
 0001:00032c90       _call_matherr              0000000180033c90 f   LIBCMTD:libm_error.obj
 0001:00032d20       _exception_enabled         0000000180033d20 f   LIBCMTD:libm_error.obj
 0001:000332b8       $LN10                      00000001800342b8     LIBCMTD:pow_special.obj
 0001:000332e0       $$000000                   00000001800342e0     LIBCMTD:remainder_piby2f_forC.obj
 0001:00034150       _cftoe2_l                  0000000180035150 f   LIBCMTD:cvt.obj
 0001:00034a60       _cftof2_l                  0000000180035a60 f   LIBCMTD:cvt.obj
 0001:00035860       _shift                     0000000180036860 f   LIBCMTD:cvt.obj
 0001:00035bd0       xcptlookup                 0000000180036bd0 f   LIBCMTD:winxfltr.obj
 0001:00036520       parse_cmdline              0000000180037520 f   LIBCMTD:stdargv.obj
 0001:00036ea0       __IsPackagedAppHelper      0000000180037ea0 f   LIBCMTD:winapisupp.obj
 0001:00039440       $$000000                   000000018003a440     LIBCMTD:memcpy.obj
 0001:00039530       MoveSmall                  000000018003a530     LIBCMTD:memcpy.obj
 0001:0003a620       $$000000                   000000018003b620     LIBCMTD:jmpuwind.obj
 0001:0003bee0       $$000000                   000000018003cee0     LIBCMTD:fpsr.obj
 0001:0003c240       _is_LFH_enabled            000000018003d240 f   LIBCMTD:expand.obj
 0001:0003d9b0       ?__crtLCMapStringA_stat@@YAHPEAUlocaleinfo_struct@@PEB_WKPEBDHPEADHHH@Z 000000018003e9b0 f   LIBCMTD:a_map.obj
 0001:0003de20       ?strncnt@@YAHPEBDH@Z       000000018003ee20 f   LIBCMTD:a_map.obj
 0001:0003e040       ?__crtGetStringTypeA_stat@@YAHPEAUlocaleinfo_struct@@KPEBDHPEAGHH@Z 000000018003f040 f   LIBCMTD:a_str.obj
 0001:0003e4f0       ?CatchIt@@YAXPEAUEHExceptionRecord@@PEA_KPEAU_CONTEXT@@PEAU_xDISPATCHER_CONTEXT@@PEBU_s_FuncInfo@@PEBU_s_HandlerType@@PEBU_s_CatchableType@@PEBU_s_TryBlockMapEntry@@H1EE@Z 000000018003f4f0 f   LIBCMTD:frame.obj
 0001:0003e5d0       ?ExFilterRethrow@@YAHPEAU_EXCEPTION_POINTERS@@PEAUEHExceptionRecord@@PEAH@Z 000000018003f5d0 f   LIBCMTD:frame.obj
 0001:0003e6e0       ?FindHandler@@YAXPEAUEHExceptionRecord@@PEA_KPEAU_CONTEXT@@PEAU_xDISPATCHER_CONTEXT@@PEBU_s_FuncInfo@@EH1@Z 000000018003f6e0 f   LIBCMTD:frame.obj
 0001:0003eef0       ?FindHandlerForForeignException@@YAXPEAUEHExceptionRecord@@PEA_KPEAU_CONTEXT@@PEAU_xDISPATCHER_CONTEXT@@PEBU_s_FuncInfo@@HH1@Z 000000018003fef0 f   LIBCMTD:frame.obj
 0001:0003f270       ?IsInExceptionSpec@@YAEPEAUEHExceptionRecord@@PEBU_s_ESTypeList@@@Z 0000000180040270 f   LIBCMTD:frame.obj
 0001:0003f380       ?Is_bad_exception_allowed@@YAEPEBU_s_ESTypeList@@@Z 0000000180040380 f   LIBCMTD:frame.obj
 0001:0003f440       ?__RethrowException@@YAXPEAUEHExceptionRecord@@@Z 0000000180040440 f   LIBCMTD:frame.obj
 0001:000408d0       $$000000                   00000001800418d0     LIBCMTD:memcmp.obj
 0001:00041400       _onexit_nolock             0000000180042400 f   LIBCMTD:onexit.obj
 0001:00042e8c       $LN160                     0000000180043e8c     LIBCMTD:woutput.obj
 0001:00042eac       $LN159                     0000000180043eac     LIBCMTD:woutput.obj
 0001:00042ee8       $LN158                     0000000180043ee8     LIBCMTD:woutput.obj
 0001:00042ff0       write_char                 0000000180043ff0 f   LIBCMTD:woutput.obj
 0001:00042ff0       write_char                 0000000180043ff0 f   LIBCMTD:woutput.obj
 0001:00043070       write_multi_char           0000000180044070 f   LIBCMTD:woutput.obj
 0001:00043070       write_multi_char           0000000180044070 f   LIBCMTD:woutput.obj
 0001:000430d0       write_string               00000001800440d0 f   LIBCMTD:woutput.obj
 0001:000430d0       write_string               00000001800440d0 f   LIBCMTD:woutput.obj
 0001:00044be8       $LN169                     0000000180045be8     LIBCMTD:woutputs.obj
 0001:00044c08       $LN168                     0000000180045c08     LIBCMTD:woutputs.obj
 0001:00044c44       $LN167                     0000000180045c44     LIBCMTD:woutputs.obj
 0001:00044c80       $$000000                   0000000180045c80     LIBCMTD:strlen.obj
 0001:00046520       ?x_ismbbtype_l@@YAHPEAUlocaleinfo_struct@@IHH@Z 0000000180047520 f   LIBCMTD:ismbbyte.obj
 0001:00046cb0       xtoa_s                     0000000180047cb0 f   LIBCMTD:xtoas.obj
 0001:00047db0       ?wcsncnt@@YA_KPEB_W_K@Z    0000000180048db0 f   LIBCMTD:wcstombs.obj
 0001:0004a030       $$000000                   000000018004b030     LIBCMTD:strcmp.obj
 0001:0004a110       $$000000                   000000018004b110     LIBCMTD:handlers.obj
 0001:0004c368       $LN180                     000000018004d368     LIBCMTD:outputs.obj
 0001:0004c388       $LN179                     000000018004d388     LIBCMTD:outputs.obj
 0001:0004c3c4       $LN178                     000000018004d3c4     LIBCMTD:outputs.obj
 0001:0004c400       write_char                 000000018004d400 f   LIBCMTD:outputs.obj
 0001:0004c4e0       write_multi_char           000000018004d4e0 f   LIBCMTD:outputs.obj
 0001:0004c540       write_string               000000018004d540 f   LIBCMTD:outputs.obj
 0001:0004e3e4       $LN140                     000000018004f3e4     LIBCMTD:strgtold.obj
 0001:0004e414       $LN139                     000000018004f414     LIBCMTD:strgtold.obj
 0001:0004e424       $LN138                     000000018004f424     LIBCMTD:strgtold.obj
 0001:0004e460       $LN137                     000000018004f460     LIBCMTD:strgtold.obj
 0001:0004e46c       $LN136                     000000018004f46c     LIBCMTD:strgtold.obj
 0001:0004e4a8       $LN135                     000000018004f4a8     LIBCMTD:strgtold.obj
 0001:0004e4b4       $LN134                     000000018004f4b4     LIBCMTD:strgtold.obj
 0001:0004fdf0       fread_s$fin$0              0000000180050df0 f   LIBCMTD:fread.obj
 0001:0004fe10       fseek$fin$0                0000000180050e10 f   LIBCMTD:fseek.obj
 0001:0004fe30       ?dtor$0@?0??strtoxl@@YAKPEAUlocaleinfo_struct@@PEBDPEAPEBDHH@Z@4HA 0000000180050e30 f   LIBCMTD:strtol.obj
 0001:0004fe50       _CRT_INIT$fin$0            0000000180050e50 f   LIBCMTD:dllcrt0.obj
 0001:0004fe80       __DllMainCRTStartup$filt$0 0000000180050e80 f   LIBCMTD:dllcrt0.obj
 0001:0004fec0       fflush$fin$0               0000000180050ec0 f   LIBCMTD:fflush.obj
 0001:0004fee0       flsall$fin$0               0000000180050ee0 f   LIBCMTD:fflush.obj
 0001:0004ff08       flsall$fin$1               0000000180050f08 f   LIBCMTD:fflush.obj
 0001:0004ff30       _ctrlfp$filt$0             0000000180050f30 f   LIBCMTD:fpctrl.obj
 0001:0004ff80       ?filt$0@?0??__crtIsBadReadPtr@@YAHPEBX_K@Z@4HA 0000000180050f80 f   LIBCMTD:dbgheap.obj
 0001:0004ff80       __BuildCatchObjectHelper$filt$0 0000000180050f80 f   LIBCMTD:dbgheap.obj
 0001:0004ff80       ?filt$0@?0??_inconsistency@@YAXXZ@4HA 0000000180050f80 f   LIBCMTD:dbgheap.obj
 0001:0004ff80       ?filt$0@?0??terminate@@YAXXZ@4HA 0000000180050f80 f   LIBCMTD:dbgheap.obj
 0001:0004ff80       __BuildCatchObject$filt$0  0000000180050f80 f   LIBCMTD:dbgheap.obj
 0001:0004ffa0       _CrtCheckMemory$fin$0      0000000180050fa0 f   LIBCMTD:dbgheap.obj
 0001:0004ffc0       _heap_alloc_dbg_impl$fin$0 0000000180050fc0 f   LIBCMTD:dbgheap.obj
 0001:0004ffc0       _CrtMemCheckpoint$fin$0    0000000180050fc0 f   LIBCMTD:dbgheap.obj
 0001:0004ffc0       ?fin$0@?0??_CrtMemDumpAllObjectsSince_stat@@YAXPEBU_CrtMemState@@PEAUlocaleinfo_struct@@@Z@4HA 0000000180050fc0 f   LIBCMTD:dbgheap.obj
 0001:0004ffe0       _free_dbg$fin$0            0000000180050fe0 f   LIBCMTD:dbgheap.obj
 0001:00050000       _msize_dbg$fin$0           0000000180051000 f   LIBCMTD:dbgheap.obj
 0001:00050000       _CrtSetDbgFlag$fin$0       0000000180051000 f   LIBCMTD:dbgheap.obj
 0001:00050000       _realloc_dbg$fin$0         0000000180051000 f   LIBCMTD:dbgheap.obj
 0001:00050000       ?fin$0@?0???3@YAXPEAX@Z@4HA 0000000180051000 f   LIBCMTD:dbgheap.obj
 0001:00050020       ?dtor$0@?0??getSystemCP@@YAHH@Z@4HA 0000000180051020 f   LIBCMTD:mbctype.obj
 0001:00050040       _setmbcp$fin$0             0000000180051040 f   LIBCMTD:mbctype.obj
 0001:00050040       __updatetmbcinfo$fin$0     0000000180051040 f   LIBCMTD:mbctype.obj
 0001:00050060       _freefls$fin$0             0000000180051060 f   LIBCMTD:tidtable.obj
 0001:00050060       _initptd$fin$0             0000000180051060 f   LIBCMTD:tidtable.obj
 0001:0005007b       _freefls$fin$1             000000018005107b f   LIBCMTD:tidtable.obj
 0001:0005007b       _initptd$fin$1             000000018005107b f   LIBCMTD:tidtable.obj
 0001:000500a0       _CallSETranslator$filt$0   00000001800510a0 f   LIBCMTD:trnsctrl.obj
 0001:00050100       __updatetlocinfo$fin$0     0000000180051100 f   LIBCMTD:wsetloca.obj
 0001:00050100       _locterm$fin$0             0000000180051100 f   LIBCMTD:wsetloca.obj
 0001:00050120       doexit$fin$0               0000000180051120 f   LIBCMTD:crt0dat.obj
 0001:00050140       fwprintf$fin$0             0000000180051140 f   LIBCMTD:fwprintf.obj
 0001:00050160       raise$fin$0                0000000180051160 f   LIBCMTD:winsig.obj
 0001:00050180       _ioinit$fin$0              0000000180051180 f   LIBCMTD:ioinit.obj
 0001:000501a0       __lock_fhandle$fin$0       00000001800511a0 f   LIBCMTD:mlock.obj
 0001:000501a0       _mtinitlocknum$fin$0       00000001800511a0 f   LIBCMTD:mlock.obj
 0001:000501c0       _VCrtDbgReportA$fin$0      00000001800511c0 f   LIBCMTD:dbgrptt.obj
 0001:000501db       _VCrtDbgReportA$fin$1      00000001800511db f   LIBCMTD:dbgrptt.obj
 0001:00050200       _VCrtDbgReportW$fin$0      0000000180051200 f   LIBCMTD:dbgrptt.obj
 0001:0005021b       _VCrtDbgReportW$fin$1      000000018005121b f   LIBCMTD:dbgrptt.obj
 0001:00050240       _fcloseall$fin$0           0000000180051240 f   LIBCMTD:closeall.obj
 0001:00050260       _lseeki64$fin$0            0000000180051260 f   LIBCMTD:lseeki64.obj
 0001:00050260       _lseek$fin$0               0000000180051260 f   LIBCMTD:lseeki64.obj
 0001:00050260       _write$fin$0               0000000180051260 f   LIBCMTD:lseeki64.obj
 0001:00050260       _commit$fin$0              0000000180051260 f   LIBCMTD:lseeki64.obj
 0001:00050260       _read$fin$0                0000000180051260 f   LIBCMTD:lseeki64.obj
 0001:00050260       _close$fin$0               0000000180051260 f   LIBCMTD:lseeki64.obj
 0001:00050280       _IsNonwritableInCurrentImage$filt$0 0000000180051280 f   LIBCMTD:pesect.obj
 0001:000502c0       __CxxCallCatchBlock$filt$0 00000001800512c0 f   LIBCMTD:frame.obj
 0001:000502e9       __CxxCallCatchBlock$fin$1  00000001800512e9 f   LIBCMTD:frame.obj
 0001:00050390       __DestructExceptionObject$filt$0 0000000180051390 f   LIBCMTD:frame.obj
 0001:000503c0       __FrameUnwindToState$filt$0 00000001800513c0 f   LIBCMTD:frame.obj
 0001:000503e1       __FrameUnwindToState$fin$1 00000001800513e1 f   LIBCMTD:frame.obj
 0001:00050420       _onexit$fin$0              0000000180051420 f   LIBCMTD:onexit.obj
 0001:00050440       ?dtor$0@?0??x_ismbbtype_l@@YAHPEAUlocaleinfo_struct@@IHH@Z@4HA 0000000180051440 f   LIBCMTD:ismbbyte.obj
 0001:00050460       setvbuf$fin$0              0000000180051460 f   LIBCMTD:fclose.obj
 0001:00050460       fclose$fin$0               0000000180051460 f   LIBCMTD:fclose.obj
 0001:00050480       ?fin$0@?0??_Type_info_dtor@type_info@@CAXPEAV1@@Z@4HA 0000000180051480 f   LIBCMTD:typname.obj
 0002:00000260       pinit                      0000000180052260     LIBCMTD:_file.obj
 0002:00000268       pinit                      0000000180052268     LIBCMTD:mbctype.obj
 0002:00000270       init_fma3                  0000000180052270     LIBCMTD:fma3_available.obj
 0002:00000278       pinit                      0000000180052278     LIBCMTD:cpu_disp.obj
 0002:00000280       pinit                      0000000180052280     LIBCMTD:onexit.obj
 0002:00000298       pterm                      0000000180052298     LIBCMTD:wsetloca.obj
 0002:000002a0       pterm                      00000001800522a0     LIBCMTD:initcon.obj
 0002:000002a8       pterm                      00000001800522a8     LIBCMTD:_file.obj
 0002:00000310       $SG21510                   0000000180052310     dolphin.obj
 0002:00000320       $SG21527                   0000000180052320     dolphin.obj
 0002:00000333       $SG21007                   0000000180052333     dolphin.obj
 0002:00000334       $SG21535                   0000000180052334     dolphin.obj
 0002:00000338       $SG21538                   0000000180052338     dolphin.obj
 0002:00000344       $SG17019                   0000000180052344     dolphin.obj
 0002:00000348       $SG18475                   0000000180052348     dolphin.obj
 0002:00000358       $SG18478                   0000000180052358     dolphin.obj
 0002:00000364       $SG17098                   0000000180052364     dolphin.obj
 0002:00000368       $SG18488                   0000000180052368     dolphin.obj
 0002:00000378       $SG18490                   0000000180052378     dolphin.obj
 0002:00000388       $SG17473                   0000000180052388     dolphin.obj
 0002:0000039c       $SG18597                   000000018005239c     dolphin.obj
 0002:000003a4       $SG18602                   00000001800523a4     dolphin.obj
 0002:000003ac       $SG17120                   00000001800523ac     dolphin.obj
 0002:000003b0       $SG20548                   00000001800523b0     dolphin.obj
 0002:000003bc       $SG21303                   00000001800523bc     dolphin.obj
 0002:000003c0       $SG20555                   00000001800523c0     dolphin.obj
 0002:000003cc       $SG18600                   00000001800523cc     dolphin.obj
 0002:000003d4       $SG18632                   00000001800523d4     dolphin.obj
 0002:000003dc       $SG21312                   00000001800523dc     dolphin.obj
 0002:000003e0       $SG18507                   00000001800523e0     dolphin.obj
 0002:000003f0       $SG20568                   00000001800523f0     dolphin.obj
 0002:00000400       $SG20572                   0000000180052400     dolphin.obj
 0002:00000478       $SG20573                   0000000180052478     dolphin.obj
 0002:000004a4       $SG18642                   00000001800524a4     dolphin.obj
 0002:000004ac       $SG21383                   00000001800524ac     dolphin.obj
 0002:000004b0       $SG19549                   00000001800524b0     dolphin.obj
 0002:000004bc       $SG21389                   00000001800524bc     dolphin.obj
 0002:000004c0       $SG18530                   00000001800524c0     dolphin.obj
 0002:000004d8       $SG18532                   00000001800524d8     dolphin.obj
 0002:000004e4       $SG17296                   00000001800524e4     dolphin.obj
 0002:000004e8       $SG20581                   00000001800524e8     dolphin.obj
 0002:000004f8       $SG18545                   00000001800524f8     dolphin.obj
 0002:00000508       $SG18547                   0000000180052508     dolphin.obj
 0002:00000518       $SG18552                   0000000180052518     dolphin.obj
 0002:00000520       $SG20601                   0000000180052520     dolphin.obj
 0002:00000598       $SG20602                   0000000180052598     dolphin.obj
 0002:000005c8       $SG18555                   00000001800525c8     dolphin.obj
 0002:000005d0       $SG18558                   00000001800525d0     dolphin.obj
 0002:000005d8       $SG18576                   00000001800525d8     dolphin.obj
 0002:000005f0       $SG17535                   00000001800525f0     dolphin.obj
 0002:00000668       $SG18578                   0000000180052668     dolphin.obj
 0002:00000670       $SG17536                   0000000180052670     dolphin.obj
 0002:00000714       $SG20755                   0000000180052714     dolphin.obj
 0002:00000720       stbi__jbias                0000000180052720     dolphin.obj
 0002:00000760       $SG18572                   0000000180052760     dolphin.obj
 0002:00000770       $SG17548                   0000000180052770     dolphin.obj
 0002:000007e8       $SG18580                   00000001800527e8     dolphin.obj
 0002:00000800       $SG17549                   0000000180052800     dolphin.obj
 0002:00000880       $SG18574                   0000000180052880     dolphin.obj
 0002:00000890       $SG19607                   0000000180052890     dolphin.obj
 0002:00000908       $SG19614                   0000000180052908     dolphin.obj
 0002:00000920       $SG19608                   0000000180052920     dolphin.obj
 0002:00000978       $SG18585                   0000000180052978     dolphin.obj
 0002:00000988       $SG19611                   0000000180052988     dolphin.obj
 0002:00000998       $SG19617                   0000000180052998     dolphin.obj
 0002:000009b0       $SG18594                   00000001800529b0     dolphin.obj
 0002:000009c8       $SG19625                   00000001800529c8     dolphin.obj
 0002:000009d8       $SG17577                   00000001800529d8     dolphin.obj
 0002:000009f0       $SG19628                   00000001800529f0     dolphin.obj
 0002:00000a68       $SG20653                   0000000180052a68     dolphin.obj
 0002:00000a70       $SG19629                   0000000180052a70     dolphin.obj
 0002:00000aa0       $SG18605                   0000000180052aa0     dolphin.obj
 0002:00000ab0       $SG20657                   0000000180052ab0     dolphin.obj
 0002:00000ac0       $SG14515                   0000000180052ac0     dolphin.obj
 0002:00000ad8       $SG20662                   0000000180052ad8     dolphin.obj
 0002:00000af0       $SG17592                   0000000180052af0     dolphin.obj
 0002:00000b08       $SG20666                   0000000180052b08     dolphin.obj
 0002:00000b20       $SG18618                   0000000180052b20     dolphin.obj
 0002:00000b30       $SG20670                   0000000180052b30     dolphin.obj
 0002:00000b48       $SG20674                   0000000180052b48     dolphin.obj
 0002:00000b58       $SG20679                   0000000180052b58     dolphin.obj
 0002:00000b68       $SG17607                   0000000180052b68     dolphin.obj
 0002:00000b80       $SG17622                   0000000180052b80     dolphin.obj
 0002:00000b98       $SG17639                   0000000180052b98     dolphin.obj
 0002:00000bb0       $SG18666                   0000000180052bb0     dolphin.obj
 0002:00000bc8       $SG19695                   0000000180052bc8     dolphin.obj
 0002:00000bf0       $SG19694                   0000000180052bf0     dolphin.obj
 0002:00000c68       $SG17666                   0000000180052c68     dolphin.obj
 0002:00000c80       $SG17673                   0000000180052c80     dolphin.obj
 0002:00000c94       $SG20760                   0000000180052c94     dolphin.obj
 0002:00000ca0       $SG20786                   0000000180052ca0     dolphin.obj
 0002:00000cb0       $SG21840                   0000000180052cb0     dolphin.obj
 0002:00000cd8       $SG20817                   0000000180052cd8     dolphin.obj
 0002:00000ce8       $SG21842                   0000000180052ce8     dolphin.obj
 0002:00000d00       $SG21844                   0000000180052d00     dolphin.obj
 0002:00000d20       $SG20821                   0000000180052d20     dolphin.obj
 0002:00000d30       $SG21846                   0000000180052d30     dolphin.obj
 0002:00000d50       $SG19799                   0000000180052d50     dolphin.obj
 0002:00000dc8       $SG21848                   0000000180052dc8     dolphin.obj
 0002:00000de8       $SG19800                   0000000180052de8     dolphin.obj
 0002:00000e00       $SG20825                   0000000180052e00     dolphin.obj
 0002:00000e10       $SG21850                   0000000180052e10     dolphin.obj
 0002:00000e30       $SG21856                   0000000180052e30     dolphin.obj
 0002:00000e60       $SG21857                   0000000180052e60     dolphin.obj
 0002:00000e88       $SG21858                   0000000180052e88     dolphin.obj
 0002:00000eb0       $SG21859                   0000000180052eb0     dolphin.obj
 0002:00000ee0       $SG21860                   0000000180052ee0     dolphin.obj
 0002:00000f10       $SG21861                   0000000180052f10     dolphin.obj
 0002:00000f38       $SG21862                   0000000180052f38     dolphin.obj
 0002:00000f60       $SG21863                   0000000180052f60     dolphin.obj
 0002:00000f90       $SG21864                   0000000180052f90     dolphin.obj
 0002:00000fc0       $SG21865                   0000000180052fc0     dolphin.obj
 0002:00000ff0       $SG21866                   0000000180052ff0     dolphin.obj
 0002:00001020       $SG20842                   0000000180053020     dolphin.obj
 0002:00001030       $SG21867                   0000000180053030     dolphin.obj
 0002:00001060       $SG21869                   0000000180053060     dolphin.obj
 0002:00001080       $SG21871                   0000000180053080     dolphin.obj
 0002:000010a0       $SG21873                   00000001800530a0     dolphin.obj
 0002:000010c0       $SG21875                   00000001800530c0     dolphin.obj
 0002:000010e0       $SG21877                   00000001800530e0     dolphin.obj
 0002:00001100       $SG21879                   0000000180053100     dolphin.obj
 0002:00001120       $SG21881                   0000000180053120     dolphin.obj
 0002:00001140       $SG21883                   0000000180053140     dolphin.obj
 0002:00001160       $SG20860                   0000000180053160     dolphin.obj
 0002:00001170       $SG21885                   0000000180053170     dolphin.obj
 0002:00001190       $SG21886                   0000000180053190     dolphin.obj
 0002:000011b0       $SG21887                   00000001800531b0     dolphin.obj
 0002:000011d0       $SG21888                   00000001800531d0     dolphin.obj
 0002:000011f0       $SG21889                   00000001800531f0     dolphin.obj
 0002:00001210       $SG21890                   0000000180053210     dolphin.obj
 0002:00001230       $SG21891                   0000000180053230     dolphin.obj
 0002:00001250       $SG21892                   0000000180053250     dolphin.obj
 0002:00001270       $SG21893                   0000000180053270     dolphin.obj
 0002:00001290       $SG20877                   0000000180053290     dolphin.obj
 0002:000012a0       $SG21904                   00000001800532a0     dolphin.obj
 0002:000012c0       $SG19857                   00000001800532c0     dolphin.obj
 0002:00001338       $SG21906                   0000000180053338     dolphin.obj
 0002:00001358       $SG19858                   0000000180053358     dolphin.obj
 0002:00001390       $SG21907                   0000000180053390     dolphin.obj
 0002:000013b0       $SG20885                   00000001800533b0     dolphin.obj
 0002:000013c0       $SG20894                   00000001800533c0     dolphin.obj
 0002:000013d0       $SG19879                   00000001800533d0     dolphin.obj
 0002:00001448       $SG19880                   0000000180053448     dolphin.obj
 0002:00001480       $SG20916                   0000000180053480     dolphin.obj
 0002:00001490       $SG20920                   0000000180053490     dolphin.obj
 0002:000014a0       $SG19903                   00000001800534a0     dolphin.obj
 0002:000014b0       $SG19926                   00000001800534b0     dolphin.obj
 0002:000014c0       $SG19953                   00000001800534c0     dolphin.obj
 0002:00001538       $SG19954                   0000000180053538     dolphin.obj
 0002:00001560       $SG21002                   0000000180053560     dolphin.obj
 0002:00001568       $SG21004                   0000000180053568     dolphin.obj
 0002:00001570       $SG21006                   0000000180053570     dolphin.obj
 0002:00001578       $SG14874                   0000000180053578     dolphin.obj
 0002:000015a0       $SG20004                   00000001800535a0     dolphin.obj
 0002:000015b0       $SG20006                   00000001800535b0     dolphin.obj
 0002:000015c0       $SG20008                   00000001800535c0     dolphin.obj
 0002:000015d0       $SG20010                   00000001800535d0     dolphin.obj
 0002:000015e0       $SG20012                   00000001800535e0     dolphin.obj
 0002:000015f8       $SG20014                   00000001800535f8     dolphin.obj
 0002:00001608       $SG20016                   0000000180053608     dolphin.obj
 0002:00001618       $SG20020                   0000000180053618     dolphin.obj
 0002:00001628       $SG20022                   0000000180053628     dolphin.obj
 0002:00001638       $SG20024                   0000000180053638     dolphin.obj
 0002:00001650       $SG20026                   0000000180053650     dolphin.obj
 0002:00001668       $SG16955                   0000000180053668     dolphin.obj
 0002:00001680       $SG20029                   0000000180053680     dolphin.obj
 0002:00001690       $SG20032                   0000000180053690     dolphin.obj
 0002:000016a0       $SG20036                   00000001800536a0     dolphin.obj
 0002:000016b0       $SG20039                   00000001800536b0     dolphin.obj
 0002:000016c0       $SG20041                   00000001800536c0     dolphin.obj
 0002:000016d0       $SG20043                   00000001800536d0     dolphin.obj
 0002:000016e0       $SG20049                   00000001800536e0     dolphin.obj
 0002:000016f0       $SG20051                   00000001800536f0     dolphin.obj
 0002:00001700       $SG21078                   0000000180053700     dolphin.obj
 0002:00001710       $SG19030                   0000000180053710     dolphin.obj
 0002:00001720       $SG20055                   0000000180053720     dolphin.obj
 0002:00001738       $SG20057                   0000000180053738     dolphin.obj
 0002:00001748       $SG21083                   0000000180053748     dolphin.obj
 0002:00001758       $SG20063                   0000000180053758     dolphin.obj
 0002:00001768       $SG21089                   0000000180053768     dolphin.obj
 0002:00001780       $SG20066                   0000000180053780     dolphin.obj
 0002:00001790       $SG21095                   0000000180053790     dolphin.obj
 0002:000017a8       $SG19048                   00000001800537a8     dolphin.obj
 0002:000017b8       $SG20078                   00000001800537b8     dolphin.obj
 0002:000017c8       $SG20080                   00000001800537c8     dolphin.obj
 0002:000017d0       $SG19061                   00000001800537d0     dolphin.obj
 0002:000017e0       $SG20095                   00000001800537e0     dolphin.obj
 0002:000017f0       $SG17024                   00000001800537f0     dolphin.obj
 0002:00001800       $SG20097                   0000000180053800     dolphin.obj
 0002:00001810       $SG21126                   0000000180053810     dolphin.obj
 0002:00001820       $SG20102                   0000000180053820     dolphin.obj
 0002:00001830       $SG20105                   0000000180053830     dolphin.obj
 0002:00001838       $SG20126                   0000000180053838     dolphin.obj
 0002:00001848       $SG21159                   0000000180053848     dolphin.obj
 0002:00001860       $SG17069                   0000000180053860     dolphin.obj
 0002:00001878       $SG20146                   0000000180053878     dolphin.obj
 0002:00001888       $SG21171                   0000000180053888     dolphin.obj
 0002:000018a0       $SG21188                   00000001800538a0     dolphin.obj
 0002:000018b0       $SG17102                   00000001800538b0     dolphin.obj
 0002:000018c0       $SG19154                   00000001800538c0     dolphin.obj
 0002:00001938       $SG19155                   0000000180053938     dolphin.obj
 0002:00001950       $SG21217                   0000000180053950     dolphin.obj
 0002:00001960       $SG19173                   0000000180053960     dolphin.obj
 0002:00001970       $SG19181                   0000000180053970     dolphin.obj
 0002:00001980       $SG20243                   0000000180053980     dolphin.obj
 0002:00001988       $SG20247                   0000000180053988     dolphin.obj
 0002:00001994       $SG21424                   0000000180053994     dolphin.obj
 0002:000019a0       $SG19226                   00000001800539a0     dolphin.obj
 0002:00001a18       $SG20253                   0000000180053a18     dolphin.obj
 0002:00001a20       $SG19227                   0000000180053a20     dolphin.obj
 0002:00001a70       $SG20257                   0000000180053a70     dolphin.obj
 0002:00001a80       $SG21288                   0000000180053a80     dolphin.obj
 0002:00001a90       $SG20264                   0000000180053a90     dolphin.obj
 0002:00001a98       $SG21291                   0000000180053a98     dolphin.obj
 0002:00001aa0       $SG19248                   0000000180053aa0     dolphin.obj
 0002:00001b18       $SG21297                   0000000180053b18     dolphin.obj
 0002:00001b30       $SG19249                   0000000180053b30     dolphin.obj
 0002:00001b50       $SG21301                   0000000180053b50     dolphin.obj
 0002:00001b68       $SG20278                   0000000180053b68     dolphin.obj
 0002:00001b70       $SG21306                   0000000180053b70     dolphin.obj
 0002:00001b88       $SG20282                   0000000180053b88     dolphin.obj
 0002:00001b90       $SG20288                   0000000180053b90     dolphin.obj
 0002:00001b98       $SG21315                   0000000180053b98     dolphin.obj
 0002:00001bb0       $SG19268                   0000000180053bb0     dolphin.obj
 0002:00001bd0       $SG17228                   0000000180053bd0     dolphin.obj
 0002:00001c48       $SG19277                   0000000180053c48     dolphin.obj
 0002:00001c58       $SG17229                   0000000180053c58     dolphin.obj
 0002:00001c98       $SG17234                   0000000180053c98     dolphin.obj
 0002:00001ca8       $SG19292                   0000000180053ca8     dolphin.obj
 0002:00001cc0       $SG21345                   0000000180053cc0     dolphin.obj
 0002:00001ce0       $SG19303                   0000000180053ce0     dolphin.obj
 0002:00001cf8       $SG20329                   0000000180053cf8     dolphin.obj
 0002:00001d08       $SG19306                   0000000180053d08     dolphin.obj
 0002:00001d18       $SG20336                   0000000180053d18     dolphin.obj
 0002:00001d20       $SG20347                   0000000180053d20     dolphin.obj
 0002:00001d28       $SG21380                   0000000180053d28     dolphin.obj
 0002:00001d40       $SG17295                   0000000180053d40     dolphin.obj
 0002:00001db8       $SG19346                   0000000180053db8     dolphin.obj
 0002:00001dc8       $SG19375                   0000000180053dc8     dolphin.obj
 0002:00001df0       $SG19355                   0000000180053df0     dolphin.obj
 0002:00001e68       $SG19356                   0000000180053e68     dolphin.obj
 0002:00001e78       $SG19358                   0000000180053e78     dolphin.obj
 0002:00001e88       $SG17312                   0000000180053e88     dolphin.obj
 0002:00001e98       $SG20387                   0000000180053e98     dolphin.obj
 0002:00001ea8       $SG19380                   0000000180053ea8     dolphin.obj
 0002:00001eb8       $SG19382                   0000000180053eb8     dolphin.obj
 0002:00001ed0       $SG19374                   0000000180053ed0     dolphin.obj
 0002:00001f48       $SG17337                   0000000180053f48     dolphin.obj
 0002:00001f58       $SG19392                   0000000180053f58     dolphin.obj
 0002:00001f68       $SG19394                   0000000180053f68     dolphin.obj
 0002:00001f78       $SG19396                   0000000180053f78     dolphin.obj
 0002:00001f88       $SG21459                   0000000180053f88     dolphin.obj
 0002:00002520       $cppxdata$?strtoxl@@YAKPEAUlocaleinfo_struct@@PEBDPEAPEBDHH@Z 0000000180054520     LIBCMTD:strtol.obj
 0002:00003650       L_real_one                 0000000180055650     LIBCMTD:cosf.obj
 0002:00003660       L_one_half                 0000000180055660     LIBCMTD:cosf.obj
 0002:00003670       L_2bypi                    0000000180055670     LIBCMTD:cosf.obj
 0002:00003680       L_one_sixth                0000000180055680     LIBCMTD:cosf.obj
 0002:00003690       L_piby2                    0000000180055690     LIBCMTD:cosf.obj
 0002:000036a0       L_piby2_1                  00000001800556a0     LIBCMTD:cosf.obj
 0002:000036b0       L_piby2_1tail              00000001800556b0     LIBCMTD:cosf.obj
 0002:000036c0       L_piby2_2                  00000001800556c0     LIBCMTD:cosf.obj
 0002:000036d0       L_piby2_2tail              00000001800556d0     LIBCMTD:cosf.obj
 0002:000036e0       L_large_x_sse2             00000001800556e0     LIBCMTD:cosf.obj
 0002:000036f0       L_large_x_fma3             00000001800556f0     LIBCMTD:cosf.obj
 0002:00003700       L_sign_mask                0000000180055700     LIBCMTD:cosf.obj
 0002:00003710       L__int_three               0000000180055710     LIBCMTD:cosf.obj
 0002:00003720       L__min_norm_double         0000000180055720     LIBCMTD:cosf.obj
 0002:00003730       L_two_to_neg_7             0000000180055730     LIBCMTD:cosf.obj
 0002:00003740       L_two_to_neg_13            0000000180055740     LIBCMTD:cosf.obj
 0002:00003750       L_inf_mask_32              0000000180055750     LIBCMTD:cosf.obj
 0002:00003770       L__xexp_bits_xmantissa_bits 0000000180055770     LIBCMTD:powf.obj
 0002:00003780       L__1_by_2                  0000000180055780     LIBCMTD:powf.obj
 0002:00003790       L__1023                    0000000180055790     LIBCMTD:powf.obj
 0002:00003798       L__1_by_3                  0000000180055798     LIBCMTD:powf.obj
 0002:000037a0       L__log2                    00000001800557a0     LIBCMTD:powf.obj
 0002:000037a8       L__max_exp_arg             00000001800557a8     LIBCMTD:powf.obj
 0002:000037b0       L__min_exp_arg             00000001800557b0     LIBCMTD:powf.obj
 0002:000037b8       L__real_log2_by_64         00000001800557b8     LIBCMTD:powf.obj
 0002:000037c0       L__real_64_by_log2         00000001800557c0     LIBCMTD:powf.obj
 0002:000037d0       L__1_by_6                  00000001800557d0     LIBCMTD:powf.obj
 0002:000037d8       L__real_threshold          00000001800557d8     LIBCMTD:powf.obj
 0002:000037e0       L__real_one                00000001800557e0     LIBCMTD:powf.obj
 0002:000037e8       L__real_two                00000001800557e8     LIBCMTD:powf.obj
 0002:000037f0       L__neg_zero                00000001800557f0     LIBCMTD:powf.obj
 0002:00003800       L__real_ca42               0000000180055800     LIBCMTD:powf.obj
 0002:00003808       L__real_ca4                0000000180055808     LIBCMTD:powf.obj
 0002:00003810       L__real_ca31               0000000180055810     LIBCMTD:powf.obj
 0002:00003818       L__real_ca3                0000000180055818     LIBCMTD:powf.obj
 0002:00003820       L__clear_sign              0000000180055820     LIBCMTD:powf.obj
 0002:00004040       L_signbit                  0000000180056040     LIBCMTD:sinf.obj
 0002:00004050       L_sign_mask                0000000180056050     LIBCMTD:sinf.obj
 0002:00004060       L_one                      0000000180056060     LIBCMTD:sinf.obj
 0002:00004070       L_int_three                0000000180056070     LIBCMTD:sinf.obj
 0002:00004080       L_one_half                 0000000180056080     LIBCMTD:sinf.obj
 0002:00004090       L_twobypi                  0000000180056090     LIBCMTD:sinf.obj
 0002:000040a0       L_piby2_1                  00000001800560a0     LIBCMTD:sinf.obj
 0002:000040b0       L_one_sixth                00000001800560b0     LIBCMTD:sinf.obj
 0002:000040c0       L_piby2_1tail              00000001800560c0     LIBCMTD:sinf.obj
 0002:000040d0       L_piby2_2                  00000001800560d0     LIBCMTD:sinf.obj
 0002:000040e0       L_piby2_2tail              00000001800560e0     LIBCMTD:sinf.obj
 0002:000040f0       L_inf_mask_32              00000001800560f0     LIBCMTD:sinf.obj
 0002:00004100       L_int_two                  0000000180056100     LIBCMTD:sinf.obj
 0002:00004110       L_piby2_lead               0000000180056110     LIBCMTD:sinf.obj
 0002:00004120       L_piby4                    0000000180056120     LIBCMTD:sinf.obj
 0002:00004130       L_mask_3f2                 0000000180056130     LIBCMTD:sinf.obj
 0002:00004140       L_mask_3f8                 0000000180056140     LIBCMTD:sinf.obj
 0002:00004150       L_large_x_fma3             0000000180056150     LIBCMTD:sinf.obj
 0002:00004158       L_large_x_sse2             0000000180056158     LIBCMTD:sinf.obj
 0002:000041a8       _CrtDbgModeMsg             00000001800561a8     LIBCMTD:dbgrptw.obj
 0002:00004d20       ?mask@?3??_d_int@@9@9      0000000180056d20     LIBCMTD:_test.obj
 0002:00004d40       ?sub@?3??_d_int@@9@9       0000000180056d40     LIBCMTD:_test.obj
 0002:00004d60       ?mask@?3??_fd_int@@9@9     0000000180056d60     LIBCMTD:_test.obj
 0002:00004d80       ?sub@?3??_fd_int@@9@9      0000000180056d80     LIBCMTD:_test.obj
 0002:00004d90       szBlockUseName             0000000180056d90     LIBCMTD:dbgheap.obj
 0002:00005f08       _mb_locale_names           0000000180057f08     LIBCMTD:mbctype.obj
 0002:00005f68       $cppxdata$?getSystemCP@@YAHH@Z 0000000180057f68     LIBCMTD:mbctype.obj
 0002:00006080       ?ExceptionTemplate@?1??_UnwindNestedFrames@@9@4U_EXCEPTION_RECORD@@B 0000000180058080     LIBCMTD:trnsctrl.obj
 0002:000064e0       _first_127char             00000001800584e0     LIBCMTD:wsetloca.obj
 0002:00006560       GS_ExceptionPointers       0000000180058560     LIBCMTD:gs_report.obj
 0002:00006f50       rterrs                     0000000180058f50     LIBCMTD:crt0msg.obj
 0002:00007d60       L__piby2                   0000000180059d60     LIBCMTD:remainder_piby2f_forAsm.obj
 0002:00007d70       L_piby2_lead               0000000180059d70     LIBCMTD:remainder_piby2_forFMA3.obj
 0002:00007d80       L_fff800                   0000000180059d80     LIBCMTD:remainder_piby2_forFMA3.obj
 0002:00007d90       L_piby2_part1              0000000180059d90     LIBCMTD:remainder_piby2_forFMA3.obj
 0002:00007da0       L_piby2_part2              0000000180059da0     LIBCMTD:remainder_piby2_forFMA3.obj
 0002:00007db0       L_piby2_part3              0000000180059db0     LIBCMTD:remainder_piby2_forFMA3.obj
 0002:00007dc0       L_piby2_1                  0000000180059dc0     LIBCMTD:remainder_piby2_forFMA3.obj
 0002:00007dd0       L_piby2_2                  0000000180059dd0     LIBCMTD:remainder_piby2_forFMA3.obj
 0002:00007de0       L_piby2_3                  0000000180059de0     LIBCMTD:remainder_piby2_forFMA3.obj
 0002:00007df0       L_piby2_1tail              0000000180059df0     LIBCMTD:remainder_piby2_forFMA3.obj
 0002:00007e00       L_piby2_2tail              0000000180059e00     LIBCMTD:remainder_piby2_forFMA3.obj
 0002:00007e10       L_piby2_3tail              0000000180059e10     LIBCMTD:remainder_piby2_forFMA3.obj
 0002:00007e20       L_sign_mask                0000000180059e20     LIBCMTD:remainder_piby2_forFMA3.obj
 0002:00007e30       L_twobypi                  0000000180059e30     LIBCMTD:remainder_piby2_forFMA3.obj
 0002:00007e40       L_point_five               0000000180059e40     LIBCMTD:remainder_piby2_forFMA3.obj
 0002:00007e50       L_int_three                0000000180059e50     LIBCMTD:remainder_piby2_forFMA3.obj
 0002:00007e60       L_inf_mask_64              0000000180059e60     LIBCMTD:remainder_piby2_forFMA3.obj
 0002:00007e70       L_signbit                  0000000180059e70     LIBCMTD:remainder_piby2_forFMA3.obj
 0002:00007e80       L_r                        0000000180059e80     LIBCMTD:remainder_piby2_forFMA3.obj
 0002:00007e90       L_xc1                      0000000180059e90     LIBCMTD:remainder_piby2_forFMA3.obj
 0002:00007ea0       L_xc2                      0000000180059ea0     LIBCMTD:remainder_piby2_forFMA3.obj
 0002:00007eb0       L_xc3                      0000000180059eb0     LIBCMTD:remainder_piby2_forFMA3.obj
 0002:00007ec0       L_sigma                    0000000180059ec0     LIBCMTD:remainder_piby2_forFMA3.obj
 0002:000089f0       L__piby2                   000000018005a9f0     LIBCMTD:remainder_piby2f_forC.obj
 0002:00008a00       L__2_by_pi_bits            000000018005aa00     LIBCMTD:remainder_piby2f_forC.obj
 0002:0000a370       __real@433fffffffffffff    000000018005c370     LIBCMTD:fpsr.obj
 0002:0000a378       __real@c33fffffffffffff    000000018005c378     LIBCMTD:fpsr.obj
 0002:0000a410       _CrtDbgModeMsg             000000018005c410     LIBCMTD:dbgrpt.obj
 0002:0000e840       $cppxdata$?x_ismbbtype_l@@YAHPEAUlocaleinfo_struct@@IHH@Z 0000000180060840     LIBCMTD:ismbbyte.obj
 0002:0000f0d0       ?ExceptionTemplate@?1??_CxxThrowException@@9@4UEHExceptionRecord@@B 00000001800610d0     LIBCMTD:throw.obj
 0002:0000f570       tokenTable                 0000000180061570     LIBCMTD:undname.obj
 0002:0000f5e0       nameTable                  00000001800615e0     LIBCMTD:undname.obj
 0002:0000f860       rttiTable                  0000000180061860     LIBCMTD:undname.obj
 0002:00010140       $unwind$?pow@@YAMMM@Z      0000000180062140     dolphin.obj
 0002:00010148       $unwind$gd_sqrt            0000000180062148     dolphin.obj
 0002:00010150       $unwind$gd_rsqrt           0000000180062150     dolphin.obj
 0002:00010158       $unwind$gd_sin             0000000180062158     dolphin.obj
 0002:00010160       $unwind$gd_cos             0000000180062160     dolphin.obj
 0002:00010168       $unwind$gd_vec2_zero       0000000180062168     dolphin.obj
 0002:00010178       $unwind$gd_vec2            0000000180062178     dolphin.obj
 0002:00010188       $unwind$gd_vec3_zero       0000000180062188     dolphin.obj
 0002:0001019c       $unwind$gd_vec3            000000018006219c     dolphin.obj
 0002:000101b0       $unwind$gd_vec3_from_vec2  00000001800621b0     dolphin.obj
 0002:000101c4       $unwind$gd_vec4            00000001800621c4     dolphin.obj
 0002:000101d8       $unwind$gd_vec2_add        00000001800621d8     dolphin.obj
 0002:000101e8       $unwind$gd_vec2_mul        00000001800621e8     dolphin.obj
 0002:000101f8       $unwind$gd_vec3_add        00000001800621f8     dolphin.obj
 0002:0001020c       $unwind$gd_vec3_sub        000000018006220c     dolphin.obj
 0002:00010220       $unwind$gd_vec3_mul        0000000180062220     dolphin.obj
 0002:00010234       $unwind$gd_vec2_hadamard   0000000180062234     dolphin.obj
 0002:00010244       $unwind$gd_vec2_squared_mag 0000000180062244     dolphin.obj
 0002:0001024c       $unwind$gd_vec2_norm0      000000018006224c     dolphin.obj
 0002:0001025c       $unwind$gd_rect2           000000018006225c     dolphin.obj
 0002:00010270       $unwind$?BeginTaskWithMemory@@YAPEAUtask_with_memory@@PEAUtransient_state@@@Z 0000000180062270     dolphin.obj
 0002:0001027c       $unwind$?EndTaskWithMemory@@YAXPEAUtask_with_memory@@@Z 000000018006227c     dolphin.obj
 0002:00010288       $unwind$?LoadBitmapAsset@@YAXPEAUgame_assets@@Ubitmap_id@@@Z 0000000180062288     dolphin.obj
 0002:00010290       $unwind$?LoadSoundAsset@@YAXPEAUgame_assets@@Usound_id@@@Z 0000000180062290     dolphin.obj
 0002:00010298       $unwind$?RenderGroupToOutput@@YAXPEAUrender_group@@PEAUloaded_bitmap@@UgdRect2i@@@Z 0000000180062298     dolphin.obj
 0002:000102ac       $unwind$?DoTiledRenderWork@@YAXPEAUplatform_work_queue@@PEAX@Z 00000001800622ac     dolphin.obj
 0002:000102b8       $unwind$?TiledRenderGroupToOutput@@YAXPEAUplatform_work_queue@@PEAUrender_group@@PEAUloaded_bitmap@@@Z 00000001800622b8     dolphin.obj
 0002:000102cc       $unwind$?AllocateRenderGroup@@YAPEAUrender_group@@PEAUgame_assets@@PEAUmemory_arena@@IM@Z 00000001800622cc     dolphin.obj
 0002:000102d4       $unwind$?LoadWAV@@YA?AUloaded_sound@@PEADII@Z 00000001800622d4     dolphin.obj
 0002:000102e0       $unwind$stbi_load_from_memory 00000001800622e0     dolphin.obj
 0002:000102f0       $unwind$stbi_zlib_decode_malloc_guesssize_headerflag 00000001800622f0     dolphin.obj
 0002:00010300       $unwind$?stbi__cpuid3@@YAHXZ 0000000180062300     dolphin.obj
 0002:00010310       $unwind$?stbi__sse2_available@@YAHXZ 0000000180062310     dolphin.obj
 0002:00010318       $unwind$?stbi__refill_buffer@@YAXPEAUstbi__context@@@Z 0000000180062318     dolphin.obj
 0002:00010320       $unwind$?stbi__start_mem@@YAXPEAUstbi__context@@PEBEH@Z 0000000180062320     dolphin.obj
 0002:00010328       $unwind$?stbi__stdio_read@@YAHPEAXPEADH@Z 0000000180062328     dolphin.obj
 0002:00010330       $unwind$?stbi__stdio_skip@@YAXPEAXH@Z 0000000180062330     dolphin.obj
 0002:00010338       $unwind$?stbi__stdio_eof@@YAHPEAX@Z 0000000180062338     dolphin.obj
 0002:00010340       $unwind$?stbi__jpeg_test@@YAHPEAUstbi__context@@@Z 0000000180062340     dolphin.obj
 0002:00010350       $unwind$?stbi__jpeg_load@@YAPEAEPEAUstbi__context@@PEAH11H@Z 0000000180062350     dolphin.obj
 0002:00010358       $unwind$?stbi__png_test@@YAHPEAUstbi__context@@@Z 0000000180062358     dolphin.obj
 0002:00010360       $unwind$?stbi__png_load@@YAPEAEPEAUstbi__context@@PEAH11H@Z 0000000180062360     dolphin.obj
 0002:00010368       $unwind$?stbi__bmp_test@@YAHPEAUstbi__context@@@Z 0000000180062368     dolphin.obj
 0002:00010370       $unwind$?stbi__bmp_load@@YAPEAEPEAUstbi__context@@PEAH11H@Z 0000000180062370     dolphin.obj
 0002:00010380       $unwind$?stbi__tga_test@@YAHPEAUstbi__context@@@Z 0000000180062380     dolphin.obj
 0002:00010388       $unwind$?stbi__tga_load@@YAPEAEPEAUstbi__context@@PEAH11H@Z 0000000180062388     dolphin.obj
 0002:00010390       $unwind$?stbi__psd_test@@YAHPEAUstbi__context@@@Z 0000000180062390     dolphin.obj
 0002:00010398       $unwind$?stbi__psd_load@@YAPEAEPEAUstbi__context@@PEAH11H@Z 0000000180062398     dolphin.obj
 0002:000103a0       $unwind$?stbi__hdr_test@@YAHPEAUstbi__context@@@Z 00000001800623a0     dolphin.obj
 0002:000103a8       $unwind$?stbi__hdr_load@@YAPEAMPEAUstbi__context@@PEAH11H@Z 00000001800623a8     dolphin.obj
 0002:000103b8       $unwind$?stbi__pic_test@@YAHPEAUstbi__context@@@Z 00000001800623b8     dolphin.obj
 0002:000103c0       $unwind$?stbi__pic_load@@YAPEAEPEAUstbi__context@@PEAH11H@Z 00000001800623c0     dolphin.obj
 0002:000103c8       $unwind$?stbi__gif_test@@YAHPEAUstbi__context@@@Z 00000001800623c8     dolphin.obj
 0002:000103d0       $unwind$?stbi__gif_load@@YAPEAEPEAUstbi__context@@PEAH11H@Z 00000001800623d0     dolphin.obj
 0002:000103d8       $unwind$?stbi__pnm_test@@YAHPEAUstbi__context@@@Z 00000001800623d8     dolphin.obj
 0002:000103e0       $unwind$?stbi__pnm_load@@YAPEAEPEAUstbi__context@@PEAH11H@Z 00000001800623e0     dolphin.obj
 0002:000103e8       $unwind$?stbi__pnm_info@@YAHPEAUstbi__context@@PEAH11@Z 00000001800623e8     dolphin.obj
 0002:000103f0       $unwind$?stbi__malloc@@YAPEAX_K@Z 00000001800623f0     dolphin.obj
 0002:000103f8       $unwind$?stbi__hdr_to_ldr@@YAPEAEPEAMHHH@Z 00000001800623f8     dolphin.obj
 0002:00010400       $unwind$?stbi__load_main@@YAPEAEPEAUstbi__context@@PEAH11H@Z 0000000180062400     dolphin.obj
 0002:00010408       $unwind$?stbi__load_flip@@YAPEAEPEAUstbi__context@@PEAH11H@Z 0000000180062408     dolphin.obj
 0002:00010410       $unwind$?stbi__get8@@YAEPEAUstbi__context@@@Z 0000000180062410     dolphin.obj
 0002:00010418       $unwind$?stbi__at_eof@@YAHPEAUstbi__context@@@Z 0000000180062418     dolphin.obj
 0002:00010420       $unwind$?stbi__skip@@YAXPEAUstbi__context@@H@Z 0000000180062420     dolphin.obj
 0002:00010428       $unwind$?stbi__getn@@YAHPEAUstbi__context@@PEAEH@Z 0000000180062428     dolphin.obj
 0002:00010434       $unwind$?stbi__get16be@@YAHPEAUstbi__context@@@Z 0000000180062434     dolphin.obj
 0002:0001043c       $unwind$?stbi__get32be@@YAIPEAUstbi__context@@@Z 000000018006243c     dolphin.obj
 0002:00010444       $unwind$?stbi__get16le@@YAHPEAUstbi__context@@@Z 0000000180062444     dolphin.obj
 0002:0001044c       $unwind$?stbi__get32le@@YAIPEAUstbi__context@@@Z 000000018006244c     dolphin.obj
 0002:00010454       $unwind$?stbi__convert_format@@YAPEAEPEAEHHII@Z 0000000180062454     dolphin.obj
 0002:0001045c       $unwind$?stbi__build_huffman@@YAHPEAUstbi__huffman@@PEAH@Z 000000018006245c     dolphin.obj
 0002:00010464       $unwind$?stbi__build_fast_ac@@YAXPEAFPEAUstbi__huffman@@@Z 0000000180062464     dolphin.obj
 0002:0001046c       $unwind$?stbi__grow_buffer_unsafe@@YAXPEAUstbi__jpeg@@@Z 000000018006246c     dolphin.obj
 0002:00010474       $unwind$?stbi__jpeg_huff_decode@@YAHPEAUstbi__jpeg@@PEAUstbi__huffman@@@Z 0000000180062474     dolphin.obj
 0002:0001047c       $unwind$?stbi__extend_receive@@YAHPEAUstbi__jpeg@@H@Z 000000018006247c     dolphin.obj
 0002:00010484       $unwind$?stbi__jpeg_get_bits@@YAHPEAUstbi__jpeg@@H@Z 0000000180062484     dolphin.obj
 0002:0001048c       $unwind$?stbi__jpeg_get_bit@@YAHPEAUstbi__jpeg@@@Z 000000018006248c     dolphin.obj
 0002:00010494       $unwind$?stbi__jpeg_decode_block@@YAHPEAUstbi__jpeg@@QEAFPEAUstbi__huffman@@2PEAFHPEAE@Z 0000000180062494     dolphin.obj
 0002:0001049c       $unwind$?stbi__jpeg_decode_block_prog_dc@@YAHPEAUstbi__jpeg@@QEAFPEAUstbi__huffman@@H@Z 000000018006249c     dolphin.obj
 0002:000104a4       $unwind$?stbi__jpeg_decode_block_prog_ac@@YAHPEAUstbi__jpeg@@QEAFPEAUstbi__huffman@@PEAF@Z 00000001800624a4     dolphin.obj
 0002:000104ac       $unwind$?stbi__idct_block@@YAXPEAEHQEAF@Z 00000001800624ac     dolphin.obj
 0002:000104bc       $unwind$?stbi__idct_simd@@YAXPEAEHQEAF@Z 00000001800624bc     dolphin.obj
 0002:000104c4       $unwind$?stbi__get_marker@@YAEPEAUstbi__jpeg@@@Z 00000001800624c4     dolphin.obj
 0002:000104cc       $unwind$?stbi__jpeg_reset@@YAXPEAUstbi__jpeg@@@Z 00000001800624cc     dolphin.obj
 0002:000104d4       $unwind$?stbi__parse_entropy_coded_data@@YAHPEAUstbi__jpeg@@@Z 00000001800624d4     dolphin.obj
 0002:000104e4       $unwind$?stbi__jpeg_dequantize@@YAXPEAFPEAE@Z 00000001800624e4     dolphin.obj
 0002:000104ec       $unwind$?stbi__jpeg_finish@@YAXPEAUstbi__jpeg@@@Z 00000001800624ec     dolphin.obj
 0002:000104f4       $unwind$?stbi__process_marker@@YAHPEAUstbi__jpeg@@H@Z 00000001800624f4     dolphin.obj
 0002:00010504       $unwind$?stbi__process_scan_header@@YAHPEAUstbi__jpeg@@@Z 0000000180062504     dolphin.obj
 0002:0001050c       $unwind$?stbi__process_frame_header@@YAHPEAUstbi__jpeg@@H@Z 000000018006250c     dolphin.obj
 0002:00010514       $unwind$?stbi__decode_jpeg_header@@YAHPEAUstbi__jpeg@@H@Z 0000000180062514     dolphin.obj
 0002:0001051c       $unwind$?stbi__decode_jpeg_image@@YAHPEAUstbi__jpeg@@@Z 000000018006251c     dolphin.obj
 0002:00010524       $unwind$?stbi__resample_row_v_2@@YAPEAEPEAE00HH@Z 0000000180062524     dolphin.obj
 0002:0001052c       $unwind$?stbi__resample_row_h_2@@YAPEAEPEAE00HH@Z 000000018006252c     dolphin.obj
 0002:00010534       $unwind$?stbi__resample_row_hv_2@@YAPEAEPEAE00HH@Z 0000000180062534     dolphin.obj
 0002:0001053c       $unwind$?stbi__resample_row_hv_2_simd@@YAPEAEPEAE00HH@Z 000000018006253c     dolphin.obj
 0002:00010544       $unwind$?stbi__resample_row_generic@@YAPEAEPEAE00HH@Z 0000000180062544     dolphin.obj
 0002:0001054c       $unwind$?stbi__YCbCr_to_RGB_row@@YAXPEAEPEBE11HH@Z 000000018006254c     dolphin.obj
 0002:00010554       $unwind$?stbi__YCbCr_to_RGB_simd@@YAXPEAEPEBE11HH@Z 0000000180062554     dolphin.obj
 0002:0001055c       $unwind$?stbi__setup_jpeg@@YAXPEAUstbi__jpeg@@@Z 000000018006255c     dolphin.obj
 0002:00010564       $unwind$?stbi__cleanup_jpeg@@YAXPEAUstbi__jpeg@@@Z 0000000180062564     dolphin.obj
 0002:0001056c       $unwind$?load_jpeg_image@@YAPEAEPEAUstbi__jpeg@@PEAH11H@Z 000000018006256c     dolphin.obj
 0002:0001057c       $unwind$?stbi__bit_reverse@@YAHHH@Z 000000018006257c     dolphin.obj
 0002:00010584       $unwind$?stbi__zbuild_huffman@@YAHPEAUstbi__zhuffman@@PEAEH@Z 0000000180062584     dolphin.obj
 0002:00010598       $unwind$?stbi__zget8@@YAEPEAUstbi__zbuf@@@Z 0000000180062598     dolphin.obj
 0002:000105a0       $unwind$?stbi__fill_bits@@YAXPEAUstbi__zbuf@@@Z 00000001800625a0     dolphin.obj
 0002:000105a8       $unwind$?stbi__zreceive@@YAIPEAUstbi__zbuf@@H@Z 00000001800625a8     dolphin.obj
 0002:000105b0       $unwind$?stbi__zhuffman_decode_slowpath@@YAHPEAUstbi__zbuf@@PEAUstbi__zhuffman@@@Z 00000001800625b0     dolphin.obj
 0002:000105b8       $unwind$?stbi__zhuffman_decode@@YAHPEAUstbi__zbuf@@PEAUstbi__zhuffman@@@Z 00000001800625b8     dolphin.obj
 0002:000105c0       $unwind$?stbi__zexpand@@YAHPEAUstbi__zbuf@@PEADH@Z 00000001800625c0     dolphin.obj
 0002:000105c8       $unwind$?stbi__parse_huffman_block@@YAHPEAUstbi__zbuf@@@Z 00000001800625c8     dolphin.obj
 0002:000105d0       $unwind$?stbi__compute_huffman_codes@@YAHPEAUstbi__zbuf@@@Z 00000001800625d0     dolphin.obj
 0002:000105e4       $unwind$?stbi__parse_uncompressed_block@@YAHPEAUstbi__zbuf@@@Z 00000001800625e4     dolphin.obj
 0002:000105f0       $unwind$?stbi__parse_zlib_header@@YAHPEAUstbi__zbuf@@@Z 00000001800625f0     dolphin.obj
 0002:000105f8       $unwind$?stbi__init_zdefaults@@YAXXZ 00000001800625f8     dolphin.obj
 0002:00010600       $unwind$?stbi__parse_zlib@@YAHPEAUstbi__zbuf@@H@Z 0000000180062600     dolphin.obj
 0002:00010608       $unwind$?stbi__do_zlib@@YAHPEAUstbi__zbuf@@PEADHHH@Z 0000000180062608     dolphin.obj
 0002:00010610       $unwind$?stbi__get_chunk_header@@YA?AUstbi__pngchunk@@PEAUstbi__context@@@Z 0000000180062610     dolphin.obj
 0002:00010618       $unwind$?stbi__check_png_header@@YAHPEAUstbi__context@@@Z 0000000180062618     dolphin.obj
 0002:00010620       $unwind$?stbi__paeth@@YAHHHH@Z 0000000180062620     dolphin.obj
 0002:00010628       $unwind$?stbi__create_png_image_raw@@YAHPEAUstbi__png@@PEAEIHIIHH@Z 0000000180062628     dolphin.obj
 0002:00010634       $unwind$?stbi__create_png_image@@YAHPEAUstbi__png@@PEAEIHHHH@Z 0000000180062634     dolphin.obj
 0002:00010648       $unwind$?stbi__compute_transparency@@YAHPEAUstbi__png@@QEAEH@Z 0000000180062648     dolphin.obj
 0002:00010650       $unwind$?stbi__compute_transparency16@@YAHPEAUstbi__png@@QEAGH@Z 0000000180062650     dolphin.obj
 0002:00010658       $unwind$?stbi__expand_png_palette@@YAHPEAUstbi__png@@PEAEHH@Z 0000000180062658     dolphin.obj
 0002:00010660       $unwind$?stbi__reduce_png@@YAHPEAUstbi__png@@@Z 0000000180062660     dolphin.obj
 0002:00010668       $unwind$?stbi__de_iphone@@YAXPEAUstbi__png@@@Z 0000000180062668     dolphin.obj
 0002:00010670       $unwind$?stbi__parse_png_file@@YAHPEAUstbi__png@@HH@Z 0000000180062670     dolphin.obj
 0002:00010680       $unwind$?stbi__do_png@@YAPEAEPEAUstbi__png@@PEAH11H@Z 0000000180062680     dolphin.obj
 0002:00010688       $unwind$?stbi__bmp_test_raw@@YAHPEAUstbi__context@@@Z 0000000180062688     dolphin.obj
 0002:00010690       $unwind$?stbi__high_bit@@YAHI@Z 0000000180062690     dolphin.obj
 0002:00010698       $unwind$?stbi__shiftsigned@@YAHHHH@Z 0000000180062698     dolphin.obj
 0002:000106a0       $unwind$?stbi__bmp_parse_header@@YAPEAXPEAUstbi__context@@PEAUstbi__bmp_data@@@Z 00000001800626a0     dolphin.obj
 0002:000106a8       $unwind$?stbi__tga_get_comp@@YAHHHPEAH@Z 00000001800626a8     dolphin.obj
 0002:000106b0       $unwind$?stbi__tga_read_rgb16@@YAXPEAUstbi__context@@PEAE@Z 00000001800626b0     dolphin.obj
 0002:000106b8       $unwind$?stbi__pic_is4@@YAHPEAUstbi__context@@PEBD@Z 00000001800626b8     dolphin.obj
 0002:000106c0       $unwind$?stbi__pic_test_core@@YAHPEAUstbi__context@@@Z 00000001800626c0     dolphin.obj
 0002:000106c8       $unwind$?stbi__readval@@YAPEAEPEAUstbi__context@@HPEAE@Z 00000001800626c8     dolphin.obj
 0002:000106d0       $unwind$?stbi__copyval@@YAXHPEAEPEBE@Z 00000001800626d0     dolphin.obj
 0002:000106d8       $unwind$?stbi__pic_load_core@@YAPEAEPEAUstbi__context@@HHPEAHPEAE@Z 00000001800626d8     dolphin.obj
 0002:000106e8       $unwind$?stbi__gif_test_raw@@YAHPEAUstbi__context@@@Z 00000001800626e8     dolphin.obj
 0002:000106f0       $unwind$?stbi__gif_parse_colortable@@YAXPEAUstbi__context@@QEAY03EHH@Z 00000001800626f0     dolphin.obj
 0002:000106f8       $unwind$?stbi__gif_header@@YAHPEAUstbi__context@@PEAUstbi__gif@@PEAHH@Z 00000001800626f8     dolphin.obj
 0002:00010700       $unwind$?stbi__out_gif_code@@YAXPEAUstbi__gif@@G@Z 0000000180062700     dolphin.obj
 0002:00010708       $unwind$?stbi__process_gif_raster@@YAPEAEPEAUstbi__context@@PEAUstbi__gif@@@Z 0000000180062708     dolphin.obj
 0002:00010710       $unwind$?stbi__fill_gif_background@@YAXPEAUstbi__gif@@HHHH@Z 0000000180062710     dolphin.obj
 0002:00010718       $unwind$?stbi__gif_load_next@@YAPEAEPEAUstbi__context@@PEAUstbi__gif@@PEAHH@Z 0000000180062718     dolphin.obj
 0002:00010724       $unwind$?stbi__hdr_test_core@@YAHPEAUstbi__context@@@Z 0000000180062724     dolphin.obj
 0002:0001072c       $unwind$?stbi__hdr_gettoken@@YAPEADPEAUstbi__context@@PEAD@Z 000000018006272c     dolphin.obj
 0002:00010734       $unwind$?stbi__hdr_convert@@YAXPEAMPEAEH@Z 0000000180062734     dolphin.obj
 0002:0001073c       $unwind$?stbi__pnm_isspace@@YAHD@Z 000000018006273c     dolphin.obj
 0002:00010744       $unwind$?stbi__pnm_skip_whitespace@@YAXPEAUstbi__context@@PEAD@Z 0000000180062744     dolphin.obj
 0002:0001074c       $unwind$?stbi__pnm_isdigit@@YAHD@Z 000000018006274c     dolphin.obj
 0002:00010754       $unwind$?stbi__pnm_getinteger@@YAHPEAUstbi__context@@PEAD@Z 0000000180062754     dolphin.obj
 0002:0001075c       $unwind$?LoadBMP@@YA?AUloaded_bitmap@@PEADTgdVec2@@H@Z 000000018006275c     dolphin.obj
 0002:00010770       $unwind$?LoadBitmapWork@@YAXPEAUplatform_work_queue@@PEAX@Z 0000000180062770     dolphin.obj
 0002:00010784       $unwind$?LoadSoundWork@@YAXPEAUplatform_work_queue@@PEAX@Z 0000000180062784     dolphin.obj
 0002:00010790       $unwind$?GetBestMatchAssetFrom@@YAIPEAUgame_assets@@W4asset_type_id@@PEAUasset_vector@@2@Z 0000000180062790     dolphin.obj
 0002:00010798       $unwind$?GetFirstSlotFrom@@YAIPEAUgame_assets@@W4asset_type_id@@@Z 0000000180062798     dolphin.obj
 0002:000107a0       $unwind$?DEBUGAddBitmapInfo@@YA?AUbitmap_id@@PEAUgame_assets@@PEADTgdVec2@@@Z 00000001800627a0     dolphin.obj
 0002:000107a8       $unwind$?DEBUGAddSoundInfo@@YA?AUsound_id@@PEAUgame_assets@@PEADII@Z 00000001800627a8     dolphin.obj
 0002:000107b0       $unwind$?AddBitmapAsset@@YAXPEAUgame_assets@@PEADTgdVec2@@@Z 00000001800627b0     dolphin.obj
 0002:000107b8       $unwind$?AddSoundAsset@@YAPEAUasset@@PEAUgame_assets@@PEADII@Z 00000001800627b8     dolphin.obj
 0002:000107c0       $unwind$?AddTag@@YAXPEAUgame_assets@@W4asset_tag_id@@M@Z 00000001800627c0     dolphin.obj
 0002:000107c8       $unwind$?AllocateGameAssets@@YAPEAUgame_assets@@PEAUmemory_arena@@_KPEAUtransient_state@@@Z 00000001800627c8     dolphin.obj
 0002:000107d8       $unwind$?PlaySound@@YAPEAUplaying_sound@@PEAUaudio_state@@Usound_id@@@Z 00000001800627d8     dolphin.obj
 0002:000107e8       $unwind$?OutputPlayingSounds@@YAXPEAUaudio_state@@PEAUgame_sound_output_buffer@@PEAUgame_assets@@PEAUmemory_arena@@@Z 00000001800627e8     dolphin.obj
 0002:000107fc       $unwind$?InitializeAudioState@@YAXPEAUaudio_state@@PEAUmemory_arena@@@Z 00000001800627fc     dolphin.obj
 0002:0001080c       $unwind$?MakeEmptyBitmap@@YA?AUloaded_bitmap@@PEAUmemory_arena@@HH@Z 000000018006280c     dolphin.obj
 0002:00010820       $unwind$GameUpdateAndRender 0000000180062820     dolphin.obj
 0002:00010834       $unwind$GameGetSoundSamples 0000000180062834     dolphin.obj
 0002:0001083c       $unwind$??H@YA?ATgdVec2@@T0@0@Z 000000018006283c     dolphin.obj
 0002:0001083c       $unwind$??Y@YAAEAUvolume_v2@@AEAU0@U0@@Z 000000018006283c     dolphin.obj
 0002:0001084c       $unwind$??D@YA?ATgdVec2@@MT0@@Z 000000018006284c     dolphin.obj
 0002:0001084c       $unwind$??D@YA?ATgdVec2@@T0@M@Z 000000018006284c     dolphin.obj
 0002:0001085c       $unwind$??G@YA?ATgdVec3@@T0@0@Z 000000018006285c     dolphin.obj
 0002:0001085c       $unwind$??H@YA?ATgdVec3@@T0@0@Z 000000018006285c     dolphin.obj
 0002:00010870       $unwind$??D@YA?ATgdVec3@@T0@M@Z 0000000180062870     dolphin.obj
 0002:00010884       $unwind$??X@YAAEATgdVec3@@AEAT0@M@Z 0000000180062884     dolphin.obj
 0002:00010898       $unwind$?SafeRatioN@@YAMMMM@Z 0000000180062898     dolphin.obj
 0002:000108a0       $unwind$?SafeRatio0@@YAMMM@Z 00000001800628a0     dolphin.obj
 0002:000108a0       $unwind$_copysign          00000001800628a0     dolphin.obj
 0002:000108a8       $unwind$?SRGB255ToLinear1@@YA?ATgdVec4@@T1@@Z 00000001800628a8     dolphin.obj
 0002:000108bc       $unwind$?Linear1ToSRGB255@@YA?ATgdVec4@@T1@@Z 00000001800628bc     dolphin.obj
 0002:000108d0       $unwind$?CPtoLocaleName@@YAPEB_WH@Z 00000001800628d0     dolphin.obj
 0002:000108d0       $unwind$_CrtSetCheckCount  00000001800628d0     dolphin.obj
 0002:000108d0       $unwind$_errcode           00000001800628d0     dolphin.obj
 0002:000108d0       $unwind$_get_fname         00000001800628d0     dolphin.obj
 0002:000108d0       $unwind$_GET_RTERRMSG      00000001800628d0     dolphin.obj
 0002:000108d0       $unwind$_get_errno_from_oserr 00000001800628d0     dolphin.obj
 0002:000108d0       $unwind$?IsValid@@YAHUsound_id@@@Z 00000001800628d0     dolphin.obj
 0002:000108d8       $unwind$?volume_v2_init@@YA?AUvolume_v2@@MM@Z 00000001800628d8     dolphin.obj
 0002:000108e8       $unwind$?volume_v2_add@@YA?AUvolume_v2@@U1@0@Z 00000001800628e8     dolphin.obj
 0002:000108f8       $unwind$??D@YA?AUvolume_v2@@MU0@@Z 00000001800628f8     dolphin.obj
 0002:00010908       $unwind$?RenderRectangleQuickly@@YAXPEAUloaded_bitmap@@TgdVec2@@110TgdVec4@@UgdRect2i@@@Z 0000000180062908     dolphin.obj
 0002:00010918       $unwind$?PushRectangle@@YAXPEAUrender_group@@TgdVec3@@TgdVec2@@TgdVec4@@@Z 0000000180062918     dolphin.obj
 0002:0001092c       $unwind$?GetBitmapDim@@YA?AUbitmap_dimension@@PEAUrender_group@@PEAUloaded_bitmap@@MTgdVec3@@M@Z 000000018006292c     dolphin.obj
 0002:00010940       $unwind$?PushBitmap@@YAXPEAUrender_group@@PEAUloaded_bitmap@@MTgdVec3@@TgdVec4@@M@Z 0000000180062940     dolphin.obj
 0002:00010954       $unwind$?PushBitmap@@YAXPEAUrender_group@@Ubitmap_id@@MTgdVec3@@TgdVec4@@M@Z 0000000180062954     dolphin.obj
 0002:00010960       $unwind$?PushRectangleOutline@@YAXPEAUrender_group@@TgdVec3@@TgdVec2@@TgdVec4@@M@Z 0000000180062960     dolphin.obj
 0002:00010974       $unwind$?PushClear@@YAXPEAUrender_group@@TgdVec4@@@Z 0000000180062974     dolphin.obj
 0002:00010980       $unwind$?ParseChunkAt@@YA?AUriff_iterator@@PEAX0@Z 0000000180062980     dolphin.obj
 0002:0001098c       $unwind$?NextChunk@@YA?AUriff_iterator@@U1@@Z 000000018006298c     dolphin.obj
 0002:0001098c       $unwind$?BeginTemporaryMemory@@YA?AUtemporary_memory@@PEAUmemory_arena@@@Z 000000018006298c     dolphin.obj
 0002:00010998       $unwind$_positive          0000000180062998     dolphin.obj
 0002:00010998       $unwind$?GetChunkDataSize@@YAIUriff_iterator@@@Z 0000000180062998     dolphin.obj
 0002:00010998       $unwind$?what@exception@std@@UEBAPEBDXZ 0000000180062998     dolphin.obj
 0002:00010998       $unwind$__addlocaleref     0000000180062998     dolphin.obj
 0002:00010998       $unwind$get_int64_arg      0000000180062998     dolphin.obj
 0002:00010998       $unwind$wcslen             0000000180062998     dolphin.obj
 0002:00010998       $unwind$_FillZeroMan       0000000180062998     dolphin.obj
 0002:00010998       $unwind$?IsValid@@YAHUriff_iterator@@@Z 0000000180062998     dolphin.obj
 0002:00010998       $unwind$get_short_arg      0000000180062998     dolphin.obj
 0002:00010998       $unwind$?GetType@@YAIUriff_iterator@@@Z 0000000180062998     dolphin.obj
 0002:00010998       $unwind$?_ValidateExecute@@YAHP6A_JXZ@Z 0000000180062998     dolphin.obj
 0002:00010998       $unwind$_CrtSetDumpClient  0000000180062998     dolphin.obj
 0002:00010998       $unwind$__shl_12           0000000180062998     dolphin.obj
 0002:00010998       $unwind$__shr_12           0000000180062998     dolphin.obj
 0002:00010998       $unwind$_MallocaIsSizeInRange 0000000180062998     dolphin.obj
 0002:00010998       $unwind$?GetChunkData@@YAPEAXUriff_iterator@@@Z 0000000180062998     dolphin.obj
 0002:00010998       $unwind$_IsZeroMan         0000000180062998     dolphin.obj
 0002:00010998       $unwind$?EndTemporaryMemory@@YAXUtemporary_memory@@@Z 0000000180062998     dolphin.obj
 0002:00010998       $unwind$__removelocaleref  0000000180062998     dolphin.obj
 0002:00010998       $unwind$?setSBCS@@YAXPEAUthreadmbcinfostruct@@@Z 0000000180062998     dolphin.obj
 0002:00010998       $unwind$get_int_arg        0000000180062998     dolphin.obj
 0002:000109a0       $unwind$_exception_enabled 00000001800629a0     dolphin.obj
 0002:000109a0       $unwind$?GetFirstBitmapFrom@@YA?AUbitmap_id@@PEAUgame_assets@@W4asset_type_id@@@Z 00000001800629a0     dolphin.obj
 0002:000109a0       $unwind$__crtFlsSetValue   00000001800629a0     dolphin.obj
 0002:000109a0       $unwind$?_CatchTryBlock@@YAPEBU_s_TryBlockMapEntry@@PEBU_s_FuncInfo@@H@Z 00000001800629a0     dolphin.obj
 0002:000109a0       $unwind$?GetFirstSoundFrom@@YA?AUsound_id@@PEAUgame_assets@@W4asset_type_id@@@Z 00000001800629a0     dolphin.obj
 0002:000109a8       $unwind$malloc             00000001800629a8     LIBCMTD:feoferr.obj
 0002:000109a8       $unwind$_putwch_nolock     00000001800629a8     LIBCMTD:feoferr.obj
 0002:000109a8       $unwind$_freea             00000001800629a8     LIBCMTD:feoferr.obj
 0002:000109a8       $unwind$__freetlocinfo     00000001800629a8     LIBCMTD:feoferr.obj
 0002:000109a8       $unwind$_getbuf            00000001800629a8     LIBCMTD:feoferr.obj
 0002:000109a8       $unwind$GetTableIndexFromLocaleName 00000001800629a8     LIBCMTD:feoferr.obj
 0002:000109a8       $unwind$__FrameUnwindFilter 00000001800629a8     LIBCMTD:feoferr.obj
 0002:000109a8       $unwind$?Is_bad_exception_allowed@@YAEPEBU_s_ESTypeList@@@Z 00000001800629a8     LIBCMTD:feoferr.obj
 0002:000109a8       $unwind$feof               00000001800629a8     LIBCMTD:feoferr.obj
 0002:000109a8       $unwind$_fileno            00000001800629a8     LIBCMTD:feoferr.obj
 0002:000109b0       $unwind$fread_s            00000001800629b0     LIBCMTD:fread.obj
 0002:000109d0       $unwind$fseek              00000001800629d0     LIBCMTD:fseek.obj
 0002:000109f0       $unwind$write_char         00000001800629f0     LIBCMTD:fseek.obj
 0002:000109f0       $unwind$_fseek_nolock      00000001800629f0     LIBCMTD:fseek.obj
 0002:000109f0       $unwind$__crtInitializeCriticalSectionEx 00000001800629f0     LIBCMTD:fseek.obj
 0002:000109f8       $unwind$ldexp              00000001800629f8     LIBCMTD:ldexp.obj
 0002:000109f8       $unwind$_cropzeros_l       00000001800629f8     LIBCMTD:ldexp.obj
 0002:00010a00       $unwind$?RoundReal32ToUInt32@@YAIM@Z 0000000180062a00     LIBCMTD:roundf.obj
 0002:00010a00       $unwind$?RoundReal32ToInt32@@YAHM@Z 0000000180062a00     LIBCMTD:roundf.obj
 0002:00010a00       $unwind$roundf             0000000180062a00     LIBCMTD:roundf.obj
 0002:00010a00       $unwind$?FloorReal32ToInt32@@YAHM@Z 0000000180062a00     LIBCMTD:roundf.obj
 0002:00010a08       $unwind$??0_LocaleUpdate@@QEAA@PEAUlocaleinfo_struct@@@Z 0000000180062a08     LIBCMTD:strtol.obj
 0002:00010a14       $unwind$?strtoxl@@YAKPEAUlocaleinfo_struct@@PEBDPEAPEBDHH@Z 0000000180062a14     LIBCMTD:strtol.obj
 0002:00010a24       $stateUnwindMap$?strtoxl@@YAKPEAUlocaleinfo_struct@@PEBDPEAPEBDHH@Z 0000000180062a24     LIBCMTD:strtol.obj
 0002:00010a2c       $ip2state$?strtoxl@@YAKPEAUlocaleinfo_struct@@PEBDPEAPEBDHH@Z 0000000180062a2c     LIBCMTD:strtol.obj
 0002:00010a78       $xdatasym                  0000000180062a78     LIBCMTD:strncmp.obj
 0002:00010a7c       $unwind$?GetBestMatchBitmapFrom@@YA?AUbitmap_id@@PEAUgame_assets@@W4asset_type_id@@PEAUasset_vector@@2@Z 0000000180062a7c     LIBCMTD:wassert.obj
 0002:00010a7c       $unwind$write_string       0000000180062a7c     LIBCMTD:wassert.obj
 0002:00010a7c       $unwind$write_string       0000000180062a7c     LIBCMTD:wassert.obj
 0002:00010a7c       $unwind$write_multi_char   0000000180062a7c     LIBCMTD:wassert.obj
 0002:00010a7c       $unwind$write_string       0000000180062a7c     LIBCMTD:wassert.obj
 0002:00010a7c       $unwind$write_multi_char   0000000180062a7c     LIBCMTD:wassert.obj
 0002:00010a7c       $unwind$_fassign_l         0000000180062a7c     LIBCMTD:wassert.obj
 0002:00010a7c       $unwind$_invoke_watson_if_error 0000000180062a7c     LIBCMTD:wassert.obj
 0002:00010a84       $unwind$_wassert           0000000180062a84     LIBCMTD:wassert.obj
 0002:00010a94       $unwind$__GSHandlerCheckCommon 0000000180062a94     LIBCMTD:gshandler.obj
 0002:00010a94       $unwind$__TypeMatch        0000000180062a94     LIBCMTD:gshandler.obj
 0002:00010a9c       $unwind$__GSHandlerCheck   0000000180062a9c     LIBCMTD:gshandler.obj
 0002:00010a9c       $unwind$_invoke_watson     0000000180062a9c     LIBCMTD:gshandler.obj
 0002:00010a9c       $unwind$?SubArena@@YAXPEAUmemory_arena@@0_K1@Z 0000000180062a9c     LIBCMTD:gshandler.obj
 0002:00010aa8       $xdatasym                  0000000180062aa8     LIBCMTD:chkstk.obj
 0002:00010ab0       $xdatasym                  0000000180062ab0     LIBCMTD:amdsecgs.obj
 0002:00010ab8       $xdatasym                  0000000180062ab8     LIBCMTD:cosf.obj
 0002:00010ac0       $unwind$floorf             0000000180062ac0     LIBCMTD:floorf.obj
 0002:00010ac8       $xdatasym                  0000000180062ac8     LIBCMTD:powf.obj
 0002:00010ad8       $xdatasym                  0000000180062ad8     LIBCMTD:sinf.obj
 0002:00010ae0       $unwind$sqrtf              0000000180062ae0     LIBCMTD:sqrtf.obj
 0002:00010ae8       $unwind$_CRT_INIT          0000000180062ae8     LIBCMTD:dllcrt0.obj
 0002:00010b08       $unwind$__DllXcptFilter    0000000180062b08     LIBCMTD:dllcrt0.obj
 0002:00010b10       $unwind$__DllMainCRTStartup 0000000180062b10     LIBCMTD:dllcrt0.obj
 0002:00010b30       $unwind$_call_reportfault  0000000180062b30     LIBCMTD:invarg.obj
 0002:00010b44       $unwind$write_multi_char   0000000180062b44     LIBCMTD:dbgrptw.obj
 0002:00010b44       $unwind$_invoke_watson_if_oneof 0000000180062b44     LIBCMTD:dbgrptw.obj
 0002:00010b4c       $unwind$__crtMessageWindowW 0000000180062b4c     LIBCMTD:dbgrptw.obj
 0002:00010b5c       $unwind$_onexit_nolock     0000000180062b5c     LIBCMTD:_filbuf.obj
 0002:00010b5c       $unwind$_filbuf            0000000180062b5c     LIBCMTD:_filbuf.obj
 0002:00010b68       $xdatasym                  0000000180062b68     LIBCMTD:memset.obj
 0002:00010b6c       $unwind$_read              0000000180062b6c     LIBCMTD:read.obj
 0002:00010b8c       $unwind$_read_nolock       0000000180062b8c     LIBCMTD:read.obj
 0002:00010b94       $unwind$_cftof2_l          0000000180062b94     LIBCMTD:chandler.obj
 0002:00010b94       $unwind$wcsncat_s          0000000180062b94     LIBCMTD:chandler.obj
 0002:00010b94       $unwind$__C_specific_handler 0000000180062b94     LIBCMTD:chandler.obj
 0002:00010b9c       $unwind$_ftell_nolock      0000000180062b9c     LIBCMTD:ftell.obj
 0002:00010bac       $unwind$_lseek             0000000180062bac     LIBCMTD:lseek.obj
 0002:00010bcc       $unwind$_lseek_nolock      0000000180062bcc     LIBCMTD:lseek.obj
 0002:00010bd4       $unwind$fflush             0000000180062bd4     LIBCMTD:fflush.obj
 0002:00010bf4       $unwind$flsall             0000000180062bf4     LIBCMTD:fflush.obj
 0002:00010c24       $unwind$_decomp            0000000180062c24     LIBCMTD:util.obj
 0002:00010c2c       $unwind$_except2           0000000180062c2c     LIBCMTD:fpexcept.obj
 0002:00010c3c       $unwind$_handle_qnan2      0000000180062c3c     LIBCMTD:fpexcept.obj
 0002:00010c44       $unwind$_dosmaperr         0000000180062c44     LIBCMTD:fpexcept.obj
 0002:00010c44       $unwind$__crtFlsFree       0000000180062c44     LIBCMTD:fpexcept.obj
 0002:00010c44       $unwind$_close_nolock      0000000180062c44     LIBCMTD:fpexcept.obj
 0002:00010c44       $unwind$__crtFlsGetValue   0000000180062c44     LIBCMTD:fpexcept.obj
 0002:00010c44       $unwind$_set_errno_from_matherr 0000000180062c44     LIBCMTD:fpexcept.obj
 0002:00010c44       $unwind$tolower            0000000180062c44     LIBCMTD:fpexcept.obj
 0002:00010c44       $unwind$_cinit             0000000180062c44     LIBCMTD:fpexcept.obj
 0002:00010c44       $unwind$__crtCorExitProcess 0000000180062c44     LIBCMTD:fpexcept.obj
 0002:00010c44       $unwind$_free_osfhnd       0000000180062c44     LIBCMTD:fpexcept.obj
 0002:00010c4c       $unwind$_handle_exc        0000000180062c4c     LIBCMTD:fpexcept.obj
 0002:00010c54       $unwind$__GSHandlerCheck_SEH 0000000180062c54     LIBCMTD:fpexcept.obj
 0002:00010c54       $unwind$_snwprintf_s       0000000180062c54     LIBCMTD:fpexcept.obj
 0002:00010c54       $unwind$_invalid_parameter 0000000180062c54     LIBCMTD:fpexcept.obj
 0002:00010c54       $unwind$_snprintf_s        0000000180062c54     LIBCMTD:fpexcept.obj
 0002:00010c54       $unwind$?_GetRangeOfTrysToCheck@@YAPEBU_s_TryBlockMapEntry@@PEA_KPEBU_s_FuncInfo@@HHPEAI2PEAU_xDISPATCHER_CONTEXT@@@Z 0000000180062c54     LIBCMTD:fpexcept.obj
 0002:00010c54       $unwind$_calloc_dbg        0000000180062c54     LIBCMTD:fpexcept.obj
 0002:00010c54       $unwind$sprintf_s          0000000180062c54     LIBCMTD:fpexcept.obj
 0002:00010c54       $unwind$_cfltcvt           0000000180062c54     LIBCMTD:fpexcept.obj
 0002:00010c54       $unwind$_vswprintf_c_l     0000000180062c54     LIBCMTD:fpexcept.obj
 0002:00010c54       $unwind$_raise_excf        0000000180062c54     LIBCMTD:fpexcept.obj
 0002:00010c54       $unwind$swprintf           0000000180062c54     LIBCMTD:fpexcept.obj
 0002:00010c54       $unwind$_calloc_dbg_impl   0000000180062c54     LIBCMTD:fpexcept.obj
 0002:00010c54       $unwind$_cfltcvt_l         0000000180062c54     LIBCMTD:fpexcept.obj
 0002:00010c54       $unwind$_raise_exc         0000000180062c54     LIBCMTD:fpexcept.obj
 0002:00010c5c       $unwind$_ctrlfp            0000000180062c5c     LIBCMTD:fpctrl.obj
 0002:00010c7c       $unwind$_realloc_dbg       0000000180062c7c     LIBCMTD:dbgheap.obj
 0002:00010c9c       $unwind$_free_dbg          0000000180062c9c     LIBCMTD:dbgheap.obj
 0002:00010cbc       $unwind$_msize_dbg         0000000180062cbc     LIBCMTD:dbgheap.obj
 0002:00010cdc       $unwind$_CrtCheckMemory    0000000180062cdc     LIBCMTD:dbgheap.obj
 0002:00010cfc       $unwind$_CrtCheckMemory$fin$0 0000000180062cfc     LIBCMTD:dbgheap.obj
 0002:00010d04       $unwind$_CrtSetDbgFlag     0000000180062d04     LIBCMTD:dbgheap.obj
 0002:00010d24       $unwind$_CrtMemCheckpoint  0000000180062d24     LIBCMTD:dbgheap.obj
 0002:00010d44       $unwind$_VCrtDbgReportW$fin$0 0000000180062d44     LIBCMTD:dbgheap.obj
 0002:00010d44       $unwind$_VCrtDbgReportA$fin$0 0000000180062d44     LIBCMTD:dbgheap.obj
 0002:00010d44       $unwind$_VCrtDbgReportA$fin$1 0000000180062d44     LIBCMTD:dbgheap.obj
 0002:00010d44       $unwind$_heap_alloc_dbg_impl$fin$0 0000000180062d44     LIBCMTD:dbgheap.obj
 0002:00010d44       $unwind$?fin$0@?0??_CrtMemDumpAllObjectsSince_stat@@YAXPEBU_CrtMemState@@PEAUlocaleinfo_struct@@@Z@4HA 0000000180062d44     LIBCMTD:dbgheap.obj
 0002:00010d44       $unwind$_VCrtDbgReportW$fin$1 0000000180062d44     LIBCMTD:dbgheap.obj
 0002:00010d44       $unwind$_CallSETranslator$filt$0 0000000180062d44     LIBCMTD:dbgheap.obj
 0002:00010d44       $unwind$_CrtMemCheckpoint$fin$0 0000000180062d44     LIBCMTD:dbgheap.obj
 0002:00010d4c       $unwind$_CrtDumpMemoryLeaks 0000000180062d4c     LIBCMTD:dbgheap.obj
 0002:00010d5c       $unwind$_free_dbg_nolock   0000000180062d5c     LIBCMTD:dbgheap.obj
 0002:00010d64       $unwind$_heap_alloc_dbg_impl 0000000180062d64     LIBCMTD:dbgheap.obj
 0002:00010d84       $unwind$?PushRenderElement_@@YAPEAXPEAUrender_group@@IW4render_group_entry_type@@@Z 0000000180062d84     LIBCMTD:dbgheap.obj
 0002:00010d84       $unwind$CheckBytes         0000000180062d84     LIBCMTD:dbgheap.obj
 0002:00010d84       $unwind$_CrtIsValidPointer 0000000180062d84     LIBCMTD:dbgheap.obj
 0002:00010d84       $unwind$?AtomicCompareExchangeUInt32@@YAIPECIII@Z 0000000180062d84     LIBCMTD:dbgheap.obj
 0002:00010d8c       $unwind$_printMemBlockData 0000000180062d8c     LIBCMTD:dbgheap.obj
 0002:00010d9c       $unwind$?__crtIsBadReadPtr@@YAHPEBX_K@Z 0000000180062d9c     LIBCMTD:dbgheap.obj
 0002:00010dbc       $unwind$?_CrtMemDumpAllObjectsSince_stat@@YAXPEBU_CrtMemState@@PEAUlocaleinfo_struct@@@Z 0000000180062dbc     LIBCMTD:dbgheap.obj
 0002:00010ddc       $unwind$__updatetlocinfo   0000000180062ddc     LIBCMTD:localref.obj
 0002:00010dfc       $unwind$__updatetmbcinfo   0000000180062dfc     LIBCMTD:mbctype.obj
 0002:00010e1c       $unwind$_setmbcp           0000000180062e1c     LIBCMTD:mbctype.obj
 0002:00010e40       $unwind$_setmbcp_nolock    0000000180062e40     LIBCMTD:mbctype.obj
 0002:00010e50       $unwind$?getSystemCP@@YAHH@Z 0000000180062e50     LIBCMTD:mbctype.obj
 0002:00010e60       $stateUnwindMap$?getSystemCP@@YAHH@Z 0000000180062e60     LIBCMTD:mbctype.obj
 0002:00010e68       $ip2state$?getSystemCP@@YAHH@Z 0000000180062e68     LIBCMTD:mbctype.obj
 0002:00010eb0       $unwind$?setSBUpLow@@YAXPEAUthreadmbcinfostruct@@@Z 0000000180062eb0     LIBCMTD:mbctype.obj
 0002:00010ec0       $unwind$_isctype_l         0000000180062ec0     LIBCMTD:isctype.obj
 0002:00010ec8       $unwind$_chvalidator       0000000180062ec8     LIBCMTD:isctype.obj
 0002:00010ed0       $unwind$_chvalidator_l     0000000180062ed0     LIBCMTD:isctype.obj
 0002:00010ed8       $unwind$_freefls           0000000180062ed8     LIBCMTD:tidtable.obj
 0002:00010f08       $unwind$_initptd           0000000180062f08     LIBCMTD:tidtable.obj
 0002:00010f38       $unwind$?__FrameUnwindToEmptyState@@YAXPEA_KPEAU_xDISPATCHER_CONTEXT@@PEBU_s_FuncInfo@@@Z 0000000180062f38     LIBCMTD:trnsctrl.obj
 0002:00010f38       $unwind$?PushSize_@@YAPEAXPEAUmemory_arena@@_K1@Z 0000000180062f38     LIBCMTD:trnsctrl.obj
 0002:00010f40       $unwind$_UnwindNestedFrames 0000000180062f40     LIBCMTD:trnsctrl.obj
 0002:00010f54       $unwind$_CallSETranslator  0000000180062f54     LIBCMTD:trnsctrl.obj
 0002:00010f74       $unwind$_unlockexit        0000000180062f74     LIBCMTD:trnsctrl.obj
 0002:00010f74       $unwind$__termconout       0000000180062f74     LIBCMTD:trnsctrl.obj
 0002:00010f74       $unwind$__initmbctable     0000000180062f74     LIBCMTD:trnsctrl.obj
 0002:00010f74       $unwind$__endstdio         0000000180062f74     LIBCMTD:trnsctrl.obj
 0002:00010f74       $unwind$_heap_init         0000000180062f74     LIBCMTD:trnsctrl.obj
 0002:00010f74       $unwind$_lockexit          0000000180062f74     LIBCMTD:trnsctrl.obj
 0002:00010f74       $unwind$__get_sigabrt      0000000180062f74     LIBCMTD:trnsctrl.obj
 0002:00010f74       $unwind$_fptrap            0000000180062f74     LIBCMTD:trnsctrl.obj
 0002:00010f74       $unwind$_cexit             0000000180062f74     LIBCMTD:trnsctrl.obj
 0002:00010f74       $unwind$_FF_MSGBANNER      0000000180062f74     LIBCMTD:trnsctrl.obj
 0002:00010f74       $unwind$__report_rangecheckfailure 0000000180062f74     LIBCMTD:trnsctrl.obj
 0002:00010f74       $unwind$_GetImageBase      0000000180062f74     LIBCMTD:trnsctrl.obj
 0002:00010f74       $unwind$_mtterm            0000000180062f74     LIBCMTD:trnsctrl.obj
 0002:00010f74       $unwind$_GetThrowImageBase 0000000180062f74     LIBCMTD:trnsctrl.obj
 0002:00010f74       $unwind$_flushall          0000000180062f74     LIBCMTD:trnsctrl.obj
 0002:00010f7c       $unwind$_unlock_file       0000000180062f7c     LIBCMTD:trnsctrl.obj
 0002:00010f7c       $unwind$__free_lc_time     0000000180062f7c     LIBCMTD:trnsctrl.obj
 0002:00010f7c       $unwind$_freeptd           0000000180062f7c     LIBCMTD:trnsctrl.obj
 0002:00010f7c       $unwind$__free_lconv_num   0000000180062f7c     LIBCMTD:trnsctrl.obj
 0002:00010f7c       $unwind$__free_lconv_mon   0000000180062f7c     LIBCMTD:trnsctrl.obj
 0002:00010f7c       $unwind$_SetImageBase      0000000180062f7c     LIBCMTD:trnsctrl.obj
 0002:00010f7c       $unwind$??1exception@std@@UEAA@XZ 0000000180062f7c     LIBCMTD:trnsctrl.obj
 0002:00010f7c       $unwind$_cropzeros         0000000180062f7c     LIBCMTD:trnsctrl.obj
 0002:00010f7c       $unwind$?__RethrowException@@YAXPEAUEHExceptionRecord@@@Z 0000000180062f7c     LIBCMTD:trnsctrl.obj
 0002:00010f7c       $unwind$__raise_securityfailure 0000000180062f7c     LIBCMTD:trnsctrl.obj
 0002:00010f7c       $unwind$_ValidateImageBase 0000000180062f7c     LIBCMTD:trnsctrl.obj
 0002:00010f7c       $unwind$free               0000000180062f7c     LIBCMTD:trnsctrl.obj
 0002:00010f7c       $unwind$_lock_file         0000000180062f7c     LIBCMTD:trnsctrl.obj
 0002:00010f7c       $unwind$??1bad_exception@std@@UEAA@XZ 0000000180062f7c     LIBCMTD:trnsctrl.obj
 0002:00010f7c       $unwind$_initp_eh_hooks    0000000180062f7c     LIBCMTD:trnsctrl.obj
 0002:00010f7c       $unwind$??1type_info@@UEAA@XZ 0000000180062f7c     LIBCMTD:trnsctrl.obj
 0002:00010f7c       $unwind$_forcdecpt         0000000180062f7c     LIBCMTD:trnsctrl.obj
 0002:00010f7c       $unwind$__crtUnhandledException 0000000180062f7c     LIBCMTD:trnsctrl.obj
 0002:00010f7c       $unwind$_CrtIsValidHeapPointer 0000000180062f7c     LIBCMTD:trnsctrl.obj
 0002:00010f7c       $unwind$?_Tidy@exception@std@@AEAAXXZ 0000000180062f7c     LIBCMTD:trnsctrl.obj
 0002:00010f7c       $unwind$_SetThrowImageBase 0000000180062f7c     LIBCMTD:trnsctrl.obj
 0002:00010f84       $unwind$_locterm           0000000180062f84     LIBCMTD:wsetloca.obj
 0002:00010fa4       $unwind$_fflush_nolock     0000000180062fa4     LIBCMTD:gs_report.obj
 0002:00010fa4       $unwind$_malloc_base       0000000180062fa4     LIBCMTD:gs_report.obj
 0002:00010fa4       $unwind$_heap_alloc_base   0000000180062fa4     LIBCMTD:gs_report.obj
 0002:00010fa4       $unwind$__crtMessageBoxWaitThreadW 0000000180062fa4     LIBCMTD:gs_report.obj
 0002:00010fa4       $unwind$_freebuf           0000000180062fa4     LIBCMTD:gs_report.obj
 0002:00010fa4       $unwind$_flush             0000000180062fa4     LIBCMTD:gs_report.obj
 0002:00010fa4       $unwind$_FindAndUnlinkFrame 0000000180062fa4     LIBCMTD:gs_report.obj
 0002:00010fa4       $unwind$_IsExceptionObjectToBeDestroyed 0000000180062fa4     LIBCMTD:gs_report.obj
 0002:00010fa4       $unwind$_set_statfp        0000000180062fa4     LIBCMTD:gs_report.obj
 0002:00010fa4       $unwind$_free_base         0000000180062fa4     LIBCMTD:gs_report.obj
 0002:00010fa4       $unwind$__report_gsfailure 0000000180062fa4     LIBCMTD:gs_report.obj
 0002:00010fa4       $unwind$atexit             0000000180062fa4     LIBCMTD:gs_report.obj
 0002:00010fa4       $unwind$__crtDownlevelLocaleNameToLCID 0000000180062fa4     LIBCMTD:gs_report.obj
 0002:00010fa4       $unwind$_callnewh          0000000180062fa4     LIBCMTD:gs_report.obj
 0002:00010fa4       $unwind$__crtFlsAlloc      0000000180062fa4     LIBCMTD:gs_report.obj
 0002:00010fac       $unwind$wcscpy_s           0000000180062fac     LIBCMTD:wcscpy_s.obj
 0002:00010fac       $unwind$strcpy_s           0000000180062fac     LIBCMTD:wcscpy_s.obj
 0002:00010fb4       $unwind$__crtTerminateProcess 0000000180062fb4     LIBCMTD:crt0dat.obj
 0002:00010fb4       $unwind$__report_securityfailure 0000000180062fb4     LIBCMTD:crt0dat.obj
 0002:00010fb4       $unwind$__crtExitProcess   0000000180062fb4     LIBCMTD:crt0dat.obj
 0002:00010fb4       $unwind$_amsg_exit         0000000180062fb4     LIBCMTD:crt0dat.obj
 0002:00010fb4       $unwind$_unlock_fhandle    0000000180062fb4     LIBCMTD:crt0dat.obj
 0002:00010fb4       $unwind$_lock              0000000180062fb4     LIBCMTD:crt0dat.obj
 0002:00010fb4       $unwind$isdigit            0000000180062fb4     LIBCMTD:crt0dat.obj
 0002:00010fb4       $unwind$isleadbyte         0000000180062fb4     LIBCMTD:crt0dat.obj
 0002:00010fb4       $unwind$_fpmath            0000000180062fb4     LIBCMTD:crt0dat.obj
 0002:00010fb4       $unwind$_exit              0000000180062fb4     LIBCMTD:crt0dat.obj
 0002:00010fb4       $unwind$_unlock            0000000180062fb4     LIBCMTD:crt0dat.obj
 0002:00010fb4       $unwind$_ismbblead         0000000180062fb4     LIBCMTD:crt0dat.obj
 0002:00010fbc       $unwind$doexit             0000000180062fbc     LIBCMTD:crt0dat.obj
 0002:00010fdc       $unwind$_get_osfhandle     0000000180062fdc     LIBCMTD:errmode.obj
 0002:00010fdc       $unwind$_set_error_mode    0000000180062fdc     LIBCMTD:errmode.obj
 0002:00010fdc       $unwind$_isatty            0000000180062fdc     LIBCMTD:errmode.obj
 0002:00010fe4       $unwind$_nh_malloc_dbg     0000000180062fe4     LIBCMTD:xtows.obj
 0002:00010fe4       $unwind$_nh_malloc_dbg_impl 0000000180062fe4     LIBCMTD:xtows.obj
 0002:00010fe4       $unwind$_CrtDbgReportV     0000000180062fe4     LIBCMTD:xtows.obj
 0002:00010fe4       $unwind$_itow_s            0000000180062fe4     LIBCMTD:xtows.obj
 0002:00010fe4       $unwind$_malloc_dbg        0000000180062fe4     LIBCMTD:xtows.obj
 0002:00010fe4       $unwind$_itoa_s            0000000180062fe4     LIBCMTD:xtows.obj
 0002:00010fe4       $unwind$_CrtDbgReportWV    0000000180062fe4     LIBCMTD:xtows.obj
 0002:00010fec       $unwind$xtow_s             0000000180062fec     LIBCMTD:xtows.obj
 0002:00010fec       $unwind$xtoa_s             0000000180062fec     LIBCMTD:xtows.obj
 0002:00010ff4       $unwind$setvbuf            0000000180062ff4     LIBCMTD:setvbuf.obj
 0002:00011014       $unwind$fwprintf           0000000180063014     LIBCMTD:fwprintf.obj
 0002:00011034       $unwind$fwprintf$fin$0     0000000180063034     LIBCMTD:fwprintf.obj
 0002:00011034       $unwind$_CRT_INIT$fin$0    0000000180063034     LIBCMTD:fwprintf.obj
 0002:00011034       $unwind$__DllMainCRTStartup$filt$0 0000000180063034     LIBCMTD:fwprintf.obj
 0002:00011034       $unwind$_write$fin$0       0000000180063034     LIBCMTD:fwprintf.obj
 0002:00011034       $unwind$_lseeki64$fin$0    0000000180063034     LIBCMTD:fwprintf.obj
 0002:00011034       $unwind$_lseek$fin$0       0000000180063034     LIBCMTD:fwprintf.obj
 0002:00011034       $unwind$_msize_dbg$fin$0   0000000180063034     LIBCMTD:fwprintf.obj
 0002:00011034       $unwind$raise$fin$0        0000000180063034     LIBCMTD:fwprintf.obj
 0002:00011034       $unwind$fseek$fin$0        0000000180063034     LIBCMTD:fwprintf.obj
 0002:00011034       $unwind$_commit$fin$0      0000000180063034     LIBCMTD:fwprintf.obj
 0002:00011034       $unwind$_close$fin$0       0000000180063034     LIBCMTD:fwprintf.obj
 0002:00011034       $unwind$_realloc_dbg$fin$0 0000000180063034     LIBCMTD:fwprintf.obj
 0002:00011034       $unwind$_read$fin$0        0000000180063034     LIBCMTD:fwprintf.obj
 0002:00011034       $unwind$fclose$fin$0       0000000180063034     LIBCMTD:fwprintf.obj
 0002:00011034       $unwind$?fin$0@?0??_Type_info_dtor@type_info@@CAXPEAV1@@Z@4HA 0000000180063034     LIBCMTD:fwprintf.obj
 0002:00011034       $unwind$_CrtSetDbgFlag$fin$0 0000000180063034     LIBCMTD:fwprintf.obj
 0002:00011034       $unwind$fread_s$fin$0      0000000180063034     LIBCMTD:fwprintf.obj
 0002:00011034       $unwind$_ioinit$fin$0      0000000180063034     LIBCMTD:fwprintf.obj
 0002:00011034       $unwind$?fin$0@?0???3@YAXPEAX@Z@4HA 0000000180063034     LIBCMTD:fwprintf.obj
 0002:00011034       $unwind$setvbuf$fin$0      0000000180063034     LIBCMTD:fwprintf.obj
 0002:0001103c       $unwind$_vsnprintf_helper  000000018006303c     LIBCMTD:vswprnc.obj
 0002:0001103c       $unwind$_vswprintf_helper  000000018006303c     LIBCMTD:vswprnc.obj
 0002:00011048       $unwind$raise              0000000180063048     LIBCMTD:winsig.obj
 0002:00011068       $unwind$__crtMessageBoxW   0000000180063068     LIBCMTD:crtmboxw.obj
 0002:0001107c       $unwind$_NMSG_WRITE        000000018006307c     LIBCMTD:crt0msg.obj
 0002:00011090       $xdatasym                  0000000180063090     LIBCMTD:remainder_piby2f_forAsm.obj
 0002:00011098       $xdatasym                  0000000180063098     LIBCMTD:remainder_piby2_forFMA3.obj
 0002:000110a4       $unwind$_sincosf_special   00000001800630a4     LIBCMTD:sincos_special.obj
 0002:000110b4       $unwind$_sinf_special      00000001800630b4     LIBCMTD:sincos_special.obj
 0002:000110b4       $unwind$_cosf_special      00000001800630b4     LIBCMTD:sincos_special.obj
 0002:000110bc       $unwind$__fma3_lib_init    00000001800630bc     LIBCMTD:fma3_available.obj
 0002:000110cc       $unwind$_CrtDbgReport      00000001800630cc     LIBCMTD:libm_error.obj
 0002:000110cc       $unwind$_CrtDbgReportW     00000001800630cc     LIBCMTD:libm_error.obj
 0002:000110cc       $unwind$_call_matherr      00000001800630cc     LIBCMTD:libm_error.obj
 0002:000110d4       $unwind$_handle_errorf     00000001800630d4     LIBCMTD:libm_error.obj
 0002:000110e4       $unwind$_powf_special      00000001800630e4     LIBCMTD:pow_special.obj
 0002:000110f8       $xdatasym                  00000001800630f8     LIBCMTD:remainder_piby2f_forC.obj
 0002:00011108       $unwind$_fassign           0000000180063108     LIBCMTD:cvt.obj
 0002:00011108       $unwind$_DllMainCRTStartup 0000000180063108     LIBCMTD:cvt.obj
 0002:00011110       $unwind$_cftoe_l           0000000180063110     LIBCMTD:cvt.obj
 0002:00011120       $unwind$_cftoa_l           0000000180063120     LIBCMTD:cvt.obj
 0002:00011128       $unwind$_cftog_l           0000000180063128     LIBCMTD:cvt.obj
 0002:00011138       $unwind$_ioinit            0000000180063138     LIBCMTD:ioinit.obj
 0002:00011158       $unwind$__IsPackagedAppHelper 0000000180063158     LIBCMTD:ioinit.obj
 0002:00011158       $unwind$_getptd            0000000180063158     LIBCMTD:ioinit.obj
 0002:00011158       $unwind$abort              0000000180063158     LIBCMTD:ioinit.obj
 0002:00011158       $unwind$_init_pointers     0000000180063158     LIBCMTD:ioinit.obj
 0002:00011158       $unwind$_statfp            0000000180063158     LIBCMTD:ioinit.obj
 0002:00011158       $unwind$__crtLoadWinApiPointers 0000000180063158     LIBCMTD:ioinit.obj
 0002:00011158       $unwind$_ioterm            0000000180063158     LIBCMTD:ioinit.obj
 0002:00011158       $unwind$_clrfp             0000000180063158     LIBCMTD:ioinit.obj
 0002:00011158       $unwind$__freeCrtMemory    0000000180063158     LIBCMTD:ioinit.obj
 0002:00011158       $unwind$_initp_misc_cfltcvt_tab 0000000180063158     LIBCMTD:ioinit.obj
 0002:00011158       $unwind$_heapchk           0000000180063158     LIBCMTD:ioinit.obj
 0002:00011158       $unwind$__crtIsPackagedApp 0000000180063158     LIBCMTD:ioinit.obj
 0002:00011158       $unwind$_mtinitlocks       0000000180063158     LIBCMTD:ioinit.obj
 0002:00011158       $unwind$_errno             0000000180063158     LIBCMTD:ioinit.obj
 0002:00011158       $unwind$__doserrno         0000000180063158     LIBCMTD:ioinit.obj
 0002:00011160       $unwind$__crtGetEnvironmentStringsA 0000000180063160     LIBCMTD:stdargv.obj
 0002:00011160       $unwind$_setargv           0000000180063160     LIBCMTD:stdargv.obj
 0002:00011168       $unwind$?__SehTransFilter@@YAHPEAU_EXCEPTION_POINTERS@@PEAUEHExceptionRecord@@PEA_KPEAU_CONTEXT@@PEAU_xDISPATCHER_CONTEXT@@PEBU_s_FuncInfo@@PEAH@Z 0000000180063168     LIBCMTD:stdargv.obj
 0002:00011168       $unwind$_raise_exc_ex      0000000180063168     LIBCMTD:stdargv.obj
 0002:00011168       $unwind$?_GetEstablisherFrame@@YAPEA_KPEA_KPEAU_xDISPATCHER_CONTEXT@@PEBU_s_FuncInfo@@0@Z 0000000180063168     LIBCMTD:stdargv.obj
 0002:00011168       $unwind$memcpy_s           0000000180063168     LIBCMTD:stdargv.obj
 0002:00011168       $unwind$parse_cmdline      0000000180063168     LIBCMTD:stdargv.obj
 0002:00011168       $unwind$_umatherr          0000000180063168     LIBCMTD:stdargv.obj
 0002:00011170       $unwind$_setenvp           0000000180063170     LIBCMTD:stdenvp.obj
 0002:00011178       $unwind$__crtCapturePreviousContext 0000000180063178     LIBCMTD:winapisupp.obj
 0002:00011178       $unwind$__crtCaptureCurrentContext 0000000180063178     LIBCMTD:winapisupp.obj
 0002:00011180       $unwind$_RTC_Initialize    0000000180063180     LIBCMTD:initsect.obj
 0002:00011180       $unwind$_RTC_Terminate     0000000180063180     LIBCMTD:initsect.obj
 0002:0001118c       $unwind$_mtinitlocknum     000000018006318c     LIBCMTD:mlock.obj
 0002:000111ac       $unwind$_VCrtDbgReportA    00000001800631ac     LIBCMTD:dbgrptt.obj
 0002:000111e4       $unwind$_VCrtDbgReportW    00000001800631e4     LIBCMTD:dbgrptt.obj
 0002:0001121c       $unwind$_fcloseall         000000018006321c     LIBCMTD:closeall.obj
 0002:00011240       $xdatasym                  0000000180063240     LIBCMTD:memcpy.obj
 0002:00011244       $unwind$__isa_available_init 0000000180063244     LIBCMTD:cpu_disp.obj
 0002:00011254       $unwind$__lock_fhandle     0000000180063254     LIBCMTD:osfinfo.obj
 0002:00011274       $unwind$_lseeki64          0000000180063274     LIBCMTD:lseeki64.obj
 0002:00011294       $unwind$_lseeki64_nolock   0000000180063294     LIBCMTD:lseeki64.obj
 0002:000112a0       $xdatasym                  00000001800632a0     LIBCMTD:jmpuwind.obj
 0002:000112b4       $unwind$_IsNonwritableInCurrentImage 00000001800632b4     LIBCMTD:pesect.obj
 0002:000112d4       $unwind$_commit            00000001800632d4     LIBCMTD:commit.obj
 0002:000112f4       $unwind$_write             00000001800632f4     LIBCMTD:write.obj
 0002:00011314       $unwind$_write_nolock      0000000180063314     LIBCMTD:write.obj
 0002:00011328       $xdatasym                  0000000180063328     LIBCMTD:fpsr.obj
 0002:00011330       $unwind$?IsInExceptionSpec@@YAEPEAUEHExceptionRecord@@PEBU_s_ESTypeList@@@Z 0000000180063330     LIBCMTD:realloc.obj
 0002:00011330       $unwind$realloc            0000000180063330     LIBCMTD:realloc.obj
 0002:00011330       $unwind$_realloc_base      0000000180063330     LIBCMTD:realloc.obj
 0002:00011330       $unwind$?PushString@@YAPEADPEAUmemory_arena@@PEAD@Z 0000000180063330     LIBCMTD:realloc.obj
 0002:00011338       $unwind$_expand_base       0000000180063338     LIBCMTD:expand.obj
 0002:00011338       $unwind$_forcdecpt_l       0000000180063338     LIBCMTD:expand.obj
 0002:00011340       $unwind$__crtMessageWindowA 0000000180063340     LIBCMTD:dbgrpt.obj
 0002:00011350       $unwind$?_ValidateRead@@YAHPEBXI@Z 0000000180063350     LIBCMTD:a_map.obj
 0002:00011350       $unwind$?GetSoundInfo@@YAPEAUasset_sound_info@@PEAUgame_assets@@Usound_id@@@Z 0000000180063350     LIBCMTD:a_map.obj
 0002:00011350       $unwind$xcptlookup         0000000180063350     LIBCMTD:a_map.obj
 0002:00011350       $unwind$?_ValidateWrite@@YAHPEAXI@Z 0000000180063350     LIBCMTD:a_map.obj
 0002:00011350       $unwind$?GetSound@@YAPEAUloaded_sound@@PEAUgame_assets@@Usound_id@@@Z 0000000180063350     LIBCMTD:a_map.obj
 0002:00011350       $unwind$siglookup          0000000180063350     LIBCMTD:a_map.obj
 0002:00011350       $unwind$?GetBitmap@@YAPEAUloaded_bitmap@@PEAUgame_assets@@Ubitmap_id@@@Z 0000000180063350     LIBCMTD:a_map.obj
 0002:00011350       $unwind$?strncnt@@YAHPEBDH@Z 0000000180063350     LIBCMTD:a_map.obj
 0002:00011350       $unwind$_ZeroTail          0000000180063350     LIBCMTD:a_map.obj
 0002:00011358       $unwind$__crtGetStringTypeA 0000000180063358     LIBCMTD:a_str.obj
 0002:00011360       $unwind$_flsbuf            0000000180063360     LIBCMTD:_wctype.obj
 0002:00011360       $unwind$_XcptFilter        0000000180063360     LIBCMTD:_wctype.obj
 0002:00011360       $unwind$_isleadbyte_l      0000000180063360     LIBCMTD:_wctype.obj
 0002:00011360       $unwind$_flswbuf           0000000180063360     LIBCMTD:_wctype.obj
 0002:00011360       $unwind$_isdigit_l         0000000180063360     LIBCMTD:_wctype.obj
 0002:00011368       $unwind$__CxxCallCatchBlock 0000000180063368     LIBCMTD:frame.obj
 0002:00011398       $unwind$_initptd$fin$0     0000000180063398     LIBCMTD:frame.obj
 0002:00011398       $unwind$?dtor$0@?0??strtoxl@@YAKPEAUlocaleinfo_struct@@PEBDPEAPEBDHH@Z@4HA 0000000180063398     LIBCMTD:frame.obj
 0002:00011398       $unwind$_locterm$fin$0     0000000180063398     LIBCMTD:frame.obj
 0002:00011398       $unwind$__lock_fhandle$fin$0 0000000180063398     LIBCMTD:frame.obj
 0002:00011398       $unwind$flsall$fin$1       0000000180063398     LIBCMTD:frame.obj
 0002:00011398       $unwind$flsall$fin$0       0000000180063398     LIBCMTD:frame.obj
 0002:00011398       $unwind$__BuildCatchObject$filt$0 0000000180063398     LIBCMTD:frame.obj
 0002:00011398       $unwind$fflush$fin$0       0000000180063398     LIBCMTD:frame.obj
 0002:00011398       $unwind$_initptd$fin$1     0000000180063398     LIBCMTD:frame.obj
 0002:00011398       $unwind$_freefls$fin$1     0000000180063398     LIBCMTD:frame.obj
 0002:00011398       $unwind$?dtor$0@?0??getSystemCP@@YAHH@Z@4HA 0000000180063398     LIBCMTD:frame.obj
 0002:00011398       $unwind$?filt$0@?0??terminate@@YAXXZ@4HA 0000000180063398     LIBCMTD:frame.obj
 0002:00011398       $unwind$?filt$0@?0??__crtIsBadReadPtr@@YAHPEBX_K@Z@4HA 0000000180063398     LIBCMTD:frame.obj
 0002:00011398       $unwind$_freefls$fin$0     0000000180063398     LIBCMTD:frame.obj
 0002:00011398       $unwind$__DestructExceptionObject$filt$0 0000000180063398     LIBCMTD:frame.obj
 0002:00011398       $unwind$__updatetlocinfo$fin$0 0000000180063398     LIBCMTD:frame.obj
 0002:00011398       $unwind$_fcloseall$fin$0   0000000180063398     LIBCMTD:frame.obj
 0002:00011398       $unwind$__FrameUnwindToState$fin$1 0000000180063398     LIBCMTD:frame.obj
 0002:00011398       $unwind$_onexit$fin$0      0000000180063398     LIBCMTD:frame.obj
 0002:00011398       $unwind$?filt$0@?0??_inconsistency@@YAXXZ@4HA 0000000180063398     LIBCMTD:frame.obj
 0002:00011398       $unwind$__BuildCatchObjectHelper$filt$0 0000000180063398     LIBCMTD:frame.obj
 0002:00011398       $unwind$_ctrlfp$filt$0     0000000180063398     LIBCMTD:frame.obj
 0002:00011398       $unwind$__FrameUnwindToState$filt$0 0000000180063398     LIBCMTD:frame.obj
 0002:00011398       $unwind$__CxxCallCatchBlock$filt$0 0000000180063398     LIBCMTD:frame.obj
 0002:00011398       $unwind$__CxxCallCatchBlock$fin$1 0000000180063398     LIBCMTD:frame.obj
 0002:00011398       $unwind$?dtor$0@?0??x_ismbbtype_l@@YAHPEAUlocaleinfo_struct@@IHH@Z@4HA 0000000180063398     LIBCMTD:frame.obj
 0002:00011398       $unwind$_free_dbg$fin$0    0000000180063398     LIBCMTD:frame.obj
 0002:00011398       $unwind$_IsNonwritableInCurrentImage$filt$0 0000000180063398     LIBCMTD:frame.obj
 0002:00011398       $unwind$_mtinitlocknum$fin$0 0000000180063398     LIBCMTD:frame.obj
 0002:00011398       $unwind$doexit$fin$0       0000000180063398     LIBCMTD:frame.obj
 0002:00011398       $unwind$_setmbcp$fin$0     0000000180063398     LIBCMTD:frame.obj
 0002:00011398       $unwind$__updatetmbcinfo$fin$0 0000000180063398     LIBCMTD:frame.obj
 0002:000113a0       $unwind$__FrameUnwindToState 00000001800633a0     LIBCMTD:frame.obj
 0002:000113d0       $unwind$?FindHandler@@YAXPEAUEHExceptionRecord@@PEA_KPEAU_CONTEXT@@PEAU_xDISPATCHER_CONTEXT@@PEBU_s_FuncInfo@@EH1@Z 00000001800633d0     LIBCMTD:frame.obj
 0002:000113d8       $unwind$__BuildCatchObject 00000001800633d8     LIBCMTD:frame.obj
 0002:000113f8       $unwind$?FindHandlerForForeignException@@YAXPEAUEHExceptionRecord@@PEA_KPEAU_CONTEXT@@PEAU_xDISPATCHER_CONTEXT@@PEBU_s_FuncInfo@@HH1@Z 00000001800633f8     LIBCMTD:frame.obj
 0002:000113f8       $unwind$?__crtLCMapStringA_stat@@YAHPEAUlocaleinfo_struct@@PEB_WKPEBDHPEADHHH@Z 00000001800633f8     LIBCMTD:frame.obj
 0002:00011400       $unwind$?__StateFromIp@@YAHPEBU_s_FuncInfo@@PEAU_xDISPATCHER_CONTEXT@@_J@Z 0000000180063400     LIBCMTD:frame.obj
 0002:00011400       $unwind$strtol             0000000180063400     LIBCMTD:frame.obj
 0002:00011400       $unwind$?__GetUnwindTryBlock@@YAHPEA_KPEAU_xDISPATCHER_CONTEXT@@PEBU_s_FuncInfo@@@Z 0000000180063400     LIBCMTD:frame.obj
 0002:00011400       $unwind$?ExFilterRethrow@@YAHPEAU_EXCEPTION_POINTERS@@PEAUEHExceptionRecord@@PEAH@Z 0000000180063400     LIBCMTD:frame.obj
 0002:00011408       $unwind$__DestructExceptionObject 0000000180063408     LIBCMTD:frame.obj
 0002:00011428       $unwind$__BuildCatchObjectHelper 0000000180063428     LIBCMTD:frame.obj
 0002:00011448       $unwind$?terminate@@YAXXZ  0000000180063448     LIBCMTD:hooks.obj
 0002:00011468       $unwind$?_inconsistency@@YAXXZ 0000000180063468     LIBCMTD:hooks.obj
 0002:00011488       $xdatasym                  0000000180063488     LIBCMTD:memcmp.obj
 0002:0001148c       $unwind$?RenderRectangle@@YAXPEAUloaded_bitmap@@TgdVec2@@1TgdVec4@@UgdRect2i@@@Z 000000018006348c     LIBCMTD:wcsncpy_s.obj
 0002:0001148c       $unwind$_wcstombs_s_l      000000018006348c     LIBCMTD:wcsncpy_s.obj
 0002:0001148c       $unwind$_mbtowc_l          000000018006348c     LIBCMTD:wcsncpy_s.obj
 0002:0001148c       $unwind$__crtLCMapStringA  000000018006348c     LIBCMTD:wcsncpy_s.obj
 0002:0001148c       $unwind$wcsncpy_s          000000018006348c     LIBCMTD:wcsncpy_s.obj
 0002:00011494       $unwind$?__crtGetStringTypeA_stat@@YAHPEAUlocaleinfo_struct@@KPEBDHPEAGHH@Z 0000000180063494     LIBCMTD:winapinls.obj
 0002:00011494       $unwind$__crtLCMapStringEx 0000000180063494     LIBCMTD:winapinls.obj
 0002:0001149c       $unwind$__wcsnicmp_ascii   000000018006349c     LIBCMTD:winapinls.obj
 0002:0001149c       $unwind$write_char         000000018006349c     LIBCMTD:winapinls.obj
 0002:0001149c       $unwind$_atoflt_l          000000018006349c     LIBCMTD:winapinls.obj
 0002:0001149c       $unwind$?__GetCurrentState@@YAHPEA_KPEAU_xDISPATCHER_CONTEXT@@PEBU_s_FuncInfo@@@Z 000000018006349c     LIBCMTD:winapinls.obj
 0002:0001149c       $unwind$write_char         000000018006349c     LIBCMTD:winapinls.obj
 0002:0001149c       $unwind$mbtowc             000000018006349c     LIBCMTD:winapinls.obj
 0002:000114a4       $unwind$_onexit            00000001800634a4     LIBCMTD:onexit.obj
 0002:000114c4       $unwind$__initconout       00000001800634c4     LIBCMTD:onexit.obj
 0002:000114c4       $unwind$_getptd_noexit     00000001800634c4     LIBCMTD:onexit.obj
 0002:000114c4       $unwind$_mtinit            00000001800634c4     LIBCMTD:onexit.obj
 0002:000114c4       $unwind$__security_init_cookie 00000001800634c4     LIBCMTD:onexit.obj
 0002:000114c4       $unwind$_is_LFH_enabled    00000001800634c4     LIBCMTD:onexit.obj
 0002:000114c4       $unwind$__initstdio        00000001800634c4     LIBCMTD:onexit.obj
 0002:000114c4       $unwind$_mtdeletelocks     00000001800634c4     LIBCMTD:onexit.obj
 0002:000114c4       $unwind$__onexitinit       00000001800634c4     LIBCMTD:onexit.obj
 0002:000114cc       $unwind$_RoundMan          00000001800634cc     LIBCMTD:_sftbuf.obj
 0002:000114cc       $unwind$_IncMan            00000001800634cc     LIBCMTD:_sftbuf.obj
 0002:000114cc       $unwind$_ftbuf             00000001800634cc     LIBCMTD:_sftbuf.obj
 0002:000114d4       $unwind$_woutput_l         00000001800634d4     LIBCMTD:woutput.obj
 0002:000114e4       $unwind$_woutput_s_l       00000001800634e4     LIBCMTD:woutputs.obj
 0002:000114f8       $xdatasym                  00000001800634f8     LIBCMTD:strlen.obj
 0002:000114fc       $unwind$_tolower_l         00000001800634fc     LIBCMTD:tolower.obj
 0002:00011504       $unwind$strrchr            0000000180063504     LIBCMTD:strrchr.obj
 0002:0001150c       $unwind$_fptostr           000000018006350c     LIBCMTD:_fptostr.obj
 0002:0001150c       $unwind$realloc_help       000000018006350c     LIBCMTD:_fptostr.obj
 0002:0001150c       $unwind$_vsnprintf_s_l     000000018006350c     LIBCMTD:_fptostr.obj
 0002:0001150c       $unwind$_vsnwprintf_s_l    000000018006350c     LIBCMTD:_fptostr.obj
 0002:0001150c       $unwind$__InternalCxxFrameHandler 000000018006350c     LIBCMTD:_fptostr.obj
 0002:00011514       $unwind$_atodbl_l          0000000180063514     LIBCMTD:atodbl.obj
 0002:00011524       $unwind$__crt_atoflt_l     0000000180063524     LIBCMTD:atodbl.obj
 0002:00011524       $unwind$_cftof_l           0000000180063524     LIBCMTD:atodbl.obj
 0002:00011534       $unwind$_fltout2           0000000180063534     LIBCMTD:cfout.obj
 0002:00011548       $unwind$?x_ismbbtype_l@@YAHPEAUlocaleinfo_struct@@IHH@Z 0000000180063548     LIBCMTD:ismbbyte.obj
 0002:00011558       $stateUnwindMap$?x_ismbbtype_l@@YAHPEAUlocaleinfo_struct@@IHH@Z 0000000180063558     LIBCMTD:ismbbyte.obj
 0002:00011560       $ip2state$?x_ismbbtype_l@@YAHPEAUlocaleinfo_struct@@IHH@Z 0000000180063560     LIBCMTD:ismbbyte.obj
 0002:00011578       $unwind$wcscat_s           0000000180063578     LIBCMTD:strcat_s.obj
 0002:00011578       $unwind$strcat_s           0000000180063578     LIBCMTD:strcat_s.obj
 0002:00011580       $unwind$_cftoe2_l          0000000180063580     LIBCMTD:mbstowcs.obj
 0002:00011580       $unwind$_mbstowcs_s_l      0000000180063580     LIBCMTD:mbstowcs.obj
 0002:00011580       $unwind$_fread_nolock_s    0000000180063580     LIBCMTD:mbstowcs.obj
 0002:00011588       $unwind$_mbstowcs_l_helper 0000000180063588     LIBCMTD:mbstowcs.obj
 0002:00011590       $unwind$?__SetUnwindTryBlock@@YAXPEA_KPEAU_xDISPATCHER_CONTEXT@@PEBU_s_FuncInfo@@H@Z 0000000180063590     LIBCMTD:wcstombs.obj
 0002:00011590       $unwind$_vsnwprintf_s      0000000180063590     LIBCMTD:wcstombs.obj
 0002:00011590       $unwind$_vsnprintf_s       0000000180063590     LIBCMTD:wcstombs.obj
 0002:00011590       $unwind$fread              0000000180063590     LIBCMTD:wcstombs.obj
 0002:00011590       $unwind$_cftoe             0000000180063590     LIBCMTD:wcstombs.obj
 0002:00011590       $unwind$wcstombs_s         0000000180063590     LIBCMTD:wcstombs.obj
 0002:00011590       $unwind$mbstowcs_s         0000000180063590     LIBCMTD:wcstombs.obj
 0002:00011598       $unwind$__AdjustPointer    0000000180063598     LIBCMTD:wcstombs.obj
 0002:00011598       $unwind$?wcsncnt@@YA_KPEB_W_K@Z 0000000180063598     LIBCMTD:wcstombs.obj
 0002:00011598       $unwind$_set_exp           0000000180063598     LIBCMTD:wcstombs.obj
 0002:000115a0       $unwind$_wcstombs_l_helper 00000001800635a0     LIBCMTD:wcstombs.obj
 0002:000115b0       $unwind$__CxxFrameHandler3 00000001800635b0     LIBCMTD:vsnprnc.obj
 0002:000115b0       $unwind$?CatchIt@@YAXPEAUEHExceptionRecord@@PEA_KPEAU_CONTEXT@@PEAU_xDISPATCHER_CONTEXT@@PEBU_s_FuncInfo@@PEBU_s_HandlerType@@PEBU_s_CatchableType@@PEBU_s_TryBlockMapEntry@@H1EE@Z 00000001800635b0     LIBCMTD:vsnprnc.obj
 0002:000115b0       $unwind$_vsprintf_s_l      00000001800635b0     LIBCMTD:vsnprnc.obj
 0002:000115b8       $unwind$fclose             00000001800635b8     LIBCMTD:fclose.obj
 0002:000115d8       $unwind$_CrtMemDumpAllObjectsSince 00000001800635d8     LIBCMTD:fclose.obj
 0002:000115d8       $unwind$_fclose_nolock     00000001800635d8     LIBCMTD:fclose.obj
 0002:000115d8       $unwind$_stbuf             00000001800635d8     LIBCMTD:fclose.obj
 0002:000115e0       $unwind$??3@YAXPEAX@Z      00000001800635e0     LIBCMTD:dbgdel.obj
 0002:00011600       $xdatasym                  0000000180063600     LIBCMTD:strcmp.obj
 0002:00011608       $xdatasym                  0000000180063608     LIBCMTD:handlers.obj
 0002:00011610       $unwind$??8type_info@@QEBA_NAEBV0@@Z 0000000180063610     LIBCMTD:typinfo.obj
 0002:00011610       $unwind$?_Copy_str@exception@std@@AEAAXPEBD@Z 0000000180063610     LIBCMTD:typinfo.obj
 0002:00011610       $unwind$_CreateFrameInfo   0000000180063610     LIBCMTD:typinfo.obj
 0002:00011610       $unwind$__add_12           0000000180063610     LIBCMTD:typinfo.obj
 0002:00011610       $unwind$_initterm_e        0000000180063610     LIBCMTD:typinfo.obj
 0002:00011610       $unwind$_updatetlocinfoEx_nolock 0000000180063610     LIBCMTD:typinfo.obj
 0002:00011618       $unwind$_lock_file2        0000000180063618     LIBCMTD:typinfo.obj
 0002:00011618       $unwind$?strrchr@@YAPEADPEADH@Z 0000000180063618     LIBCMTD:typinfo.obj
 0002:00011618       $unwind$_shift             0000000180063618     LIBCMTD:typinfo.obj
 0002:00011618       $unwind$_ShrMan            0000000180063618     LIBCMTD:typinfo.obj
 0002:00011618       $unwind$__CppXcptFilter    0000000180063618     LIBCMTD:typinfo.obj
 0002:00011618       $unwind$_unlock_file2      0000000180063618     LIBCMTD:typinfo.obj
 0002:00011618       $unwind$?PrefetchSound@@YAXPEAUgame_assets@@Usound_id@@@Z 0000000180063618     LIBCMTD:typinfo.obj
 0002:00011618       $unwind$??_Gbad_exception@std@@UEAAPEAXI@Z 0000000180063618     LIBCMTD:typinfo.obj
 0002:00011618       $unwind$??_Gtype_info@@UEAAPEAXI@Z 0000000180063618     LIBCMTD:typinfo.obj
 0002:00011618       $unwind$??_Gexception@std@@UEAAPEAXI@Z 0000000180063618     LIBCMTD:typinfo.obj
 0002:00011620       $unwind$_CxxThrowException 0000000180063620     LIBCMTD:throw.obj
 0002:0001162c       $unwind$_get_printf_count_output 000000018006362c     LIBCMTD:printf.obj
 0002:00011634       $unwind$_fputwc_nolock     0000000180063634     LIBCMTD:fputwc.obj
 0002:00011644       $unwind$_output_s_l        0000000180063644     LIBCMTD:outputs.obj
 0002:00011654       $unwind$__addl             0000000180063654     LIBCMTD:intrncvt.obj
 0002:0001165c       $unwind$_CopyMan           000000018006365c     LIBCMTD:intrncvt.obj
 0002:0001165c       $unwind$ldexpf             000000018006365c     LIBCMTD:intrncvt.obj
 0002:0001165c       $unwind$??4exception@std@@QEAAAEAV01@AEBV01@@Z 000000018006365c     LIBCMTD:intrncvt.obj
 0002:0001165c       $unwind$_ld12tof           000000018006365c     LIBCMTD:intrncvt.obj
 0002:0001165c       $unwind$__dtold            000000018006365c     LIBCMTD:intrncvt.obj
 0002:0001165c       $unwind$_initterm          000000018006365c     LIBCMTD:intrncvt.obj
 0002:0001165c       $unwind$??0exception@std@@QEAA@AEBQEBD@Z 000000018006365c     LIBCMTD:intrncvt.obj
 0002:0001165c       $unwind$_ld12tod           000000018006365c     LIBCMTD:intrncvt.obj
 0002:0001165c       $unwind$_fd_int            000000018006365c     LIBCMTD:intrncvt.obj
 0002:0001165c       $unwind$?ldexp@@YAMMH@Z    000000018006365c     LIBCMTD:intrncvt.obj
 0002:0001165c       $unwind$??0exception@std@@QEAA@AEBV01@@Z 000000018006365c     LIBCMTD:intrncvt.obj
 0002:0001165c       $unwind$?__StateFromControlPc@@YAHPEBU_s_FuncInfo@@PEAU_xDISPATCHER_CONTEXT@@@Z 000000018006365c     LIBCMTD:intrncvt.obj
 0002:0001165c       $unwind$?GetAlignmentOffset@@YA_KPEAUmemory_arena@@_K@Z 000000018006365c     LIBCMTD:intrncvt.obj
 0002:0001165c       $unwind$??0bad_exception@std@@QEAA@AEBV01@@Z 000000018006365c     LIBCMTD:intrncvt.obj
 0002:0001165c       $unwind$??0bad_exception@std@@QEAA@PEBD@Z 000000018006365c     LIBCMTD:intrncvt.obj
 0002:0001165c       $unwind$_FindPESection     000000018006365c     LIBCMTD:intrncvt.obj
 0002:00011664       $unwind$_ld12cvt           0000000180063664     LIBCMTD:intrncvt.obj
 0002:00011674       $unwind$__strgtold12_l     0000000180063674     LIBCMTD:strgtold.obj
 0002:00011684       $unwind$__multtenpow12     0000000180063684     LIBCMTD:strgtold.obj
 0002:00011698       $unwind$__ld12mul          0000000180063698     LIBCMTD:strgtold.obj
 0002:000116a8       $unwind$$I10_OUTPUT        00000001800636a8     LIBCMTD:x10fout.obj
 0002:000116bc       $unwind$_close             00000001800636bc     LIBCMTD:close.obj
 0002:000116dc       $unwind$wctomb_s           00000001800636dc     LIBCMTD:wctomb.obj
 0002:000116e4       $unwind$_wctomb_s_l        00000001800636e4     LIBCMTD:wctomb.obj
 0002:000116ec       $unwind$?_Type_info_dtor@type_info@@CAXPEAV1@@Z 00000001800636ec     LIBCMTD:typname.obj
 0002:0001170c       $unwind$__mtold12          000000018006370c     LIBCMTD:mantold.obj
 0002:000117b0       .edata                     00000001800637b0     dolphin.exp
 0002:000117d8       rgpv                       00000001800637d8     dolphin.exp
 0002:000117e0       rgszName                   00000001800637e0     dolphin.exp
 0002:000117e8       rgwOrd                     00000001800637e8     dolphin.exp
 0002:000117ec       szName                     00000001800637ec     dolphin.exp
 0002:000117f8       $N00001                    00000001800637f8     dolphin.exp
 0002:0001180c       $N00002                    000000018006380c     dolphin.exp
 0002:00011fd8       .idata$6                   0000000180063fd8     kernel32:KERNEL32.dll
 0003:00000000       stbi__bmask                0000000180064000     dolphin.obj
 0003:00000044       first_row_filter           0000000180064044     dolphin.obj
 0003:00000050       stbi__depth_scale_table    0000000180064050     dolphin.obj
 0003:00000060       stbi__jpeg_dezigzag        0000000180064060     dolphin.obj
 0003:000000b0       RandomNumberTable          00000001800640b0     dolphin.obj
 0003:000040b0       stbi__stdio_callbacks      00000001800680b0     dolphin.obj
 0003:000040c8       stbi__l2h_gamma            00000001800680c8     dolphin.obj
 0003:000040cc       stbi__l2h_scale            00000001800680cc     dolphin.obj
 0003:000040d0       stbi__h2l_gamma_i          00000001800680d0     dolphin.obj
 0003:000040d4       stbi__h2l_scale_i          00000001800680d4     dolphin.obj
 0003:000040e0       stbi__zlength_base         00000001800680e0     dolphin.obj
 0003:00004160       stbi__zlength_extra        0000000180068160     dolphin.obj
 0003:000041e0       stbi__zdist_base           00000001800681e0     dolphin.obj
 0003:00004260       stbi__zdist_extra          0000000180068260     dolphin.obj
 0003:000042e0       ?rgb@?BC@??stbi__process_frame_header@@YAHPEAUstbi__jpeg@@H@Z@4PAEA 00000001800682e0     dolphin.obj
 0003:000042e8       ?length_dezigzag@?1??stbi__compute_huffman_codes@@YAHPEAUstbi__zbuf@@@Z@4PAEA 00000001800682e8     dolphin.obj
 0003:00004300       ?png_sig@?1??stbi__check_png_header@@YAHPEAUstbi__context@@@Z@4PAEA 0000000180068300     dolphin.obj
 0003:00004308       ?invalid_chunk@?JD@??stbi__parse_png_file@@YAHPEAUstbi__png@@HH@Z@4PADA 0000000180068308     dolphin.obj
 0003:00004330       _assertstring              0000000180068330     LIBCMTD:wassert.obj
 0003:00004380       dotdotdot                  0000000180068380     LIBCMTD:wassert.obj
 0003:00004388       newline                    0000000180068388     LIBCMTD:wassert.obj
 0003:00004390       dblnewline                 0000000180068390     LIBCMTD:wassert.obj
 0003:000043b8       dotdotdot                  00000001800683b8     LIBCMTD:dbgrptw.obj
 0003:000043c0       errtable                   00000001800683c0     LIBCMTD:dosmap.obj
 0003:00004528       ErrnoNoMem                 0000000180068528     LIBCMTD:dosmap.obj
 0003:0000452c       DoserrorNoMem              000000018006852c     LIBCMTD:dosmap.obj
 0003:00004a20       ?_names@?1??_get_fname@@9@9 0000000180068a20     LIBCMTD:fpexcept.obj
 0003:00004bf0       ?dazSupported@?1??_ctrlfp@@9@9 0000000180068bf0     LIBCMTD:fpctrl.obj
 0003:00004c08       _lRequestCurr              0000000180068c08     LIBCMTD:dbgheap.obj
 0003:00004c0c       _bNoMansLandFill           0000000180068c0c     LIBCMTD:dbgheap.obj
 0003:00004c0d       _bAlignLandFill            0000000180068c0d     LIBCMTD:dbgheap.obj
 0003:00004c0e       _bDeadLandFill             0000000180068c0e     LIBCMTD:dbgheap.obj
 0003:00004c0f       _bCleanLandFill            0000000180068c0f     LIBCMTD:dbgheap.obj
 0003:00005048       __rgctypeflag              0000000180069048     LIBCMTD:mbctype.obj
 0003:00005050       __rgcode_page_info         0000000180069050     LIBCMTD:mbctype.obj
 0003:000055a0       _ctype_loc_style           00000001800695a0     LIBCMTD:wsetloca.obj
 0003:00005658       ?isPackaged@?1??__crtIsPackagedApp@@9@9 0000000180069658     LIBCMTD:winapisupp.obj
 0003:00005670       _locktable                 0000000180069670     LIBCMTD:mlock.obj
 0003:00005900       dotdotdot                  0000000180069900     LIBCMTD:dbgrpt.obj
 0003:000059e0       DoubleFormat               00000001800699e0     LIBCMTD:intrncvt.obj
 0003:000059f8       FloatFormat                00000001800699f8     LIBCMTD:intrncvt.obj
 0003:00005d60       stbi__unpremultiply_on_load 0000000180069d60     dolphin.obj
 0003:00005d64       stbi__de_iphone_flag       0000000180069d64     dolphin.obj
 0003:00005d68       stbi__vertically_flip_on_load 0000000180069d68     dolphin.obj
 0003:00005d88       PlatformReadEntireFile     0000000180069d88     dolphin.obj
 0003:00005d90       stbi__g_failure_reason     0000000180069d90     dolphin.obj
 0003:00005da0       stbi__zdefault_length      0000000180069da0     dolphin.obj
 0003:00005ec0       stbi__zdefault_distance    0000000180069ec0     dolphin.obj
 0003:00005ef8       __proc_attached            0000000180069ef8     LIBCMTD:dllcrt0.obj
 0003:00005f14       check_frequency            0000000180069f14     LIBCMTD:dbgheap.obj
 0003:00005f20       check_counter              0000000180069f20     LIBCMTD:dbgheap.obj
 0003:00005f28       _lTotalAlloc               0000000180069f28     LIBCMTD:dbgheap.obj
 0003:00005f30       _lCurAlloc                 0000000180069f30     LIBCMTD:dbgheap.obj
 0003:00005f38       _lMaxAlloc                 0000000180069f38     LIBCMTD:dbgheap.obj
 0003:00005f40       _pFirstBlock               0000000180069f40     LIBCMTD:dbgheap.obj
 0003:00005f48       _pLastBlock                0000000180069f48     LIBCMTD:dbgheap.obj
 0003:00005f78       fSystemSet                 0000000180069f78     LIBCMTD:mbctype.obj
 0003:00005f80       GS_ExceptionRecord         0000000180069f80     LIBCMTD:gs_report.obj
 0003:00006020       GS_ContextRecord           000000018006a020     LIBCMTD:gs_report.obj
 0003:000064f0       DebuggerWasPresent         000000018006a4f0     LIBCMTD:gs_report.obj
 0003:00006558       ctrlc_action               000000018006a558     LIBCMTD:winsig.obj
 0003:00006560       ctrlbreak_action           000000018006a560     LIBCMTD:winsig.obj
 0003:00006568       abort_action               000000018006a568     LIBCMTD:winsig.obj
 0003:00006570       term_action                000000018006a570     LIBCMTD:winsig.obj
 0003:00006578       ConsoleCtrlHandler_Installed 000000018006a578     LIBCMTD:winsig.obj
 0003:00006580       ?pfnMessageBox@?1??__crtMessageBoxW@@9@9 000000018006a580     LIBCMTD:crtmboxw.obj
 0003:00006588       ?pfnGetActiveWindow@?1??__crtMessageBoxW@@9@9 000000018006a588     LIBCMTD:crtmboxw.obj
 0003:00006590       ?pfnGetLastActivePopup@?1??__crtMessageBoxW@@9@9 000000018006a590     LIBCMTD:crtmboxw.obj
 0003:00006598       ?pfnGetProcessWindowStation@?1??__crtMessageBoxW@@9@9 000000018006a598     LIBCMTD:crtmboxw.obj
 0003:000065a0       ?pfnGetUserObjectInformation@?1??__crtMessageBoxW@@9@9 000000018006a5a0     LIBCMTD:crtmboxw.obj
 0003:000065c0       ?outmsg@?L@??_NMSG_WRITE@@9@9 000000018006a5c0     LIBCMTD:crt0msg.obj
 0003:00006e00       ?_pgmname@?1??_setargv@@9@9 000000018006ae00     LIBCMTD:stdargv.obj
 0003:00006f10       lclcritsects               000000018006af10     LIBCMTD:mlock.obj
 0003:00007190       __crtCallProc              000000018006b190     LIBCMTD:winapinls.obj
 0003:000071a0       g_pfnRtlGenRandom          000000018006b1a0     LIBCMTD:rand_s.obj
 0003:000071c0       __enable_percent_n         000000018006b1c0     LIBCMTD:printf.obj
 0003:000071c8       __type_info_root_node      000000018006b1c8     LIBCMTD:typname.obj
 0003:00007220       heap                       000000018006b220     LIBCMTD:undname.obj
 0004:00000000       $pdata$gd_sqrt             000000018006d000     dolphin.obj
 0004:0000000c       $pdata$gd_rsqrt            000000018006d00c     dolphin.obj
 0004:00000018       $pdata$gd_sin              000000018006d018     dolphin.obj
 0004:00000024       $pdata$gd_cos              000000018006d024     dolphin.obj
 0004:00000030       $pdata$gd_vec2_zero        000000018006d030     dolphin.obj
 0004:0000003c       $pdata$gd_vec2             000000018006d03c     dolphin.obj
 0004:00000048       $pdata$gd_vec3_zero        000000018006d048     dolphin.obj
 0004:00000054       $pdata$gd_vec3             000000018006d054     dolphin.obj
 0004:00000060       $pdata$gd_vec3_from_vec2   000000018006d060     dolphin.obj
 0004:0000006c       $pdata$gd_vec4             000000018006d06c     dolphin.obj
 0004:00000078       $pdata$gd_vec2_add         000000018006d078     dolphin.obj
 0004:00000084       $pdata$gd_vec2_mul         000000018006d084     dolphin.obj
 0004:00000090       $pdata$gd_vec3_add         000000018006d090     dolphin.obj
 0004:0000009c       $pdata$gd_vec3_sub         000000018006d09c     dolphin.obj
 0004:000000a8       $pdata$gd_vec3_mul         000000018006d0a8     dolphin.obj
 0004:000000b4       $pdata$gd_vec2_hadamard    000000018006d0b4     dolphin.obj
 0004:000000c0       $pdata$gd_vec2_squared_mag 000000018006d0c0     dolphin.obj
 0004:000000cc       $pdata$gd_vec2_norm0       000000018006d0cc     dolphin.obj
 0004:000000d8       $pdata$gd_rect2            000000018006d0d8     dolphin.obj
 0004:000000e4       $pdata$?BeginTaskWithMemory@@YAPEAUtask_with_memory@@PEAUtransient_state@@@Z 000000018006d0e4     dolphin.obj
 0004:000000f0       $pdata$?EndTaskWithMemory@@YAXPEAUtask_with_memory@@@Z 000000018006d0f0     dolphin.obj
 0004:000000fc       $pdata$?LoadBitmapAsset@@YAXPEAUgame_assets@@Ubitmap_id@@@Z 000000018006d0fc     dolphin.obj
 0004:00000108       $pdata$?LoadSoundAsset@@YAXPEAUgame_assets@@Usound_id@@@Z 000000018006d108     dolphin.obj
 0004:00000114       $pdata$?RenderGroupToOutput@@YAXPEAUrender_group@@PEAUloaded_bitmap@@UgdRect2i@@@Z 000000018006d114     dolphin.obj
 0004:00000120       $pdata$?DoTiledRenderWork@@YAXPEAUplatform_work_queue@@PEAX@Z 000000018006d120     dolphin.obj
 0004:0000012c       $pdata$?TiledRenderGroupToOutput@@YAXPEAUplatform_work_queue@@PEAUrender_group@@PEAUloaded_bitmap@@@Z 000000018006d12c     dolphin.obj
 0004:00000138       $pdata$?AllocateRenderGroup@@YAPEAUrender_group@@PEAUgame_assets@@PEAUmemory_arena@@IM@Z 000000018006d138     dolphin.obj
 0004:00000144       $pdata$?LoadWAV@@YA?AUloaded_sound@@PEADII@Z 000000018006d144     dolphin.obj
 0004:00000150       $pdata$stbi_load_from_memory 000000018006d150     dolphin.obj
 0004:0000015c       $pdata$stbi_zlib_decode_malloc_guesssize_headerflag 000000018006d15c     dolphin.obj
 0004:00000168       $pdata$?stbi__cpuid3@@YAHXZ 000000018006d168     dolphin.obj
 0004:00000174       $pdata$?stbi__sse2_available@@YAHXZ 000000018006d174     dolphin.obj
 0004:00000180       $pdata$?stbi__refill_buffer@@YAXPEAUstbi__context@@@Z 000000018006d180     dolphin.obj
 0004:0000018c       $pdata$?stbi__start_mem@@YAXPEAUstbi__context@@PEBEH@Z 000000018006d18c     dolphin.obj
 0004:00000198       $pdata$?stbi__stdio_read@@YAHPEAXPEADH@Z 000000018006d198     dolphin.obj
 0004:000001a4       $pdata$?stbi__stdio_skip@@YAXPEAXH@Z 000000018006d1a4     dolphin.obj
 0004:000001b0       $pdata$?stbi__stdio_eof@@YAHPEAX@Z 000000018006d1b0     dolphin.obj
 0004:000001bc       $pdata$?stbi__jpeg_test@@YAHPEAUstbi__context@@@Z 000000018006d1bc     dolphin.obj
 0004:000001c8       $pdata$?stbi__jpeg_load@@YAPEAEPEAUstbi__context@@PEAH11H@Z 000000018006d1c8     dolphin.obj
 0004:000001d4       $pdata$?stbi__png_test@@YAHPEAUstbi__context@@@Z 000000018006d1d4     dolphin.obj
 0004:000001e0       $pdata$?stbi__png_load@@YAPEAEPEAUstbi__context@@PEAH11H@Z 000000018006d1e0     dolphin.obj
 0004:000001ec       $pdata$?stbi__bmp_test@@YAHPEAUstbi__context@@@Z 000000018006d1ec     dolphin.obj
 0004:000001f8       $pdata$?stbi__bmp_load@@YAPEAEPEAUstbi__context@@PEAH11H@Z 000000018006d1f8     dolphin.obj
 0004:00000204       $pdata$?stbi__tga_test@@YAHPEAUstbi__context@@@Z 000000018006d204     dolphin.obj
 0004:00000210       $pdata$?stbi__tga_load@@YAPEAEPEAUstbi__context@@PEAH11H@Z 000000018006d210     dolphin.obj
 0004:0000021c       $pdata$?stbi__psd_test@@YAHPEAUstbi__context@@@Z 000000018006d21c     dolphin.obj
 0004:00000228       $pdata$?stbi__psd_load@@YAPEAEPEAUstbi__context@@PEAH11H@Z 000000018006d228     dolphin.obj
 0004:00000234       $pdata$?stbi__hdr_test@@YAHPEAUstbi__context@@@Z 000000018006d234     dolphin.obj
 0004:00000240       $pdata$?stbi__hdr_load@@YAPEAMPEAUstbi__context@@PEAH11H@Z 000000018006d240     dolphin.obj
 0004:0000024c       $pdata$?stbi__pic_test@@YAHPEAUstbi__context@@@Z 000000018006d24c     dolphin.obj
 0004:00000258       $pdata$?stbi__pic_load@@YAPEAEPEAUstbi__context@@PEAH11H@Z 000000018006d258     dolphin.obj
 0004:00000264       $pdata$?stbi__gif_test@@YAHPEAUstbi__context@@@Z 000000018006d264     dolphin.obj
 0004:00000270       $pdata$?stbi__gif_load@@YAPEAEPEAUstbi__context@@PEAH11H@Z 000000018006d270     dolphin.obj
 0004:0000027c       $pdata$?stbi__pnm_test@@YAHPEAUstbi__context@@@Z 000000018006d27c     dolphin.obj
 0004:00000288       $pdata$?stbi__pnm_load@@YAPEAEPEAUstbi__context@@PEAH11H@Z 000000018006d288     dolphin.obj
 0004:00000294       $pdata$?stbi__pnm_info@@YAHPEAUstbi__context@@PEAH11@Z 000000018006d294     dolphin.obj
 0004:000002a0       $pdata$?stbi__malloc@@YAPEAX_K@Z 000000018006d2a0     dolphin.obj
 0004:000002ac       $pdata$?stbi__hdr_to_ldr@@YAPEAEPEAMHHH@Z 000000018006d2ac     dolphin.obj
 0004:000002b8       $pdata$?stbi__load_main@@YAPEAEPEAUstbi__context@@PEAH11H@Z 000000018006d2b8     dolphin.obj
 0004:000002c4       $pdata$?stbi__load_flip@@YAPEAEPEAUstbi__context@@PEAH11H@Z 000000018006d2c4     dolphin.obj
 0004:000002d0       $pdata$?stbi__get8@@YAEPEAUstbi__context@@@Z 000000018006d2d0     dolphin.obj
 0004:000002dc       $pdata$?stbi__at_eof@@YAHPEAUstbi__context@@@Z 000000018006d2dc     dolphin.obj
 0004:000002e8       $pdata$?stbi__skip@@YAXPEAUstbi__context@@H@Z 000000018006d2e8     dolphin.obj
 0004:000002f4       $pdata$?stbi__getn@@YAHPEAUstbi__context@@PEAEH@Z 000000018006d2f4     dolphin.obj
 0004:00000300       $pdata$?stbi__get16be@@YAHPEAUstbi__context@@@Z 000000018006d300     dolphin.obj
 0004:0000030c       $pdata$?stbi__get32be@@YAIPEAUstbi__context@@@Z 000000018006d30c     dolphin.obj
 0004:00000318       $pdata$?stbi__get16le@@YAHPEAUstbi__context@@@Z 000000018006d318     dolphin.obj
 0004:00000324       $pdata$?stbi__get32le@@YAIPEAUstbi__context@@@Z 000000018006d324     dolphin.obj
 0004:00000330       $pdata$?stbi__convert_format@@YAPEAEPEAEHHII@Z 000000018006d330     dolphin.obj
 0004:0000033c       $pdata$?stbi__build_huffman@@YAHPEAUstbi__huffman@@PEAH@Z 000000018006d33c     dolphin.obj
 0004:00000348       $pdata$?stbi__build_fast_ac@@YAXPEAFPEAUstbi__huffman@@@Z 000000018006d348     dolphin.obj
 0004:00000354       $pdata$?stbi__grow_buffer_unsafe@@YAXPEAUstbi__jpeg@@@Z 000000018006d354     dolphin.obj
 0004:00000360       $pdata$?stbi__jpeg_huff_decode@@YAHPEAUstbi__jpeg@@PEAUstbi__huffman@@@Z 000000018006d360     dolphin.obj
 0004:0000036c       $pdata$?stbi__extend_receive@@YAHPEAUstbi__jpeg@@H@Z 000000018006d36c     dolphin.obj
 0004:00000378       $pdata$?stbi__jpeg_get_bits@@YAHPEAUstbi__jpeg@@H@Z 000000018006d378     dolphin.obj
 0004:00000384       $pdata$?stbi__jpeg_get_bit@@YAHPEAUstbi__jpeg@@@Z 000000018006d384     dolphin.obj
 0004:00000390       $pdata$?stbi__jpeg_decode_block@@YAHPEAUstbi__jpeg@@QEAFPEAUstbi__huffman@@2PEAFHPEAE@Z 000000018006d390     dolphin.obj
 0004:0000039c       $pdata$?stbi__jpeg_decode_block_prog_dc@@YAHPEAUstbi__jpeg@@QEAFPEAUstbi__huffman@@H@Z 000000018006d39c     dolphin.obj
 0004:000003a8       $pdata$?stbi__jpeg_decode_block_prog_ac@@YAHPEAUstbi__jpeg@@QEAFPEAUstbi__huffman@@PEAF@Z 000000018006d3a8     dolphin.obj
 0004:000003b4       $pdata$?stbi__idct_block@@YAXPEAEHQEAF@Z 000000018006d3b4     dolphin.obj
 0004:000003c0       $pdata$?stbi__idct_simd@@YAXPEAEHQEAF@Z 000000018006d3c0     dolphin.obj
 0004:000003cc       $pdata$?stbi__get_marker@@YAEPEAUstbi__jpeg@@@Z 000000018006d3cc     dolphin.obj
 0004:000003d8       $pdata$?stbi__jpeg_reset@@YAXPEAUstbi__jpeg@@@Z 000000018006d3d8     dolphin.obj
 0004:000003e4       $pdata$?stbi__parse_entropy_coded_data@@YAHPEAUstbi__jpeg@@@Z 000000018006d3e4     dolphin.obj
 0004:000003f0       $pdata$?stbi__jpeg_dequantize@@YAXPEAFPEAE@Z 000000018006d3f0     dolphin.obj
 0004:000003fc       $pdata$?stbi__jpeg_finish@@YAXPEAUstbi__jpeg@@@Z 000000018006d3fc     dolphin.obj
 0004:00000408       $pdata$?stbi__process_marker@@YAHPEAUstbi__jpeg@@H@Z 000000018006d408     dolphin.obj
 0004:00000414       $pdata$?stbi__process_scan_header@@YAHPEAUstbi__jpeg@@@Z 000000018006d414     dolphin.obj
 0004:00000420       $pdata$?stbi__process_frame_header@@YAHPEAUstbi__jpeg@@H@Z 000000018006d420     dolphin.obj
 0004:0000042c       $pdata$?stbi__decode_jpeg_header@@YAHPEAUstbi__jpeg@@H@Z 000000018006d42c     dolphin.obj
 0004:00000438       $pdata$?stbi__decode_jpeg_image@@YAHPEAUstbi__jpeg@@@Z 000000018006d438     dolphin.obj
 0004:00000444       $pdata$?stbi__resample_row_v_2@@YAPEAEPEAE00HH@Z 000000018006d444     dolphin.obj
 0004:00000450       $pdata$?stbi__resample_row_h_2@@YAPEAEPEAE00HH@Z 000000018006d450     dolphin.obj
 0004:0000045c       $pdata$?stbi__resample_row_hv_2@@YAPEAEPEAE00HH@Z 000000018006d45c     dolphin.obj
 0004:00000468       $pdata$?stbi__resample_row_hv_2_simd@@YAPEAEPEAE00HH@Z 000000018006d468     dolphin.obj
 0004:00000474       $pdata$?stbi__resample_row_generic@@YAPEAEPEAE00HH@Z 000000018006d474     dolphin.obj
 0004:00000480       $pdata$?stbi__YCbCr_to_RGB_row@@YAXPEAEPEBE11HH@Z 000000018006d480     dolphin.obj
 0004:0000048c       $pdata$?stbi__YCbCr_to_RGB_simd@@YAXPEAEPEBE11HH@Z 000000018006d48c     dolphin.obj
 0004:00000498       $pdata$?stbi__setup_jpeg@@YAXPEAUstbi__jpeg@@@Z 000000018006d498     dolphin.obj
 0004:000004a4       $pdata$?stbi__cleanup_jpeg@@YAXPEAUstbi__jpeg@@@Z 000000018006d4a4     dolphin.obj
 0004:000004b0       $pdata$?load_jpeg_image@@YAPEAEPEAUstbi__jpeg@@PEAH11H@Z 000000018006d4b0     dolphin.obj
 0004:000004bc       $pdata$?stbi__bit_reverse@@YAHHH@Z 000000018006d4bc     dolphin.obj
 0004:000004c8       $pdata$?stbi__zbuild_huffman@@YAHPEAUstbi__zhuffman@@PEAEH@Z 000000018006d4c8     dolphin.obj
 0004:000004d4       $pdata$?stbi__zget8@@YAEPEAUstbi__zbuf@@@Z 000000018006d4d4     dolphin.obj
 0004:000004e0       $pdata$?stbi__fill_bits@@YAXPEAUstbi__zbuf@@@Z 000000018006d4e0     dolphin.obj
 0004:000004ec       $pdata$?stbi__zreceive@@YAIPEAUstbi__zbuf@@H@Z 000000018006d4ec     dolphin.obj
 0004:000004f8       $pdata$?stbi__zhuffman_decode_slowpath@@YAHPEAUstbi__zbuf@@PEAUstbi__zhuffman@@@Z 000000018006d4f8     dolphin.obj
 0004:00000504       $pdata$?stbi__zhuffman_decode@@YAHPEAUstbi__zbuf@@PEAUstbi__zhuffman@@@Z 000000018006d504     dolphin.obj
 0004:00000510       $pdata$?stbi__zexpand@@YAHPEAUstbi__zbuf@@PEADH@Z 000000018006d510     dolphin.obj
 0004:0000051c       $pdata$?stbi__parse_huffman_block@@YAHPEAUstbi__zbuf@@@Z 000000018006d51c     dolphin.obj
 0004:00000528       $pdata$?stbi__compute_huffman_codes@@YAHPEAUstbi__zbuf@@@Z 000000018006d528     dolphin.obj
 0004:00000534       $pdata$?stbi__parse_uncompressed_block@@YAHPEAUstbi__zbuf@@@Z 000000018006d534     dolphin.obj
 0004:00000540       $pdata$?stbi__parse_zlib_header@@YAHPEAUstbi__zbuf@@@Z 000000018006d540     dolphin.obj
 0004:0000054c       $pdata$?stbi__init_zdefaults@@YAXXZ 000000018006d54c     dolphin.obj
 0004:00000558       $pdata$?stbi__parse_zlib@@YAHPEAUstbi__zbuf@@H@Z 000000018006d558     dolphin.obj
 0004:00000564       $pdata$?stbi__do_zlib@@YAHPEAUstbi__zbuf@@PEADHHH@Z 000000018006d564     dolphin.obj
 0004:00000570       $pdata$?stbi__get_chunk_header@@YA?AUstbi__pngchunk@@PEAUstbi__context@@@Z 000000018006d570     dolphin.obj
 0004:0000057c       $pdata$?stbi__check_png_header@@YAHPEAUstbi__context@@@Z 000000018006d57c     dolphin.obj
 0004:00000588       $pdata$?stbi__paeth@@YAHHHH@Z 000000018006d588     dolphin.obj
 0004:00000594       $pdata$?stbi__create_png_image_raw@@YAHPEAUstbi__png@@PEAEIHIIHH@Z 000000018006d594     dolphin.obj
 0004:000005a0       $pdata$?stbi__create_png_image@@YAHPEAUstbi__png@@PEAEIHHHH@Z 000000018006d5a0     dolphin.obj
 0004:000005ac       $pdata$?stbi__compute_transparency@@YAHPEAUstbi__png@@QEAEH@Z 000000018006d5ac     dolphin.obj
 0004:000005b8       $pdata$?stbi__compute_transparency16@@YAHPEAUstbi__png@@QEAGH@Z 000000018006d5b8     dolphin.obj
 0004:000005c4       $pdata$?stbi__expand_png_palette@@YAHPEAUstbi__png@@PEAEHH@Z 000000018006d5c4     dolphin.obj
 0004:000005d0       $pdata$?stbi__reduce_png@@YAHPEAUstbi__png@@@Z 000000018006d5d0     dolphin.obj
 0004:000005dc       $pdata$?stbi__de_iphone@@YAXPEAUstbi__png@@@Z 000000018006d5dc     dolphin.obj
 0004:000005e8       $pdata$?stbi__parse_png_file@@YAHPEAUstbi__png@@HH@Z 000000018006d5e8     dolphin.obj
 0004:000005f4       $pdata$?stbi__do_png@@YAPEAEPEAUstbi__png@@PEAH11H@Z 000000018006d5f4     dolphin.obj
 0004:00000600       $pdata$?stbi__bmp_test_raw@@YAHPEAUstbi__context@@@Z 000000018006d600     dolphin.obj
 0004:0000060c       $pdata$?stbi__high_bit@@YAHI@Z 000000018006d60c     dolphin.obj
 0004:00000618       $pdata$?stbi__shiftsigned@@YAHHHH@Z 000000018006d618     dolphin.obj
 0004:00000624       $pdata$?stbi__bmp_parse_header@@YAPEAXPEAUstbi__context@@PEAUstbi__bmp_data@@@Z 000000018006d624     dolphin.obj
 0004:00000630       $pdata$?stbi__tga_get_comp@@YAHHHPEAH@Z 000000018006d630     dolphin.obj
 0004:0000063c       $pdata$?stbi__tga_read_rgb16@@YAXPEAUstbi__context@@PEAE@Z 000000018006d63c     dolphin.obj
 0004:00000648       $pdata$?stbi__pic_is4@@YAHPEAUstbi__context@@PEBD@Z 000000018006d648     dolphin.obj
 0004:00000654       $pdata$?stbi__pic_test_core@@YAHPEAUstbi__context@@@Z 000000018006d654     dolphin.obj
 0004:00000660       $pdata$?stbi__readval@@YAPEAEPEAUstbi__context@@HPEAE@Z 000000018006d660     dolphin.obj
 0004:0000066c       $pdata$?stbi__copyval@@YAXHPEAEPEBE@Z 000000018006d66c     dolphin.obj
 0004:00000678       $pdata$?stbi__pic_load_core@@YAPEAEPEAUstbi__context@@HHPEAHPEAE@Z 000000018006d678     dolphin.obj
 0004:00000684       $pdata$?stbi__gif_test_raw@@YAHPEAUstbi__context@@@Z 000000018006d684     dolphin.obj
 0004:00000690       $pdata$?stbi__gif_parse_colortable@@YAXPEAUstbi__context@@QEAY03EHH@Z 000000018006d690     dolphin.obj
 0004:0000069c       $pdata$?stbi__gif_header@@YAHPEAUstbi__context@@PEAUstbi__gif@@PEAHH@Z 000000018006d69c     dolphin.obj
 0004:000006a8       $pdata$?stbi__out_gif_code@@YAXPEAUstbi__gif@@G@Z 000000018006d6a8     dolphin.obj
 0004:000006b4       $pdata$?stbi__process_gif_raster@@YAPEAEPEAUstbi__context@@PEAUstbi__gif@@@Z 000000018006d6b4     dolphin.obj
 0004:000006c0       $pdata$?stbi__fill_gif_background@@YAXPEAUstbi__gif@@HHHH@Z 000000018006d6c0     dolphin.obj
 0004:000006cc       $pdata$?stbi__gif_load_next@@YAPEAEPEAUstbi__context@@PEAUstbi__gif@@PEAHH@Z 000000018006d6cc     dolphin.obj
 0004:000006d8       $pdata$?stbi__hdr_test_core@@YAHPEAUstbi__context@@@Z 000000018006d6d8     dolphin.obj
 0004:000006e4       $pdata$?stbi__hdr_gettoken@@YAPEADPEAUstbi__context@@PEAD@Z 000000018006d6e4     dolphin.obj
 0004:000006f0       $pdata$?stbi__hdr_convert@@YAXPEAMPEAEH@Z 000000018006d6f0     dolphin.obj
 0004:000006fc       $pdata$?stbi__pnm_isspace@@YAHD@Z 000000018006d6fc     dolphin.obj
 0004:00000708       $pdata$?stbi__pnm_skip_whitespace@@YAXPEAUstbi__context@@PEAD@Z 000000018006d708     dolphin.obj
 0004:00000714       $pdata$?stbi__pnm_isdigit@@YAHD@Z 000000018006d714     dolphin.obj
 0004:00000720       $pdata$?stbi__pnm_getinteger@@YAHPEAUstbi__context@@PEAD@Z 000000018006d720     dolphin.obj
 0004:0000072c       $pdata$?LoadBMP@@YA?AUloaded_bitmap@@PEADTgdVec2@@H@Z 000000018006d72c     dolphin.obj
 0004:00000738       $pdata$?LoadBitmapWork@@YAXPEAUplatform_work_queue@@PEAX@Z 000000018006d738     dolphin.obj
 0004:00000744       $pdata$?LoadSoundWork@@YAXPEAUplatform_work_queue@@PEAX@Z 000000018006d744     dolphin.obj
 0004:00000750       $pdata$?GetBestMatchAssetFrom@@YAIPEAUgame_assets@@W4asset_type_id@@PEAUasset_vector@@2@Z 000000018006d750     dolphin.obj
 0004:0000075c       $pdata$?GetFirstSlotFrom@@YAIPEAUgame_assets@@W4asset_type_id@@@Z 000000018006d75c     dolphin.obj
 0004:00000768       $pdata$?DEBUGAddBitmapInfo@@YA?AUbitmap_id@@PEAUgame_assets@@PEADTgdVec2@@@Z 000000018006d768     dolphin.obj
 0004:00000774       $pdata$?DEBUGAddSoundInfo@@YA?AUsound_id@@PEAUgame_assets@@PEADII@Z 000000018006d774     dolphin.obj
 0004:00000780       $pdata$?AddBitmapAsset@@YAXPEAUgame_assets@@PEADTgdVec2@@@Z 000000018006d780     dolphin.obj
 0004:0000078c       $pdata$?AddSoundAsset@@YAPEAUasset@@PEAUgame_assets@@PEADII@Z 000000018006d78c     dolphin.obj
 0004:00000798       $pdata$?AddTag@@YAXPEAUgame_assets@@W4asset_tag_id@@M@Z 000000018006d798     dolphin.obj
 0004:000007a4       $pdata$?AllocateGameAssets@@YAPEAUgame_assets@@PEAUmemory_arena@@_KPEAUtransient_state@@@Z 000000018006d7a4     dolphin.obj
 0004:000007b0       $pdata$?PlaySound@@YAPEAUplaying_sound@@PEAUaudio_state@@Usound_id@@@Z 000000018006d7b0     dolphin.obj
 0004:000007bc       $pdata$?OutputPlayingSounds@@YAXPEAUaudio_state@@PEAUgame_sound_output_buffer@@PEAUgame_assets@@PEAUmemory_arena@@@Z 000000018006d7bc     dolphin.obj
 0004:000007c8       $pdata$?InitializeAudioState@@YAXPEAUaudio_state@@PEAUmemory_arena@@@Z 000000018006d7c8     dolphin.obj
 0004:000007d4       $pdata$?MakeEmptyBitmap@@YA?AUloaded_bitmap@@PEAUmemory_arena@@HH@Z 000000018006d7d4     dolphin.obj
 0004:000007e0       $pdata$GameUpdateAndRender 000000018006d7e0     dolphin.obj
 0004:000007ec       $pdata$GameGetSoundSamples 000000018006d7ec     dolphin.obj
 0004:000007f8       $pdata$??D@YA?ATgdVec2@@MT0@@Z 000000018006d7f8     dolphin.obj
 0004:00000804       $pdata$??D@YA?ATgdVec2@@T0@M@Z 000000018006d804     dolphin.obj
 0004:00000810       $pdata$??D@YA?ATgdVec3@@T0@M@Z 000000018006d810     dolphin.obj
 0004:0000081c       $pdata$??D@YA?AUvolume_v2@@MU0@@Z 000000018006d81c     dolphin.obj
 0004:00000828       $pdata$??G@YA?ATgdVec3@@T0@0@Z 000000018006d828     dolphin.obj
 0004:00000834       $pdata$??H@YA?ATgdVec2@@T0@0@Z 000000018006d834     dolphin.obj
 0004:00000840       $pdata$??H@YA?ATgdVec3@@T0@0@Z 000000018006d840     dolphin.obj
 0004:0000084c       $pdata$??X@YAAEATgdVec3@@AEAT0@M@Z 000000018006d84c     dolphin.obj
 0004:00000858       $pdata$??Y@YAAEAUvolume_v2@@AEAU0@U0@@Z 000000018006d858     dolphin.obj
 0004:00000864       $pdata$?AtomicCompareExchangeUInt32@@YAIPECIII@Z 000000018006d864     dolphin.obj
 0004:00000870       $pdata$?BeginTemporaryMemory@@YA?AUtemporary_memory@@PEAUmemory_arena@@@Z 000000018006d870     dolphin.obj
 0004:0000087c       $pdata$?EndTemporaryMemory@@YAXUtemporary_memory@@@Z 000000018006d87c     dolphin.obj
 0004:00000888       $pdata$?FloorReal32ToInt32@@YAHM@Z 000000018006d888     dolphin.obj
 0004:00000894       $pdata$?GetAlignmentOffset@@YA_KPEAUmemory_arena@@_K@Z 000000018006d894     dolphin.obj
 0004:000008a0       $pdata$?GetBestMatchBitmapFrom@@YA?AUbitmap_id@@PEAUgame_assets@@W4asset_type_id@@PEAUasset_vector@@2@Z 000000018006d8a0     dolphin.obj
 0004:000008ac       $pdata$?GetBitmap@@YAPEAUloaded_bitmap@@PEAUgame_assets@@Ubitmap_id@@@Z 000000018006d8ac     dolphin.obj
 0004:000008b8       $pdata$?GetBitmapDim@@YA?AUbitmap_dimension@@PEAUrender_group@@PEAUloaded_bitmap@@MTgdVec3@@M@Z 000000018006d8b8     dolphin.obj
 0004:000008c4       $pdata$?GetChunkData@@YAPEAXUriff_iterator@@@Z 000000018006d8c4     dolphin.obj
 0004:000008d0       $pdata$?GetChunkDataSize@@YAIUriff_iterator@@@Z 000000018006d8d0     dolphin.obj
 0004:000008dc       $pdata$?GetFirstSoundFrom@@YA?AUsound_id@@PEAUgame_assets@@W4asset_type_id@@@Z 000000018006d8dc     dolphin.obj
 0004:000008dc       $pdata$?GetFirstBitmapFrom@@YA?AUbitmap_id@@PEAUgame_assets@@W4asset_type_id@@@Z 000000018006d8dc     dolphin.obj
 0004:000008e8       $pdata$?GetSound@@YAPEAUloaded_sound@@PEAUgame_assets@@Usound_id@@@Z 000000018006d8e8     dolphin.obj
 0004:000008f4       $pdata$?GetSoundInfo@@YAPEAUasset_sound_info@@PEAUgame_assets@@Usound_id@@@Z 000000018006d8f4     dolphin.obj
 0004:00000900       $pdata$?GetType@@YAIUriff_iterator@@@Z 000000018006d900     dolphin.obj
 0004:0000090c       $pdata$?IsValid@@YAHUriff_iterator@@@Z 000000018006d90c     dolphin.obj
 0004:00000918       $pdata$?IsValid@@YAHUsound_id@@@Z 000000018006d918     dolphin.obj
 0004:00000924       $pdata$?Linear1ToSRGB255@@YA?ATgdVec4@@T1@@Z 000000018006d924     dolphin.obj
 0004:00000930       $pdata$?NextChunk@@YA?AUriff_iterator@@U1@@Z 000000018006d930     dolphin.obj
 0004:0000093c       $pdata$?ParseChunkAt@@YA?AUriff_iterator@@PEAX0@Z 000000018006d93c     dolphin.obj
 0004:00000948       $pdata$?PrefetchSound@@YAXPEAUgame_assets@@Usound_id@@@Z 000000018006d948     dolphin.obj
 0004:00000954       $pdata$?PushBitmap@@YAXPEAUrender_group@@PEAUloaded_bitmap@@MTgdVec3@@TgdVec4@@M@Z 000000018006d954     dolphin.obj
 0004:00000960       $pdata$?PushBitmap@@YAXPEAUrender_group@@Ubitmap_id@@MTgdVec3@@TgdVec4@@M@Z 000000018006d960     dolphin.obj
 0004:0000096c       $pdata$?PushClear@@YAXPEAUrender_group@@TgdVec4@@@Z 000000018006d96c     dolphin.obj
 0004:00000978       $pdata$?PushRectangle@@YAXPEAUrender_group@@TgdVec3@@TgdVec2@@TgdVec4@@@Z 000000018006d978     dolphin.obj
 0004:00000984       $pdata$?PushRectangleOutline@@YAXPEAUrender_group@@TgdVec3@@TgdVec2@@TgdVec4@@M@Z 000000018006d984     dolphin.obj
 0004:00000990       $pdata$?PushRenderElement_@@YAPEAXPEAUrender_group@@IW4render_group_entry_type@@@Z 000000018006d990     dolphin.obj
 0004:0000099c       $pdata$?PushSize_@@YAPEAXPEAUmemory_arena@@_K1@Z 000000018006d99c     dolphin.obj
 0004:000009a8       $pdata$?PushString@@YAPEADPEAUmemory_arena@@PEAD@Z 000000018006d9a8     dolphin.obj
 0004:000009b4       $pdata$?RenderRectangle@@YAXPEAUloaded_bitmap@@TgdVec2@@1TgdVec4@@UgdRect2i@@@Z 000000018006d9b4     dolphin.obj
 0004:000009c0       $pdata$?RenderRectangleQuickly@@YAXPEAUloaded_bitmap@@TgdVec2@@110TgdVec4@@UgdRect2i@@@Z 000000018006d9c0     dolphin.obj
 0004:000009cc       $pdata$?RoundReal32ToInt32@@YAHM@Z 000000018006d9cc     dolphin.obj
 0004:000009d8       $pdata$?RoundReal32ToUInt32@@YAIM@Z 000000018006d9d8     dolphin.obj
 0004:000009e4       $pdata$?SRGB255ToLinear1@@YA?ATgdVec4@@T1@@Z 000000018006d9e4     dolphin.obj
 0004:000009f0       $pdata$?SafeRatio0@@YAMMM@Z 000000018006d9f0     dolphin.obj
 0004:000009fc       $pdata$?SafeRatioN@@YAMMMM@Z 000000018006d9fc     dolphin.obj
 0004:00000a08       $pdata$?SubArena@@YAXPEAUmemory_arena@@0_K1@Z 000000018006da08     dolphin.obj
 0004:00000a14       $pdata$?ldexp@@YAMMH@Z     000000018006da14     dolphin.obj
 0004:00000a20       $pdata$?pow@@YAMMM@Z       000000018006da20     dolphin.obj
 0004:00000a2c       $pdata$?volume_v2_add@@YA?AUvolume_v2@@U1@0@Z 000000018006da2c     dolphin.obj
 0004:00000a38       $pdata$?volume_v2_init@@YA?AUvolume_v2@@MM@Z 000000018006da38     dolphin.obj
 0004:00000a44       $pdata$ldexpf              000000018006da44     dolphin.obj
 0004:00000a50       $pdata$feof                000000018006da50     LIBCMTD:feoferr.obj
 0004:00000a5c       $pdata$_fread_nolock_s     000000018006da5c     LIBCMTD:fread.obj
 0004:00000a68       $pdata$fread               000000018006da68     LIBCMTD:fread.obj
 0004:00000a74       $pdata$fread_s             000000018006da74     LIBCMTD:fread.obj
 0004:00000a80       $pdata$_fseek_nolock       000000018006da80     LIBCMTD:fseek.obj
 0004:00000a8c       $pdata$fseek               000000018006da8c     LIBCMTD:fseek.obj
 0004:00000a98       $pdata$ldexp               000000018006da98     LIBCMTD:ldexp.obj
 0004:00000aa4       $pdata$roundf              000000018006daa4     LIBCMTD:roundf.obj
 0004:00000ab0       $pdata$free                000000018006dab0     LIBCMTD:dbgfree.obj
 0004:00000abc       $pdata$malloc              000000018006dabc     LIBCMTD:dbgmalloc.obj
 0004:00000ac8       $pdata$realloc             000000018006dac8     LIBCMTD:dbgrealloc.obj
 0004:00000ad4       $pdata$??0_LocaleUpdate@@QEAA@PEAUlocaleinfo_struct@@@Z 000000018006dad4     LIBCMTD:strtol.obj
 0004:00000ae0       $pdata$?strtoxl@@YAKPEAUlocaleinfo_struct@@PEBDPEAPEBDHH@Z 000000018006dae0     LIBCMTD:strtol.obj
 0004:00000aec       $pdata$strtol              000000018006daec     LIBCMTD:strtol.obj
 0004:00000b04       $pdata$_invoke_watson_if_error 000000018006db04     LIBCMTD:wassert.obj
 0004:00000b10       $pdata$_wassert            000000018006db10     LIBCMTD:wassert.obj
 0004:00000b1c       $pdata$swprintf            000000018006db1c     LIBCMTD:wassert.obj
 0004:00000b28       $pdata$__GSHandlerCheck    000000018006db28     LIBCMTD:gshandler.obj
 0004:00000b34       $pdata$__GSHandlerCheckCommon 000000018006db34     LIBCMTD:gshandler.obj
 0004:00000b64       $pdata$floorf              000000018006db64     LIBCMTD:floorf.obj
 0004:00000b88       $pdata$sqrtf               000000018006db88     LIBCMTD:sqrtf.obj
 0004:00000b94       $pdata$_fpmath             000000018006db94     LIBCMTD:fpinit.obj
 0004:00000ba0       $pdata$_CRT_INIT           000000018006dba0     LIBCMTD:dllcrt0.obj
 0004:00000bac       $pdata$_DllMainCRTStartup  000000018006dbac     LIBCMTD:dllcrt0.obj
 0004:00000bb8       $pdata$__DllMainCRTStartup 000000018006dbb8     LIBCMTD:dllcrt0.obj
 0004:00000bc4       $pdata$__DllXcptFilter     000000018006dbc4     LIBCMTD:dllcrt0.obj
 0004:00000bd0       $pdata$_call_reportfault   000000018006dbd0     LIBCMTD:invarg.obj
 0004:00000bdc       $pdata$_invalid_parameter  000000018006dbdc     LIBCMTD:invarg.obj
 0004:00000be8       $pdata$_invoke_watson      000000018006dbe8     LIBCMTD:invarg.obj
 0004:00000bf4       $pdata$_CrtDbgReportW      000000018006dbf4     LIBCMTD:dbgrptw.obj
 0004:00000c00       $pdata$_CrtDbgReportWV     000000018006dc00     LIBCMTD:dbgrptw.obj
 0004:00000c0c       $pdata$__crtMessageWindowW 000000018006dc0c     LIBCMTD:dbgrptw.obj
 0004:00000c18       $pdata$_invoke_watson_if_oneof 000000018006dc18     LIBCMTD:dbgrptw.obj
 0004:00000c24       $pdata$__doserrno          000000018006dc24     LIBCMTD:dosmap.obj
 0004:00000c30       $pdata$_dosmaperr          000000018006dc30     LIBCMTD:dosmap.obj
 0004:00000c3c       $pdata$_errno              000000018006dc3c     LIBCMTD:dosmap.obj
 0004:00000c48       $pdata$_get_errno_from_oserr 000000018006dc48     LIBCMTD:dosmap.obj
 0004:00000c54       $pdata$_filbuf             000000018006dc54     LIBCMTD:_filbuf.obj
 0004:00000c60       $pdata$_fileno             000000018006dc60     LIBCMTD:fileno.obj
 0004:00000c6c       $pdata$__initstdio         000000018006dc6c     LIBCMTD:_file.obj
 0004:00000c78       $pdata$__endstdio          000000018006dc78     LIBCMTD:_file.obj
 0004:00000c84       $pdata$_lock_file          000000018006dc84     LIBCMTD:_file.obj
 0004:00000c90       $pdata$_lock_file2         000000018006dc90     LIBCMTD:_file.obj
 0004:00000c9c       $pdata$_unlock_file        000000018006dc9c     LIBCMTD:_file.obj
 0004:00000ca8       $pdata$_unlock_file2       000000018006dca8     LIBCMTD:_file.obj
 0004:00000cb4       $pdata$memcpy_s            000000018006dcb4     LIBCMTD:memcpy_s.obj
 0004:00000ccc       $pdata$_read               000000018006dccc     LIBCMTD:read.obj
 0004:00000cd8       $pdata$_read_nolock        000000018006dcd8     LIBCMTD:read.obj
 0004:00000ce4       $pdata$__C_specific_handler 000000018006dce4     LIBCMTD:chandler.obj
 0004:00000cf0       $pdata$_ftell_nolock       000000018006dcf0     LIBCMTD:ftell.obj
 0004:00000cfc       $pdata$_lseek              000000018006dcfc     LIBCMTD:lseek.obj
 0004:00000d08       $pdata$_lseek_nolock       000000018006dd08     LIBCMTD:lseek.obj
 0004:00000d14       $pdata$_fflush_nolock      000000018006dd14     LIBCMTD:fflush.obj
 0004:00000d20       $pdata$_flush              000000018006dd20     LIBCMTD:fflush.obj
 0004:00000d2c       $pdata$_flushall           000000018006dd2c     LIBCMTD:fflush.obj
 0004:00000d38       $pdata$fflush              000000018006dd38     LIBCMTD:fflush.obj
 0004:00000d44       $pdata$flsall              000000018006dd44     LIBCMTD:fflush.obj
 0004:00000d50       $pdata$_copysign           000000018006dd50     LIBCMTD:_copysign.obj
 0004:00000d5c       $pdata$_decomp             000000018006dd5c     LIBCMTD:util.obj
 0004:00000d68       $pdata$_set_exp            000000018006dd68     LIBCMTD:util.obj
 0004:00000d74       $pdata$_errcode            000000018006dd74     LIBCMTD:fpexcept.obj
 0004:00000d80       $pdata$_except2            000000018006dd80     LIBCMTD:fpexcept.obj
 0004:00000d8c       $pdata$_get_fname          000000018006dd8c     LIBCMTD:fpexcept.obj
 0004:00000d98       $pdata$_handle_exc         000000018006dd98     LIBCMTD:fpexcept.obj
 0004:00000da4       $pdata$_handle_qnan2       000000018006dda4     LIBCMTD:fpexcept.obj
 0004:00000db0       $pdata$_raise_exc          000000018006ddb0     LIBCMTD:fpexcept.obj
 0004:00000dbc       $pdata$_raise_exc_ex       000000018006ddbc     LIBCMTD:fpexcept.obj
 0004:00000dc8       $pdata$_raise_excf         000000018006ddc8     LIBCMTD:fpexcept.obj
 0004:00000dd4       $pdata$_set_errno_from_matherr 000000018006ddd4     LIBCMTD:fpexcept.obj
 0004:00000de0       $pdata$_umatherr           000000018006dde0     LIBCMTD:fpexcept.obj
 0004:00000dec       $pdata$_clrfp              000000018006ddec     LIBCMTD:fpctrl.obj
 0004:00000df8       $pdata$_ctrlfp             000000018006ddf8     LIBCMTD:fpctrl.obj
 0004:00000e04       $pdata$_set_statfp         000000018006de04     LIBCMTD:fpctrl.obj
 0004:00000e10       $pdata$_statfp             000000018006de10     LIBCMTD:fpctrl.obj
 0004:00000e1c       $pdata$_fd_int             000000018006de1c     LIBCMTD:_test.obj
 0004:00000e28       $pdata$?_CrtMemDumpAllObjectsSince_stat@@YAXPEBU_CrtMemState@@PEAUlocaleinfo_struct@@@Z 000000018006de28     LIBCMTD:dbgheap.obj
 0004:00000e34       $pdata$?__crtIsBadReadPtr@@YAHPEBX_K@Z 000000018006de34     LIBCMTD:dbgheap.obj
 0004:00000e40       $pdata$CheckBytes          000000018006de40     LIBCMTD:dbgheap.obj
 0004:00000e4c       $pdata$_CrtCheckMemory     000000018006de4c     LIBCMTD:dbgheap.obj
 0004:00000e58       $pdata$_CrtDumpMemoryLeaks 000000018006de58     LIBCMTD:dbgheap.obj
 0004:00000e64       $pdata$_CrtIsValidHeapPointer 000000018006de64     LIBCMTD:dbgheap.obj
 0004:00000e70       $pdata$_CrtIsValidPointer  000000018006de70     LIBCMTD:dbgheap.obj
 0004:00000e7c       $pdata$_CrtMemCheckpoint   000000018006de7c     LIBCMTD:dbgheap.obj
 0004:00000e88       $pdata$_CrtMemDumpAllObjectsSince 000000018006de88     LIBCMTD:dbgheap.obj
 0004:00000e94       $pdata$_CrtSetCheckCount   000000018006de94     LIBCMTD:dbgheap.obj
 0004:00000ea0       $pdata$_CrtSetDbgFlag      000000018006dea0     LIBCMTD:dbgheap.obj
 0004:00000eac       $pdata$_CrtSetDumpClient   000000018006deac     LIBCMTD:dbgheap.obj
 0004:00000eb8       $pdata$_calloc_dbg         000000018006deb8     LIBCMTD:dbgheap.obj
 0004:00000ec4       $pdata$_calloc_dbg_impl    000000018006dec4     LIBCMTD:dbgheap.obj
 0004:00000ed0       $pdata$_free_dbg           000000018006ded0     LIBCMTD:dbgheap.obj
 0004:00000edc       $pdata$_free_dbg_nolock    000000018006dedc     LIBCMTD:dbgheap.obj
 0004:00000ee8       $pdata$_heap_alloc_dbg_impl 000000018006dee8     LIBCMTD:dbgheap.obj
 0004:00000ef4       $pdata$_malloc_dbg         000000018006def4     LIBCMTD:dbgheap.obj
 0004:00000f00       $pdata$_msize_dbg          000000018006df00     LIBCMTD:dbgheap.obj
 0004:00000f0c       $pdata$_nh_malloc_dbg      000000018006df0c     LIBCMTD:dbgheap.obj
 0004:00000f18       $pdata$_nh_malloc_dbg_impl 000000018006df18     LIBCMTD:dbgheap.obj
 0004:00000f24       $pdata$_printMemBlockData  000000018006df24     LIBCMTD:dbgheap.obj
 0004:00000f30       $pdata$_realloc_dbg        000000018006df30     LIBCMTD:dbgheap.obj
 0004:00000f3c       $pdata$realloc_help        000000018006df3c     LIBCMTD:dbgheap.obj
 0004:00000f48       $pdata$__addlocaleref      000000018006df48     LIBCMTD:localref.obj
 0004:00000f54       $pdata$__freetlocinfo      000000018006df54     LIBCMTD:localref.obj
 0004:00000f60       $pdata$__removelocaleref   000000018006df60     LIBCMTD:localref.obj
 0004:00000f6c       $pdata$__updatetlocinfo    000000018006df6c     LIBCMTD:localref.obj
 0004:00000f78       $pdata$_updatetlocinfoEx_nolock 000000018006df78     LIBCMTD:localref.obj
 0004:00000f84       $pdata$__initmbctable      000000018006df84     LIBCMTD:mbctype.obj
 0004:00000f90       $pdata$?CPtoLocaleName@@YAPEB_WH@Z 000000018006df90     LIBCMTD:mbctype.obj
 0004:00000f9c       $pdata$?getSystemCP@@YAHH@Z 000000018006df9c     LIBCMTD:mbctype.obj
 0004:00000fa8       $pdata$?setSBCS@@YAXPEAUthreadmbcinfostruct@@@Z 000000018006dfa8     LIBCMTD:mbctype.obj
 0004:00000fb4       $pdata$?setSBUpLow@@YAXPEAUthreadmbcinfostruct@@@Z 000000018006dfb4     LIBCMTD:mbctype.obj
 0004:00000fc0       $pdata$__updatetmbcinfo    000000018006dfc0     LIBCMTD:mbctype.obj
 0004:00000fcc       $pdata$_setmbcp            000000018006dfcc     LIBCMTD:mbctype.obj
 0004:00000fd8       $pdata$_setmbcp_nolock     000000018006dfd8     LIBCMTD:mbctype.obj
 0004:00000fe4       $pdata$_chvalidator        000000018006dfe4     LIBCMTD:isctype.obj
 0004:00000ff0       $pdata$_chvalidator_l      000000018006dff0     LIBCMTD:isctype.obj
 0004:00000ffc       $pdata$_isctype_l          000000018006dffc     LIBCMTD:isctype.obj
 0004:00001008       $pdata$_freefls            000000018006e008     LIBCMTD:tidtable.obj
 0004:00001014       $pdata$_freeptd            000000018006e014     LIBCMTD:tidtable.obj
 0004:00001020       $pdata$_getptd             000000018006e020     LIBCMTD:tidtable.obj
 0004:0000102c       $pdata$_getptd_noexit      000000018006e02c     LIBCMTD:tidtable.obj
 0004:00001038       $pdata$_initptd            000000018006e038     LIBCMTD:tidtable.obj
 0004:00001044       $pdata$_mtinit             000000018006e044     LIBCMTD:tidtable.obj
 0004:00001050       $pdata$_mtterm             000000018006e050     LIBCMTD:tidtable.obj
 0004:0000105c       $pdata$?_CatchTryBlock@@YAPEBU_s_TryBlockMapEntry@@PEBU_s_FuncInfo@@H@Z 000000018006e05c     LIBCMTD:trnsctrl.obj
 0004:00001068       $pdata$?_GetEstablisherFrame@@YAPEA_KPEA_KPEAU_xDISPATCHER_CONTEXT@@PEBU_s_FuncInfo@@0@Z 000000018006e068     LIBCMTD:trnsctrl.obj
 0004:00001074       $pdata$?_GetRangeOfTrysToCheck@@YAPEBU_s_TryBlockMapEntry@@PEA_KPEBU_s_FuncInfo@@HHPEAI2PEAU_xDISPATCHER_CONTEXT@@@Z 000000018006e074     LIBCMTD:trnsctrl.obj
 0004:00001080       $pdata$?__FrameUnwindToEmptyState@@YAXPEA_KPEAU_xDISPATCHER_CONTEXT@@PEBU_s_FuncInfo@@@Z 000000018006e080     LIBCMTD:trnsctrl.obj
 0004:0000108c       $pdata$?__SehTransFilter@@YAHPEAU_EXCEPTION_POINTERS@@PEAUEHExceptionRecord@@PEA_KPEAU_CONTEXT@@PEAU_xDISPATCHER_CONTEXT@@PEBU_s_FuncInfo@@PEAH@Z 000000018006e08c     LIBCMTD:trnsctrl.obj
 0004:00001098       $pdata$_CallSETranslator   000000018006e098     LIBCMTD:trnsctrl.obj
 0004:000010a4       $pdata$_CreateFrameInfo    000000018006e0a4     LIBCMTD:trnsctrl.obj
 0004:000010b0       $pdata$_FindAndUnlinkFrame 000000018006e0b0     LIBCMTD:trnsctrl.obj
 0004:000010bc       $pdata$_GetImageBase       000000018006e0bc     LIBCMTD:trnsctrl.obj
 0004:000010c8       $pdata$_GetThrowImageBase  000000018006e0c8     LIBCMTD:trnsctrl.obj
 0004:000010d4       $pdata$_IsExceptionObjectToBeDestroyed 000000018006e0d4     LIBCMTD:trnsctrl.obj
 0004:000010e0       $pdata$_SetImageBase       000000018006e0e0     LIBCMTD:trnsctrl.obj
 0004:000010ec       $pdata$_SetThrowImageBase  000000018006e0ec     LIBCMTD:trnsctrl.obj
 0004:000010f8       $pdata$_UnwindNestedFrames 000000018006e0f8     LIBCMTD:trnsctrl.obj
 0004:00001104       $pdata$__CxxFrameHandler3  000000018006e104     LIBCMTD:trnsctrl.obj
 0004:00001110       $pdata$_locterm            000000018006e110     LIBCMTD:wsetloca.obj
 0004:0000111c       $pdata$__raise_securityfailure 000000018006e11c     LIBCMTD:gs_report.obj
 0004:00001128       $pdata$__report_gsfailure  000000018006e128     LIBCMTD:gs_report.obj
 0004:00001134       $pdata$__report_rangecheckfailure 000000018006e134     LIBCMTD:gs_report.obj
 0004:00001140       $pdata$__report_securityfailure 000000018006e140     LIBCMTD:gs_report.obj
 0004:0000114c       $pdata$wcscat_s            000000018006e14c     LIBCMTD:wcscat_s.obj
 0004:00001158       $pdata$wcscpy_s            000000018006e158     LIBCMTD:wcscpy_s.obj
 0004:00001164       $pdata$wcslen              000000018006e164     LIBCMTD:wcslen.obj
 0004:00001170       $pdata$wcsncat_s           000000018006e170     LIBCMTD:wcsncat_s.obj
 0004:0000117c       $pdata$__crtCorExitProcess 000000018006e17c     LIBCMTD:crt0dat.obj
 0004:00001188       $pdata$__crtExitProcess    000000018006e188     LIBCMTD:crt0dat.obj
 0004:00001194       $pdata$__freeCrtMemory     000000018006e194     LIBCMTD:crt0dat.obj
 0004:000011a0       $pdata$_amsg_exit          000000018006e1a0     LIBCMTD:crt0dat.obj
 0004:000011ac       $pdata$_cexit              000000018006e1ac     LIBCMTD:crt0dat.obj
 0004:000011b8       $pdata$_cinit              000000018006e1b8     LIBCMTD:crt0dat.obj
 0004:000011c4       $pdata$_exit               000000018006e1c4     LIBCMTD:crt0dat.obj
 0004:000011d0       $pdata$_init_pointers      000000018006e1d0     LIBCMTD:crt0dat.obj
 0004:000011dc       $pdata$_initterm           000000018006e1dc     LIBCMTD:crt0dat.obj
 0004:000011e8       $pdata$_initterm_e         000000018006e1e8     LIBCMTD:crt0dat.obj
 0004:000011f4       $pdata$_lockexit           000000018006e1f4     LIBCMTD:crt0dat.obj
 0004:00001200       $pdata$_unlockexit         000000018006e200     LIBCMTD:crt0dat.obj
 0004:0000120c       $pdata$doexit              000000018006e20c     LIBCMTD:crt0dat.obj
 0004:00001218       $pdata$abort               000000018006e218     LIBCMTD:abort.obj
 0004:00001224       $pdata$_set_error_mode     000000018006e224     LIBCMTD:errmode.obj
 0004:00001230       $pdata$_itow_s             000000018006e230     LIBCMTD:xtows.obj
 0004:0000123c       $pdata$xtow_s              000000018006e23c     LIBCMTD:xtows.obj
 0004:00001248       $pdata$setvbuf             000000018006e248     LIBCMTD:setvbuf.obj
 0004:00001254       $pdata$fwprintf            000000018006e254     LIBCMTD:fwprintf.obj
 0004:00001260       $pdata$_vsnwprintf_s       000000018006e260     LIBCMTD:vswprnc.obj
 0004:0000126c       $pdata$_vsnwprintf_s_l     000000018006e26c     LIBCMTD:vswprnc.obj
 0004:00001278       $pdata$_vswprintf_c_l      000000018006e278     LIBCMTD:vswprnc.obj
 0004:00001284       $pdata$_vswprintf_helper   000000018006e284     LIBCMTD:vswprnc.obj
 0004:00001290       $pdata$__get_sigabrt       000000018006e290     LIBCMTD:winsig.obj
 0004:0000129c       $pdata$raise               000000018006e29c     LIBCMTD:winsig.obj
 0004:000012a8       $pdata$siglookup           000000018006e2a8     LIBCMTD:winsig.obj
 0004:000012b4       $pdata$__crtMessageBoxW    000000018006e2b4     LIBCMTD:crtmboxw.obj
 0004:000012c0       $pdata$__crtMessageBoxWaitThreadW 000000018006e2c0     LIBCMTD:crtmboxw.obj
 0004:000012cc       $pdata$_FF_MSGBANNER       000000018006e2cc     LIBCMTD:crt0msg.obj
 0004:000012d8       $pdata$_GET_RTERRMSG       000000018006e2d8     LIBCMTD:crt0msg.obj
 0004:000012e4       $pdata$_NMSG_WRITE         000000018006e2e4     LIBCMTD:crt0msg.obj
 0004:00001314       $pdata$_cosf_special       000000018006e314     LIBCMTD:sincos_special.obj
 0004:00001320       $pdata$_sincosf_special    000000018006e320     LIBCMTD:sincos_special.obj
 0004:0000132c       $pdata$_sinf_special       000000018006e32c     LIBCMTD:sincos_special.obj
 0004:00001338       $pdata$__fma3_lib_init     000000018006e338     LIBCMTD:fma3_available.obj
 0004:00001344       $pdata$_call_matherr       000000018006e344     LIBCMTD:libm_error.obj
 0004:00001350       $pdata$_exception_enabled  000000018006e350     LIBCMTD:libm_error.obj
 0004:0000135c       $pdata$_handle_errorf      000000018006e35c     LIBCMTD:libm_error.obj
 0004:00001368       $pdata$_powf_special       000000018006e368     LIBCMTD:pow_special.obj
 0004:00001380       $pdata$?strrchr@@YAPEADPEADH@Z 000000018006e380     LIBCMTD:cvt.obj
 0004:0000138c       $pdata$_cfltcvt            000000018006e38c     LIBCMTD:cvt.obj
 0004:00001398       $pdata$_cfltcvt_l          000000018006e398     LIBCMTD:cvt.obj
 0004:000013a4       $pdata$_cftoa_l            000000018006e3a4     LIBCMTD:cvt.obj
 0004:000013b0       $pdata$_cftoe              000000018006e3b0     LIBCMTD:cvt.obj
 0004:000013bc       $pdata$_cftoe2_l           000000018006e3bc     LIBCMTD:cvt.obj
 0004:000013c8       $pdata$_cftoe_l            000000018006e3c8     LIBCMTD:cvt.obj
 0004:000013d4       $pdata$_cftof2_l           000000018006e3d4     LIBCMTD:cvt.obj
 0004:000013e0       $pdata$_cftof_l            000000018006e3e0     LIBCMTD:cvt.obj
 0004:000013ec       $pdata$_cftog_l            000000018006e3ec     LIBCMTD:cvt.obj
 0004:000013f8       $pdata$_cropzeros          000000018006e3f8     LIBCMTD:cvt.obj
 0004:00001404       $pdata$_cropzeros_l        000000018006e404     LIBCMTD:cvt.obj
 0004:00001410       $pdata$_fassign            000000018006e410     LIBCMTD:cvt.obj
 0004:0000141c       $pdata$_fassign_l          000000018006e41c     LIBCMTD:cvt.obj
 0004:00001428       $pdata$_forcdecpt          000000018006e428     LIBCMTD:cvt.obj
 0004:00001434       $pdata$_forcdecpt_l        000000018006e434     LIBCMTD:cvt.obj
 0004:00001440       $pdata$_positive           000000018006e440     LIBCMTD:cvt.obj
 0004:0000144c       $pdata$_shift              000000018006e44c     LIBCMTD:cvt.obj
 0004:00001458       $pdata$_initp_misc_cfltcvt_tab 000000018006e458     LIBCMTD:cmiscdat.obj
 0004:00001464       $pdata$_XcptFilter         000000018006e464     LIBCMTD:winxfltr.obj
 0004:00001470       $pdata$__CppXcptFilter     000000018006e470     LIBCMTD:winxfltr.obj
 0004:0000147c       $pdata$xcptlookup          000000018006e47c     LIBCMTD:winxfltr.obj
 0004:00001488       $pdata$_heap_init          000000018006e488     LIBCMTD:heapinit.obj
 0004:00001494       $pdata$_ioinit             000000018006e494     LIBCMTD:ioinit.obj
 0004:000014a0       $pdata$_ioterm             000000018006e4a0     LIBCMTD:ioinit.obj
 0004:000014ac       $pdata$_setargv            000000018006e4ac     LIBCMTD:stdargv.obj
 0004:000014b8       $pdata$parse_cmdline       000000018006e4b8     LIBCMTD:stdargv.obj
 0004:000014c4       $pdata$_setenvp            000000018006e4c4     LIBCMTD:stdenvp.obj
 0004:000014d0       $pdata$__security_init_cookie 000000018006e4d0     LIBCMTD:gs_support.obj
 0004:000014dc       $pdata$__crtGetEnvironmentStringsA 000000018006e4dc     LIBCMTD:a_env.obj
 0004:000014e8       $pdata$__IsPackagedAppHelper 000000018006e4e8     LIBCMTD:winapisupp.obj
 0004:000014f4       $pdata$__crtCaptureCurrentContext 000000018006e4f4     LIBCMTD:winapisupp.obj
 0004:00001500       $pdata$__crtCapturePreviousContext 000000018006e500     LIBCMTD:winapisupp.obj
 0004:0000150c       $pdata$__crtFlsAlloc       000000018006e50c     LIBCMTD:winapisupp.obj
 0004:00001518       $pdata$__crtFlsFree        000000018006e518     LIBCMTD:winapisupp.obj
 0004:00001524       $pdata$__crtFlsGetValue    000000018006e524     LIBCMTD:winapisupp.obj
 0004:00001530       $pdata$__crtFlsSetValue    000000018006e530     LIBCMTD:winapisupp.obj
 0004:0000153c       $pdata$__crtInitializeCriticalSectionEx 000000018006e53c     LIBCMTD:winapisupp.obj
 0004:00001548       $pdata$__crtIsPackagedApp  000000018006e548     LIBCMTD:winapisupp.obj
 0004:00001554       $pdata$__crtLoadWinApiPointers 000000018006e554     LIBCMTD:winapisupp.obj
 0004:00001560       $pdata$__crtTerminateProcess 000000018006e560     LIBCMTD:winapisupp.obj
 0004:0000156c       $pdata$__crtUnhandledException 000000018006e56c     LIBCMTD:winapisupp.obj
 0004:00001578       $pdata$_RTC_Initialize     000000018006e578     LIBCMTD:initsect.obj
 0004:00001584       $pdata$_RTC_Terminate      000000018006e584     LIBCMTD:initsect.obj
 0004:00001590       $pdata$_lock               000000018006e590     LIBCMTD:mlock.obj
 0004:0000159c       $pdata$_mtdeletelocks      000000018006e59c     LIBCMTD:mlock.obj
 0004:000015a8       $pdata$_mtinitlocknum      000000018006e5a8     LIBCMTD:mlock.obj
 0004:000015b4       $pdata$_mtinitlocks        000000018006e5b4     LIBCMTD:mlock.obj
 0004:000015c0       $pdata$_unlock             000000018006e5c0     LIBCMTD:mlock.obj
 0004:000015cc       $pdata$_snwprintf_s        000000018006e5cc     LIBCMTD:swprintf.obj
 0004:000015d8       $pdata$_VCrtDbgReportA     000000018006e5d8     LIBCMTD:dbgrptt.obj
 0004:000015e4       $pdata$_VCrtDbgReportW     000000018006e5e4     LIBCMTD:dbgrptt.obj
 0004:000015f0       $pdata$_getbuf             000000018006e5f0     LIBCMTD:_getbuf.obj
 0004:000015fc       $pdata$_fcloseall          000000018006e5fc     LIBCMTD:closeall.obj
 0004:00001614       $pdata$__isa_available_init 000000018006e614     LIBCMTD:cpu_disp.obj
 0004:00001620       $pdata$_isatty             000000018006e620     LIBCMTD:isatty.obj
 0004:0000162c       $pdata$__lock_fhandle      000000018006e62c     LIBCMTD:osfinfo.obj
 0004:00001638       $pdata$_free_osfhnd        000000018006e638     LIBCMTD:osfinfo.obj
 0004:00001644       $pdata$_get_osfhandle      000000018006e644     LIBCMTD:osfinfo.obj
 0004:00001650       $pdata$_unlock_fhandle     000000018006e650     LIBCMTD:osfinfo.obj
 0004:0000165c       $pdata$_lseeki64           000000018006e65c     LIBCMTD:lseeki64.obj
 0004:00001668       $pdata$_lseeki64_nolock    000000018006e668     LIBCMTD:lseeki64.obj
 0004:000016a4       $pdata$_FindPESection      000000018006e6a4     LIBCMTD:pesect.obj
 0004:000016b0       $pdata$_IsNonwritableInCurrentImage 000000018006e6b0     LIBCMTD:pesect.obj
 0004:000016bc       $pdata$_ValidateImageBase  000000018006e6bc     LIBCMTD:pesect.obj
 0004:000016c8       $pdata$_commit             000000018006e6c8     LIBCMTD:commit.obj
 0004:000016d4       $pdata$_write              000000018006e6d4     LIBCMTD:write.obj
 0004:000016e0       $pdata$_write_nolock       000000018006e6e0     LIBCMTD:write.obj
 0004:000016f8       $pdata$_free_base          000000018006e6f8     LIBCMTD:free.obj
 0004:00001704       $pdata$_realloc_base       000000018006e704     LIBCMTD:realloc.obj
 0004:00001710       $pdata$_expand_base        000000018006e710     LIBCMTD:expand.obj
 0004:0000171c       $pdata$_is_LFH_enabled     000000018006e71c     LIBCMTD:expand.obj
 0004:00001728       $pdata$_CrtDbgReport       000000018006e728     LIBCMTD:dbgrpt.obj
 0004:00001734       $pdata$_CrtDbgReportV      000000018006e734     LIBCMTD:dbgrpt.obj
 0004:00001740       $pdata$__crtMessageWindowA 000000018006e740     LIBCMTD:dbgrpt.obj
 0004:0000174c       $pdata$_callnewh           000000018006e74c     LIBCMTD:handler.obj
 0004:00001758       $pdata$_heapchk            000000018006e758     LIBCMTD:heapchk.obj
 0004:00001764       $pdata$_snprintf_s         000000018006e764     LIBCMTD:sprintf.obj
 0004:00001770       $pdata$sprintf_s           000000018006e770     LIBCMTD:sprintf.obj
 0004:0000177c       $pdata$_heap_alloc_base    000000018006e77c     LIBCMTD:malloc.obj
 0004:00001788       $pdata$_malloc_base        000000018006e788     LIBCMTD:malloc.obj
 0004:00001794       $pdata$__free_lconv_mon    000000018006e794     LIBCMTD:initmon.obj
 0004:000017a0       $pdata$__free_lconv_num    000000018006e7a0     LIBCMTD:initnum.obj
 0004:000017ac       $pdata$__free_lc_time      000000018006e7ac     LIBCMTD:inittime.obj
 0004:000017b8       $pdata$?__crtLCMapStringA_stat@@YAHPEAUlocaleinfo_struct@@PEB_WKPEBDHPEADHHH@Z 000000018006e7b8     LIBCMTD:a_map.obj
 0004:000017c4       $pdata$?strncnt@@YAHPEBDH@Z 000000018006e7c4     LIBCMTD:a_map.obj
 0004:000017d0       $pdata$_MallocaIsSizeInRange 000000018006e7d0     LIBCMTD:a_map.obj
 0004:000017dc       $pdata$__crtLCMapStringA   000000018006e7dc     LIBCMTD:a_map.obj
 0004:000017e8       $pdata$_freea              000000018006e7e8     LIBCMTD:a_map.obj
 0004:000017f4       $pdata$?__crtGetStringTypeA_stat@@YAHPEAUlocaleinfo_struct@@KPEBDHPEAGHH@Z 000000018006e7f4     LIBCMTD:a_str.obj
 0004:00001800       $pdata$__crtGetStringTypeA 000000018006e800     LIBCMTD:a_str.obj
 0004:0000180c       $pdata$_isleadbyte_l       000000018006e80c     LIBCMTD:_wctype.obj
 0004:00001818       $pdata$isleadbyte          000000018006e818     LIBCMTD:_wctype.obj
 0004:00001824       $pdata$__DestructExceptionObject 000000018006e824     LIBCMTD:frame.obj
 0004:00001830       $pdata$??0bad_exception@std@@QEAA@AEBV01@@Z 000000018006e830     LIBCMTD:frame.obj
 0004:0000183c       $pdata$??0bad_exception@std@@QEAA@PEBD@Z 000000018006e83c     LIBCMTD:frame.obj
 0004:00001848       $pdata$??1bad_exception@std@@UEAA@XZ 000000018006e848     LIBCMTD:frame.obj
 0004:00001854       $pdata$??_Gbad_exception@std@@UEAAPEAXI@Z 000000018006e854     LIBCMTD:frame.obj
 0004:00001860       $pdata$?CatchIt@@YAXPEAUEHExceptionRecord@@PEA_KPEAU_CONTEXT@@PEAU_xDISPATCHER_CONTEXT@@PEBU_s_FuncInfo@@PEBU_s_HandlerType@@PEBU_s_CatchableType@@PEBU_s_TryBlockMapEntry@@H1EE@Z 000000018006e860     LIBCMTD:frame.obj
 0004:0000186c       $pdata$?ExFilterRethrow@@YAHPEAU_EXCEPTION_POINTERS@@PEAUEHExceptionRecord@@PEAH@Z 000000018006e86c     LIBCMTD:frame.obj
 0004:00001878       $pdata$?FindHandler@@YAXPEAUEHExceptionRecord@@PEA_KPEAU_CONTEXT@@PEAU_xDISPATCHER_CONTEXT@@PEBU_s_FuncInfo@@EH1@Z 000000018006e878     LIBCMTD:frame.obj
 0004:00001884       $pdata$?FindHandlerForForeignException@@YAXPEAUEHExceptionRecord@@PEA_KPEAU_CONTEXT@@PEAU_xDISPATCHER_CONTEXT@@PEBU_s_FuncInfo@@HH1@Z 000000018006e884     LIBCMTD:frame.obj
 0004:00001890       $pdata$?IsInExceptionSpec@@YAEPEAUEHExceptionRecord@@PEBU_s_ESTypeList@@@Z 000000018006e890     LIBCMTD:frame.obj
 0004:0000189c       $pdata$?Is_bad_exception_allowed@@YAEPEBU_s_ESTypeList@@@Z 000000018006e89c     LIBCMTD:frame.obj
 0004:000018a8       $pdata$?__RethrowException@@YAXPEAUEHExceptionRecord@@@Z 000000018006e8a8     LIBCMTD:frame.obj
 0004:000018b4       $pdata$__AdjustPointer     000000018006e8b4     LIBCMTD:frame.obj
 0004:000018c0       $pdata$__BuildCatchObject  000000018006e8c0     LIBCMTD:frame.obj
 0004:000018cc       $pdata$__BuildCatchObjectHelper 000000018006e8cc     LIBCMTD:frame.obj
 0004:000018d8       $pdata$__CxxCallCatchBlock 000000018006e8d8     LIBCMTD:frame.obj
 0004:000018e4       $pdata$__FrameUnwindFilter 000000018006e8e4     LIBCMTD:frame.obj
 0004:000018f0       $pdata$__FrameUnwindToState 000000018006e8f0     LIBCMTD:frame.obj
 0004:000018fc       $pdata$__InternalCxxFrameHandler 000000018006e8fc     LIBCMTD:frame.obj
 0004:00001908       $pdata$__TypeMatch         000000018006e908     LIBCMTD:frame.obj
 0004:00001914       $pdata$?__GetCurrentState@@YAHPEA_KPEAU_xDISPATCHER_CONTEXT@@PEBU_s_FuncInfo@@@Z 000000018006e914     LIBCMTD:ehstate.obj
 0004:00001920       $pdata$?__GetUnwindTryBlock@@YAHPEA_KPEAU_xDISPATCHER_CONTEXT@@PEBU_s_FuncInfo@@@Z 000000018006e920     LIBCMTD:ehstate.obj
 0004:0000192c       $pdata$?__SetUnwindTryBlock@@YAXPEA_KPEAU_xDISPATCHER_CONTEXT@@PEBU_s_FuncInfo@@H@Z 000000018006e92c     LIBCMTD:ehstate.obj
 0004:00001938       $pdata$?__StateFromControlPc@@YAHPEBU_s_FuncInfo@@PEAU_xDISPATCHER_CONTEXT@@@Z 000000018006e938     LIBCMTD:ehstate.obj
 0004:00001944       $pdata$?__StateFromIp@@YAHPEBU_s_FuncInfo@@PEAU_xDISPATCHER_CONTEXT@@_J@Z 000000018006e944     LIBCMTD:ehstate.obj
 0004:00001950       $pdata$?_inconsistency@@YAXXZ 000000018006e950     LIBCMTD:hooks.obj
 0004:0000195c       $pdata$?terminate@@YAXXZ   000000018006e95c     LIBCMTD:hooks.obj
 0004:00001968       $pdata$_initp_eh_hooks     000000018006e968     LIBCMTD:hooks.obj
 0004:00001980       $pdata$wcsncpy_s           000000018006e980     LIBCMTD:wcsncpy_s.obj
 0004:0000198c       $pdata$GetTableIndexFromLocaleName 000000018006e98c     LIBCMTD:winapinls.obj
 0004:00001998       $pdata$__crtDownlevelLocaleNameToLCID 000000018006e998     LIBCMTD:winapinls.obj
 0004:000019a4       $pdata$__crtLCMapStringEx  000000018006e9a4     LIBCMTD:winapinls.obj
 0004:000019b0       $pdata$__wcsnicmp_ascii    000000018006e9b0     LIBCMTD:winapinls.obj
 0004:000019bc       $pdata$__onexitinit        000000018006e9bc     LIBCMTD:onexit.obj
 0004:000019c8       $pdata$_onexit             000000018006e9c8     LIBCMTD:onexit.obj
 0004:000019d4       $pdata$_onexit_nolock      000000018006e9d4     LIBCMTD:onexit.obj
 0004:000019e0       $pdata$atexit              000000018006e9e0     LIBCMTD:onexit.obj
 0004:000019ec       $pdata$_ftbuf              000000018006e9ec     LIBCMTD:_sftbuf.obj
 0004:000019f8       $pdata$_stbuf              000000018006e9f8     LIBCMTD:_sftbuf.obj
 0004:00001a04       $pdata$_freebuf            000000018006ea04     LIBCMTD:_freebuf.obj
 0004:00001a10       $pdata$_woutput_l          000000018006ea10     LIBCMTD:woutput.obj
 0004:00001a1c       $pdata$get_int64_arg       000000018006ea1c     LIBCMTD:woutput.obj
 0004:00001a28       $pdata$get_int_arg         000000018006ea28     LIBCMTD:woutput.obj
 0004:00001a34       $pdata$write_char          000000018006ea34     LIBCMTD:woutput.obj
 0004:00001a34       $pdata$write_char          000000018006ea34     LIBCMTD:woutput.obj
 0004:00001a40       $pdata$write_multi_char    000000018006ea40     LIBCMTD:woutput.obj
 0004:00001a40       $pdata$write_multi_char    000000018006ea40     LIBCMTD:woutput.obj
 0004:00001a4c       $pdata$write_string        000000018006ea4c     LIBCMTD:woutput.obj
 0004:00001a4c       $pdata$write_string        000000018006ea4c     LIBCMTD:woutput.obj
 0004:00001a58       $pdata$_flsbuf             000000018006ea58     LIBCMTD:_flsbuf.obj
 0004:00001a64       $pdata$_woutput_s_l        000000018006ea64     LIBCMTD:woutputs.obj
 0004:00001a7c       $pdata$_isdigit_l          000000018006ea7c     LIBCMTD:_ctype.obj
 0004:00001a88       $pdata$isdigit             000000018006ea88     LIBCMTD:_ctype.obj
 0004:00001a94       $pdata$_tolower_l          000000018006ea94     LIBCMTD:tolower.obj
 0004:00001aa0       $pdata$tolower             000000018006eaa0     LIBCMTD:tolower.obj
 0004:00001aac       $pdata$strcpy_s            000000018006eaac     LIBCMTD:strcpy_s.obj
 0004:00001ab8       $pdata$strrchr             000000018006eab8     LIBCMTD:strrchr.obj
 0004:00001ac4       $pdata$_fptostr            000000018006eac4     LIBCMTD:_fptostr.obj
 0004:00001ad0       $pdata$__crt_atoflt_l      000000018006ead0     LIBCMTD:atodbl.obj
 0004:00001adc       $pdata$_atodbl_l           000000018006eadc     LIBCMTD:atodbl.obj
 0004:00001ae8       $pdata$_atoflt_l           000000018006eae8     LIBCMTD:atodbl.obj
 0004:00001af4       $pdata$__dtold             000000018006eaf4     LIBCMTD:cfout.obj
 0004:00001b00       $pdata$_fltout2            000000018006eb00     LIBCMTD:cfout.obj
 0004:00001b0c       $pdata$_fptrap             000000018006eb0c     LIBCMTD:crt0fp.obj
 0004:00001b18       $pdata$?x_ismbbtype_l@@YAHPEAUlocaleinfo_struct@@IHH@Z 000000018006eb18     LIBCMTD:ismbbyte.obj
 0004:00001b24       $pdata$_ismbblead          000000018006eb24     LIBCMTD:ismbbyte.obj
 0004:00001b30       $pdata$strcat_s            000000018006eb30     LIBCMTD:strcat_s.obj
 0004:00001b3c       $pdata$_itoa_s             000000018006eb3c     LIBCMTD:xtoas.obj
 0004:00001b48       $pdata$xtoa_s              000000018006eb48     LIBCMTD:xtoas.obj
 0004:00001b54       $pdata$_mbstowcs_l_helper  000000018006eb54     LIBCMTD:mbstowcs.obj
 0004:00001b60       $pdata$_mbstowcs_s_l       000000018006eb60     LIBCMTD:mbstowcs.obj
 0004:00001b6c       $pdata$mbstowcs_s          000000018006eb6c     LIBCMTD:mbstowcs.obj
 0004:00001b78       $pdata$?wcsncnt@@YA_KPEB_W_K@Z 000000018006eb78     LIBCMTD:wcstombs.obj
 0004:00001b84       $pdata$_wcstombs_l_helper  000000018006eb84     LIBCMTD:wcstombs.obj
 0004:00001b90       $pdata$_wcstombs_s_l       000000018006eb90     LIBCMTD:wcstombs.obj
 0004:00001b9c       $pdata$wcstombs_s          000000018006eb9c     LIBCMTD:wcstombs.obj
 0004:00001ba8       $pdata$_vsnprintf_helper   000000018006eba8     LIBCMTD:vsnprnc.obj
 0004:00001bb4       $pdata$_vsnprintf_s        000000018006ebb4     LIBCMTD:vsnprnc.obj
 0004:00001bc0       $pdata$_vsnprintf_s_l      000000018006ebc0     LIBCMTD:vsnprnc.obj
 0004:00001bcc       $pdata$_vsprintf_s_l       000000018006ebcc     LIBCMTD:vsnprnc.obj
 0004:00001bd8       $pdata$__GSHandlerCheck_SEH 000000018006ebd8     LIBCMTD:gshandlerseh.obj
 0004:00001be4       $pdata$_fclose_nolock      000000018006ebe4     LIBCMTD:fclose.obj
 0004:00001bf0       $pdata$fclose              000000018006ebf0     LIBCMTD:fclose.obj
 0004:00001bfc       $pdata$_mbtowc_l           000000018006ebfc     LIBCMTD:mbtowc.obj
 0004:00001c08       $pdata$mbtowc              000000018006ec08     LIBCMTD:mbtowc.obj
 0004:00001c14       $pdata$_putwch_nolock      000000018006ec14     LIBCMTD:putwch.obj
 0004:00001c20       $pdata$get_short_arg       000000018006ec20     LIBCMTD:output.obj
 0004:00001c2c       $pdata$??3@YAXPEAX@Z       000000018006ec2c     LIBCMTD:dbgdel.obj
 0004:00001c44       $pdata$?_ValidateExecute@@YAHP6A_JXZ@Z 000000018006ec44     LIBCMTD:validate.obj
 0004:00001c50       $pdata$?_ValidateRead@@YAHPEBXI@Z 000000018006ec50     LIBCMTD:validate.obj
 0004:00001c50       $pdata$?_ValidateWrite@@YAHPEAXI@Z 000000018006ec50     LIBCMTD:validate.obj
 0004:00001c68       $pdata$??1type_info@@UEAA@XZ 000000018006ec68     LIBCMTD:typinfo.obj
 0004:00001c74       $pdata$??8type_info@@QEBA_NAEBV0@@Z 000000018006ec74     LIBCMTD:typinfo.obj
 0004:00001c80       $pdata$??_Gtype_info@@UEAAPEAXI@Z 000000018006ec80     LIBCMTD:typinfo.obj
 0004:00001c8c       $pdata$??0exception@std@@QEAA@AEBQEBD@Z 000000018006ec8c     LIBCMTD:stdexcpt.obj
 0004:00001c98       $pdata$??0exception@std@@QEAA@AEBV01@@Z 000000018006ec98     LIBCMTD:stdexcpt.obj
 0004:00001ca4       $pdata$??1exception@std@@UEAA@XZ 000000018006eca4     LIBCMTD:stdexcpt.obj
 0004:00001cb0       $pdata$??4exception@std@@QEAAAEAV01@AEBV01@@Z 000000018006ecb0     LIBCMTD:stdexcpt.obj
 0004:00001cbc       $pdata$??_Gexception@std@@UEAAPEAXI@Z 000000018006ecbc     LIBCMTD:stdexcpt.obj
 0004:00001cc8       $pdata$?_Copy_str@exception@std@@AEAAXPEBD@Z 000000018006ecc8     LIBCMTD:stdexcpt.obj
 0004:00001cd4       $pdata$?_Tidy@exception@std@@AEAAXXZ 000000018006ecd4     LIBCMTD:stdexcpt.obj
 0004:00001ce0       $pdata$?what@exception@std@@UEBAPEBDXZ 000000018006ece0     LIBCMTD:stdexcpt.obj
 0004:00001cec       $pdata$_CxxThrowException  000000018006ecec     LIBCMTD:throw.obj
 0004:00001cf8       $pdata$_get_printf_count_output 000000018006ecf8     LIBCMTD:printf.obj
 0004:00001d04       $pdata$_fputwc_nolock      000000018006ed04     LIBCMTD:fputwc.obj
 0004:00001d10       $pdata$_output_s_l         000000018006ed10     LIBCMTD:outputs.obj
 0004:00001d1c       $pdata$write_char          000000018006ed1c     LIBCMTD:outputs.obj
 0004:00001d28       $pdata$write_multi_char    000000018006ed28     LIBCMTD:outputs.obj
 0004:00001d34       $pdata$write_string        000000018006ed34     LIBCMTD:outputs.obj
 0004:00001d40       $pdata$_CopyMan            000000018006ed40     LIBCMTD:intrncvt.obj
 0004:00001d4c       $pdata$_FillZeroMan        000000018006ed4c     LIBCMTD:intrncvt.obj
 0004:00001d58       $pdata$_IncMan             000000018006ed58     LIBCMTD:intrncvt.obj
 0004:00001d64       $pdata$_IsZeroMan          000000018006ed64     LIBCMTD:intrncvt.obj
 0004:00001d70       $pdata$_RoundMan           000000018006ed70     LIBCMTD:intrncvt.obj
 0004:00001d7c       $pdata$_ShrMan             000000018006ed7c     LIBCMTD:intrncvt.obj
 0004:00001d88       $pdata$_ZeroTail           000000018006ed88     LIBCMTD:intrncvt.obj
 0004:00001d94       $pdata$__addl              000000018006ed94     LIBCMTD:intrncvt.obj
 0004:00001da0       $pdata$_ld12cvt            000000018006eda0     LIBCMTD:intrncvt.obj
 0004:00001dac       $pdata$_ld12tod            000000018006edac     LIBCMTD:intrncvt.obj
 0004:00001db8       $pdata$_ld12tof            000000018006edb8     LIBCMTD:intrncvt.obj
 0004:00001dc4       $pdata$__ld12mul           000000018006edc4     LIBCMTD:strgtold.obj
 0004:00001dd0       $pdata$__multtenpow12      000000018006edd0     LIBCMTD:strgtold.obj
 0004:00001ddc       $pdata$__shl_12            000000018006eddc     LIBCMTD:strgtold.obj
 0004:00001de8       $pdata$__shr_12            000000018006ede8     LIBCMTD:strgtold.obj
 0004:00001df4       $pdata$__strgtold12_l      000000018006edf4     LIBCMTD:strgtold.obj
 0004:00001e00       $pdata$$I10_OUTPUT         000000018006ee00     LIBCMTD:x10fout.obj
 0004:00001e0c       $pdata$__add_12            000000018006ee0c     LIBCMTD:x10fout.obj
 0004:00001e18       $pdata$_close              000000018006ee18     LIBCMTD:close.obj
 0004:00001e24       $pdata$_close_nolock       000000018006ee24     LIBCMTD:close.obj
 0004:00001e30       $pdata$__termconout        000000018006ee30     LIBCMTD:initcon.obj
 0004:00001e3c       $pdata$__initconout        000000018006ee3c     LIBCMTD:initcon.obj
 0004:00001e48       $pdata$_wctomb_s_l         000000018006ee48     LIBCMTD:wctomb.obj
 0004:00001e54       $pdata$wctomb_s            000000018006ee54     LIBCMTD:wctomb.obj
 0004:00001e60       $pdata$?_Type_info_dtor@type_info@@CAXPEAV1@@Z 000000018006ee60     LIBCMTD:typname.obj
 0004:00001e6c       $pdata$_flswbuf            000000018006ee6c     LIBCMTD:_flswbuf.obj
 0004:00001e78       $pdata$__mtold12           000000018006ee78     LIBCMTD:mantold.obj
 0004:00001e84       $pdata$fread_s$fin$0       000000018006ee84     LIBCMTD:fread.obj
 0004:00001e90       $pdata$fseek$fin$0         000000018006ee90     LIBCMTD:fseek.obj
 0004:00001e9c       $pdata$?dtor$0@?0??strtoxl@@YAKPEAUlocaleinfo_struct@@PEBDPEAPEBDHH@Z@4HA 000000018006ee9c     LIBCMTD:strtol.obj
 0004:00001ea8       $pdata$_CRT_INIT$fin$0     000000018006eea8     LIBCMTD:dllcrt0.obj
 0004:00001eb4       $pdata$__DllMainCRTStartup$filt$0 000000018006eeb4     LIBCMTD:dllcrt0.obj
 0004:00001ec0       $pdata$fflush$fin$0        000000018006eec0     LIBCMTD:fflush.obj
 0004:00001ecc       $pdata$flsall$fin$0        000000018006eecc     LIBCMTD:fflush.obj
 0004:00001ed8       $pdata$flsall$fin$1        000000018006eed8     LIBCMTD:fflush.obj
 0004:00001ee4       $pdata$_ctrlfp$filt$0      000000018006eee4     LIBCMTD:fpctrl.obj
 0004:00001ef0       $pdata$?filt$0@?0??__crtIsBadReadPtr@@YAHPEBX_K@Z@4HA 000000018006eef0     LIBCMTD:dbgheap.obj
 0004:00001ef0       $pdata$?filt$0@?0??terminate@@YAXXZ@4HA 000000018006eef0     LIBCMTD:dbgheap.obj
 0004:00001ef0       $pdata$__BuildCatchObject$filt$0 000000018006eef0     LIBCMTD:dbgheap.obj
 0004:00001ef0       $pdata$?filt$0@?0??_inconsistency@@YAXXZ@4HA 000000018006eef0     LIBCMTD:dbgheap.obj
 0004:00001ef0       $pdata$__BuildCatchObjectHelper$filt$0 000000018006eef0     LIBCMTD:dbgheap.obj
 0004:00001efc       $pdata$_CrtCheckMemory$fin$0 000000018006eefc     LIBCMTD:dbgheap.obj
 0004:00001f08       $pdata$_heap_alloc_dbg_impl$fin$0 000000018006ef08     LIBCMTD:dbgheap.obj
 0004:00001f08       $pdata$_CrtMemCheckpoint$fin$0 000000018006ef08     LIBCMTD:dbgheap.obj
 0004:00001f08       $pdata$?fin$0@?0??_CrtMemDumpAllObjectsSince_stat@@YAXPEBU_CrtMemState@@PEAUlocaleinfo_struct@@@Z@4HA 000000018006ef08     LIBCMTD:dbgheap.obj
 0004:00001f14       $pdata$_free_dbg$fin$0     000000018006ef14     LIBCMTD:dbgheap.obj
 0004:00001f20       $pdata$_realloc_dbg$fin$0  000000018006ef20     LIBCMTD:dbgheap.obj
 0004:00001f20       $pdata$_CrtSetDbgFlag$fin$0 000000018006ef20     LIBCMTD:dbgheap.obj
 0004:00001f20       $pdata$_msize_dbg$fin$0    000000018006ef20     LIBCMTD:dbgheap.obj
 0004:00001f20       $pdata$?fin$0@?0???3@YAXPEAX@Z@4HA 000000018006ef20     LIBCMTD:dbgheap.obj
 0004:00001f2c       $pdata$?dtor$0@?0??getSystemCP@@YAHH@Z@4HA 000000018006ef2c     LIBCMTD:mbctype.obj
 0004:00001f38       $pdata$__updatetmbcinfo$fin$0 000000018006ef38     LIBCMTD:mbctype.obj
 0004:00001f38       $pdata$_setmbcp$fin$0      000000018006ef38     LIBCMTD:mbctype.obj
 0004:00001f44       $pdata$_freefls$fin$0      000000018006ef44     LIBCMTD:tidtable.obj
 0004:00001f44       $pdata$_initptd$fin$0      000000018006ef44     LIBCMTD:tidtable.obj
 0004:00001f50       $pdata$_initptd$fin$1      000000018006ef50     LIBCMTD:tidtable.obj
 0004:00001f50       $pdata$_freefls$fin$1      000000018006ef50     LIBCMTD:tidtable.obj
 0004:00001f5c       $pdata$_CallSETranslator$filt$0 000000018006ef5c     LIBCMTD:trnsctrl.obj
 0004:00001f68       $pdata$_locterm$fin$0      000000018006ef68     LIBCMTD:wsetloca.obj
 0004:00001f68       $pdata$__updatetlocinfo$fin$0 000000018006ef68     LIBCMTD:wsetloca.obj
 0004:00001f74       $pdata$doexit$fin$0        000000018006ef74     LIBCMTD:crt0dat.obj
 0004:00001f80       $pdata$fwprintf$fin$0      000000018006ef80     LIBCMTD:fwprintf.obj
 0004:00001f8c       $pdata$raise$fin$0         000000018006ef8c     LIBCMTD:winsig.obj
 0004:00001f98       $pdata$_ioinit$fin$0       000000018006ef98     LIBCMTD:ioinit.obj
 0004:00001fa4       $pdata$__lock_fhandle$fin$0 000000018006efa4     LIBCMTD:mlock.obj
 0004:00001fa4       $pdata$_mtinitlocknum$fin$0 000000018006efa4     LIBCMTD:mlock.obj
 0004:00001fb0       $pdata$_VCrtDbgReportA$fin$0 000000018006efb0     LIBCMTD:dbgrptt.obj
 0004:00001fbc       $pdata$_VCrtDbgReportA$fin$1 000000018006efbc     LIBCMTD:dbgrptt.obj
 0004:00001fc8       $pdata$_VCrtDbgReportW$fin$0 000000018006efc8     LIBCMTD:dbgrptt.obj
 0004:00001fd4       $pdata$_VCrtDbgReportW$fin$1 000000018006efd4     LIBCMTD:dbgrptt.obj
 0004:00001fe0       $pdata$_fcloseall$fin$0    000000018006efe0     LIBCMTD:closeall.obj
 0004:00001fec       $pdata$_close$fin$0        000000018006efec     LIBCMTD:lseeki64.obj
 0004:00001fec       $pdata$_lseeki64$fin$0     000000018006efec     LIBCMTD:lseeki64.obj
 0004:00001fec       $pdata$_commit$fin$0       000000018006efec     LIBCMTD:lseeki64.obj
 0004:00001fec       $pdata$_write$fin$0        000000018006efec     LIBCMTD:lseeki64.obj
 0004:00001fec       $pdata$_lseek$fin$0        000000018006efec     LIBCMTD:lseeki64.obj
 0004:00001fec       $pdata$_read$fin$0         000000018006efec     LIBCMTD:lseeki64.obj
 0004:00001ff8       $pdata$_IsNonwritableInCurrentImage$filt$0 000000018006eff8     LIBCMTD:pesect.obj
 0004:00002004       $pdata$__CxxCallCatchBlock$filt$0 000000018006f004     LIBCMTD:frame.obj
 0004:00002010       $pdata$__CxxCallCatchBlock$fin$1 000000018006f010     LIBCMTD:frame.obj
 0004:0000201c       $pdata$__DestructExceptionObject$filt$0 000000018006f01c     LIBCMTD:frame.obj
 0004:00002028       $pdata$__FrameUnwindToState$filt$0 000000018006f028     LIBCMTD:frame.obj
 0004:00002034       $pdata$__FrameUnwindToState$fin$1 000000018006f034     LIBCMTD:frame.obj
 0004:00002040       $pdata$_onexit$fin$0       000000018006f040     LIBCMTD:onexit.obj
 0004:0000204c       $pdata$?dtor$0@?0??x_ismbbtype_l@@YAHPEAUlocaleinfo_struct@@IHH@Z@4HA 000000018006f04c     LIBCMTD:ismbbyte.obj
 0004:00002058       $pdata$setvbuf$fin$0       000000018006f058     LIBCMTD:fclose.obj
 0004:00002058       $pdata$fclose$fin$0        000000018006f058     LIBCMTD:fclose.obj
 0004:00002064       $pdata$?fin$0@?0??_Type_info_dtor@type_info@@CAXPEAV1@@Z@4HA 000000018006f064     LIBCMTD:typname.obj
